
08-DCMI2LCD.elf:     file format elf32-littlearm

Sections:
Idx Name          Size      VMA       LMA       File off  Algn
  0 .isr_vector   00000298  08000000  08000000  00010000  2**0
                  CONTENTS, ALLOC, LOAD, READONLY, DATA
  1 .text         00007d04  080002a0  080002a0  000102a0  2**4
                  CONTENTS, ALLOC, LOAD, READONLY, CODE
  2 .rodata       00007740  08007fa4  08007fa4  00017fa4  2**2
                  CONTENTS, ALLOC, LOAD, READONLY, DATA
  3 .init_array   00000004  0800f6e4  0800f6e4  0001f6e4  2**2
                  CONTENTS, ALLOC, LOAD, DATA
  4 .fini_array   00000004  0800f6e8  0800f6e8  0001f6e8  2**2
                  CONTENTS, ALLOC, LOAD, DATA
  5 .data         000000d4  24000000  0800f6ec  00020000  2**2
                  CONTENTS, ALLOC, LOAD, DATA
  6 .bss          00006d2c  240000d4  0800f7c0  000200d4  2**2
                  ALLOC
  7 ._user_heap_stack 00000600  24006e00  0800f7c0  00026e00  2**0
                  ALLOC
  8 .ARM.attributes 0000002e  00000000  00000000  000200d4  2**0
                  CONTENTS, READONLY
  9 .comment      00000043  00000000  00000000  00020102  2**0
                  CONTENTS, READONLY
 10 .debug_frame  0000059c  00000000  00000000  00020148  2**2
                  CONTENTS, READONLY, DEBUGGING, OCTETS

Disassembly of section .text:

080002a0 <__do_global_dtors_aux>:
 80002a0:	b510      	push	{r4, lr}
 80002a2:	4c05      	ldr	r4, [pc, #20]	; (80002b8 <__do_global_dtors_aux+0x18>)
 80002a4:	7823      	ldrb	r3, [r4, #0]
 80002a6:	b933      	cbnz	r3, 80002b6 <__do_global_dtors_aux+0x16>
 80002a8:	4b04      	ldr	r3, [pc, #16]	; (80002bc <__do_global_dtors_aux+0x1c>)
 80002aa:	b113      	cbz	r3, 80002b2 <__do_global_dtors_aux+0x12>
 80002ac:	4804      	ldr	r0, [pc, #16]	; (80002c0 <__do_global_dtors_aux+0x20>)
 80002ae:	f3af 8000 	nop.w
 80002b2:	2301      	movs	r3, #1
 80002b4:	7023      	strb	r3, [r4, #0]
 80002b6:	bd10      	pop	{r4, pc}
 80002b8:	240000d4 	.word	0x240000d4
 80002bc:	00000000 	.word	0x00000000
 80002c0:	08007f8c 	.word	0x08007f8c

080002c4 <frame_dummy>:
 80002c4:	b508      	push	{r3, lr}
 80002c6:	4b03      	ldr	r3, [pc, #12]	; (80002d4 <frame_dummy+0x10>)
 80002c8:	b11b      	cbz	r3, 80002d2 <frame_dummy+0xe>
 80002ca:	4903      	ldr	r1, [pc, #12]	; (80002d8 <frame_dummy+0x14>)
 80002cc:	4803      	ldr	r0, [pc, #12]	; (80002dc <frame_dummy+0x18>)
 80002ce:	f3af 8000 	nop.w
 80002d2:	bd08      	pop	{r3, pc}
 80002d4:	00000000 	.word	0x00000000
 80002d8:	240000d8 	.word	0x240000d8
 80002dc:	08007f8c 	.word	0x08007f8c

080002e0 <memchr>:
 80002e0:	f001 01ff 	and.w	r1, r1, #255	; 0xff
 80002e4:	2a10      	cmp	r2, #16
 80002e6:	db2b      	blt.n	8000340 <memchr+0x60>
 80002e8:	f010 0f07 	tst.w	r0, #7
 80002ec:	d008      	beq.n	8000300 <memchr+0x20>
 80002ee:	f810 3b01 	ldrb.w	r3, [r0], #1
 80002f2:	3a01      	subs	r2, #1
 80002f4:	428b      	cmp	r3, r1
 80002f6:	d02d      	beq.n	8000354 <memchr+0x74>
 80002f8:	f010 0f07 	tst.w	r0, #7
 80002fc:	b342      	cbz	r2, 8000350 <memchr+0x70>
 80002fe:	d1f6      	bne.n	80002ee <memchr+0xe>
 8000300:	b4f0      	push	{r4, r5, r6, r7}
 8000302:	ea41 2101 	orr.w	r1, r1, r1, lsl #8
 8000306:	ea41 4101 	orr.w	r1, r1, r1, lsl #16
 800030a:	f022 0407 	bic.w	r4, r2, #7
 800030e:	f07f 0700 	mvns.w	r7, #0
 8000312:	2300      	movs	r3, #0
 8000314:	e8f0 5602 	ldrd	r5, r6, [r0], #8
 8000318:	3c08      	subs	r4, #8
 800031a:	ea85 0501 	eor.w	r5, r5, r1
 800031e:	ea86 0601 	eor.w	r6, r6, r1
 8000322:	fa85 f547 	uadd8	r5, r5, r7
 8000326:	faa3 f587 	sel	r5, r3, r7
 800032a:	fa86 f647 	uadd8	r6, r6, r7
 800032e:	faa5 f687 	sel	r6, r5, r7
 8000332:	b98e      	cbnz	r6, 8000358 <memchr+0x78>
 8000334:	d1ee      	bne.n	8000314 <memchr+0x34>
 8000336:	bcf0      	pop	{r4, r5, r6, r7}
 8000338:	f001 01ff 	and.w	r1, r1, #255	; 0xff
 800033c:	f002 0207 	and.w	r2, r2, #7
 8000340:	b132      	cbz	r2, 8000350 <memchr+0x70>
 8000342:	f810 3b01 	ldrb.w	r3, [r0], #1
 8000346:	3a01      	subs	r2, #1
 8000348:	ea83 0301 	eor.w	r3, r3, r1
 800034c:	b113      	cbz	r3, 8000354 <memchr+0x74>
 800034e:	d1f8      	bne.n	8000342 <memchr+0x62>
 8000350:	2000      	movs	r0, #0
 8000352:	4770      	bx	lr
 8000354:	3801      	subs	r0, #1
 8000356:	4770      	bx	lr
 8000358:	2d00      	cmp	r5, #0
 800035a:	bf06      	itte	eq
 800035c:	4635      	moveq	r5, r6
 800035e:	3803      	subeq	r0, #3
 8000360:	3807      	subne	r0, #7
 8000362:	f015 0f01 	tst.w	r5, #1
 8000366:	d107      	bne.n	8000378 <memchr+0x98>
 8000368:	3001      	adds	r0, #1
 800036a:	f415 7f80 	tst.w	r5, #256	; 0x100
 800036e:	bf02      	ittt	eq
 8000370:	3001      	addeq	r0, #1
 8000372:	f415 3fc0 	tsteq.w	r5, #98304	; 0x18000
 8000376:	3001      	addeq	r0, #1
 8000378:	bcf0      	pop	{r4, r5, r6, r7}
 800037a:	3801      	subs	r0, #1
 800037c:	4770      	bx	lr
 800037e:	bf00      	nop

08000380 <Camera_WriteReg>:
 8000380:	b51f      	push	{r0, r1, r2, r3, r4, lr}
 8000382:	7813      	ldrb	r3, [r2, #0]
 8000384:	aa03      	add	r2, sp, #12
 8000386:	f88d 100c 	strb.w	r1, [sp, #12]
 800038a:	f88d 300d 	strb.w	r3, [sp, #13]
 800038e:	6883      	ldr	r3, [r0, #8]
 8000390:	9300      	str	r3, [sp, #0]
 8000392:	2302      	movs	r3, #2
 8000394:	7901      	ldrb	r1, [r0, #4]
 8000396:	6800      	ldr	r0, [r0, #0]
 8000398:	f004 fbf4 	bl	8004b84 <HAL_I2C_Master_Transmit>
 800039c:	3800      	subs	r0, #0
 800039e:	bf18      	it	ne
 80003a0:	2001      	movne	r0, #1
 80003a2:	b005      	add	sp, #20
 80003a4:	f85d fb04 	ldr.w	pc, [sp], #4

080003a8 <Camera_ReadReg>:
 80003a8:	b530      	push	{r4, r5, lr}
 80003aa:	6883      	ldr	r3, [r0, #8]
 80003ac:	b085      	sub	sp, #20
 80003ae:	4604      	mov	r4, r0
 80003b0:	4615      	mov	r5, r2
 80003b2:	f88d 100f 	strb.w	r1, [sp, #15]
 80003b6:	f10d 020f 	add.w	r2, sp, #15
 80003ba:	7901      	ldrb	r1, [r0, #4]
 80003bc:	9300      	str	r3, [sp, #0]
 80003be:	2301      	movs	r3, #1
 80003c0:	6800      	ldr	r0, [r0, #0]
 80003c2:	4419      	add	r1, r3
 80003c4:	f004 fbde 	bl	8004b84 <HAL_I2C_Master_Transmit>
 80003c8:	68a3      	ldr	r3, [r4, #8]
 80003ca:	7921      	ldrb	r1, [r4, #4]
 80003cc:	462a      	mov	r2, r5
 80003ce:	9300      	str	r3, [sp, #0]
 80003d0:	2301      	movs	r3, #1
 80003d2:	6820      	ldr	r0, [r4, #0]
 80003d4:	4419      	add	r1, r3
 80003d6:	f004 fc6b 	bl	8004cb0 <HAL_I2C_Master_Receive>
 80003da:	3800      	subs	r0, #0
 80003dc:	bf18      	it	ne
 80003de:	2001      	movne	r0, #1
 80003e0:	b005      	add	sp, #20
 80003e2:	bd30      	pop	{r4, r5, pc}

080003e4 <Camera_WriteRegb2>:
 80003e4:	b510      	push	{r4, lr}
 80003e6:	6883      	ldr	r3, [r0, #8]
 80003e8:	b086      	sub	sp, #24
 80003ea:	7904      	ldrb	r4, [r0, #4]
 80003ec:	9302      	str	r3, [sp, #8]
 80003ee:	2301      	movs	r3, #1
 80003f0:	f88d 2017 	strb.w	r2, [sp, #23]
 80003f4:	460a      	mov	r2, r1
 80003f6:	9301      	str	r3, [sp, #4]
 80003f8:	f10d 0317 	add.w	r3, sp, #23
 80003fc:	1c61      	adds	r1, r4, #1
 80003fe:	9300      	str	r3, [sp, #0]
 8000400:	2302      	movs	r3, #2
 8000402:	6800      	ldr	r0, [r0, #0]
 8000404:	f004 fcec 	bl	8004de0 <HAL_I2C_Mem_Write>
 8000408:	3800      	subs	r0, #0
 800040a:	bf18      	it	ne
 800040c:	2001      	movne	r0, #1
 800040e:	b006      	add	sp, #24
 8000410:	bd10      	pop	{r4, pc}

08000412 <Camera_ReadRegb2>:
 8000412:	b51f      	push	{r0, r1, r2, r3, r4, lr}
 8000414:	6883      	ldr	r3, [r0, #8]
 8000416:	7904      	ldrb	r4, [r0, #4]
 8000418:	9302      	str	r3, [sp, #8]
 800041a:	2301      	movs	r3, #1
 800041c:	e9cd 2300 	strd	r2, r3, [sp]
 8000420:	460a      	mov	r2, r1
 8000422:	2302      	movs	r3, #2
 8000424:	1c61      	adds	r1, r4, #1
 8000426:	6800      	ldr	r0, [r0, #0]
 8000428:	f004 fdb4 	bl	8004f94 <HAL_I2C_Mem_Read>
 800042c:	3800      	subs	r0, #0
 800042e:	bf18      	it	ne
 8000430:	2001      	movne	r0, #1
 8000432:	b004      	add	sp, #16
 8000434:	bd10      	pop	{r4, pc}
	...

08000438 <Camera_read_id>:
 8000438:	2301      	movs	r3, #1
 800043a:	b513      	push	{r0, r1, r4, lr}
 800043c:	f88d 3004 	strb.w	r3, [sp, #4]
 8000440:	4604      	mov	r4, r0
 8000442:	7903      	ldrb	r3, [r0, #4]
 8000444:	aa01      	add	r2, sp, #4
 8000446:	2b78      	cmp	r3, #120	; 0x78
 8000448:	d023      	beq.n	8000492 <Camera_read_id+0x5a>
 800044a:	21ff      	movs	r1, #255	; 0xff
 800044c:	f7ff ff98 	bl	8000380 <Camera_WriteReg>
 8000450:	aa01      	add	r2, sp, #4
 8000452:	211c      	movs	r1, #28
 8000454:	4620      	mov	r0, r4
 8000456:	f7ff ffa7 	bl	80003a8 <Camera_ReadReg>
 800045a:	f10d 0205 	add.w	r2, sp, #5
 800045e:	211d      	movs	r1, #29
 8000460:	4620      	mov	r0, r4
 8000462:	f7ff ffa1 	bl	80003a8 <Camera_ReadReg>
 8000466:	f8bd 3004 	ldrh.w	r3, [sp, #4]
 800046a:	aa01      	add	r2, sp, #4
 800046c:	210a      	movs	r1, #10
 800046e:	ba5b      	rev16	r3, r3
 8000470:	4620      	mov	r0, r4
 8000472:	81a3      	strh	r3, [r4, #12]
 8000474:	f7ff ff98 	bl	80003a8 <Camera_ReadReg>
 8000478:	f10d 0205 	add.w	r2, sp, #5
 800047c:	210b      	movs	r1, #11
 800047e:	4620      	mov	r0, r4
 8000480:	f7ff ff92 	bl	80003a8 <Camera_ReadReg>
 8000484:	f8bd 3004 	ldrh.w	r3, [sp, #4]
 8000488:	2000      	movs	r0, #0
 800048a:	ba5b      	rev16	r3, r3
 800048c:	81e3      	strh	r3, [r4, #14]
 800048e:	b002      	add	sp, #8
 8000490:	bd10      	pop	{r4, pc}
 8000492:	f243 010a 	movw	r1, #12298	; 0x300a
 8000496:	4806      	ldr	r0, [pc, #24]	; (80004b0 <Camera_read_id+0x78>)
 8000498:	f7ff ffbb 	bl	8000412 <Camera_ReadRegb2>
 800049c:	f10d 0205 	add.w	r2, sp, #5
 80004a0:	f243 010b 	movw	r1, #12299	; 0x300b
 80004a4:	4802      	ldr	r0, [pc, #8]	; (80004b0 <Camera_read_id+0x78>)
 80004a6:	f7ff ffb4 	bl	8000412 <Camera_ReadRegb2>
 80004aa:	2300      	movs	r3, #0
 80004ac:	81a3      	strh	r3, [r4, #12]
 80004ae:	e7e9      	b.n	8000484 <Camera_read_id+0x4c>
 80004b0:	240000f0 	.word	0x240000f0

080004b4 <Camera_Init_Device>:
 80004b4:	b538      	push	{r3, r4, r5, lr}
 80004b6:	4c26      	ldr	r4, [pc, #152]	; (8000550 <Camera_Init_Device+0x9c>)
 80004b8:	2342      	movs	r3, #66	; 0x42
 80004ba:	460d      	mov	r5, r1
 80004bc:	7123      	strb	r3, [r4, #4]
 80004be:	2364      	movs	r3, #100	; 0x64
 80004c0:	6020      	str	r0, [r4, #0]
 80004c2:	4620      	mov	r0, r4
 80004c4:	60a3      	str	r3, [r4, #8]
 80004c6:	f7ff ffb7 	bl	8000438 <Camera_read_id>
 80004ca:	68e2      	ldr	r2, [r4, #12]
 80004cc:	4b21      	ldr	r3, [pc, #132]	; (8000554 <Camera_Init_Device+0xa0>)
 80004ce:	429a      	cmp	r2, r3
 80004d0:	d103      	bne.n	80004da <Camera_Init_Device+0x26>
 80004d2:	e8bd 4038 	ldmia.w	sp!, {r3, r4, r5, lr}
 80004d6:	f000 bc29 	b.w	8000d2c <OV7670_Config>
 80004da:	2360      	movs	r3, #96	; 0x60
 80004dc:	4620      	mov	r0, r4
 80004de:	7123      	strb	r3, [r4, #4]
 80004e0:	f7ff ffaa 	bl	8000438 <Camera_read_id>
 80004e4:	89a2      	ldrh	r2, [r4, #12]
 80004e6:	f647 73a2 	movw	r3, #32674	; 0x7fa2
 80004ea:	429a      	cmp	r2, r3
 80004ec:	d109      	bne.n	8000502 <Camera_Init_Device+0x4e>
 80004ee:	89e2      	ldrh	r2, [r4, #14]
 80004f0:	f242 6343 	movw	r3, #9795	; 0x2643
 80004f4:	429a      	cmp	r2, r3
 80004f6:	d804      	bhi.n	8000502 <Camera_Init_Device+0x4e>
 80004f8:	4628      	mov	r0, r5
 80004fa:	e8bd 4038 	ldmia.w	sp!, {r3, r4, r5, lr}
 80004fe:	f000 b857 	b.w	80005b0 <ov2640_init>
 8000502:	2342      	movs	r3, #66	; 0x42
 8000504:	4812      	ldr	r0, [pc, #72]	; (8000550 <Camera_Init_Device+0x9c>)
 8000506:	7123      	strb	r3, [r4, #4]
 8000508:	f7ff ff96 	bl	8000438 <Camera_read_id>
 800050c:	89a2      	ldrh	r2, [r4, #12]
 800050e:	f647 73a2 	movw	r3, #32674	; 0x7fa2
 8000512:	429a      	cmp	r2, r3
 8000514:	d109      	bne.n	800052a <Camera_Init_Device+0x76>
 8000516:	89e2      	ldrh	r2, [r4, #14]
 8000518:	f247 7323 	movw	r3, #30499	; 0x7723
 800051c:	429a      	cmp	r2, r3
 800051e:	d804      	bhi.n	800052a <Camera_Init_Device+0x76>
 8000520:	4628      	mov	r0, r5
 8000522:	e8bd 4038 	ldmia.w	sp!, {r3, r4, r5, lr}
 8000526:	f000 bd53 	b.w	8000fd0 <ov7725_init>
 800052a:	2378      	movs	r3, #120	; 0x78
 800052c:	4808      	ldr	r0, [pc, #32]	; (8000550 <Camera_Init_Device+0x9c>)
 800052e:	7123      	strb	r3, [r4, #4]
 8000530:	f7ff ff82 	bl	8000438 <Camera_read_id>
 8000534:	89e2      	ldrh	r2, [r4, #14]
 8000536:	f245 6340 	movw	r3, #22080	; 0x5640
 800053a:	429a      	cmp	r2, r3
 800053c:	d104      	bne.n	8000548 <Camera_Init_Device+0x94>
 800053e:	4628      	mov	r0, r5
 8000540:	e8bd 4038 	ldmia.w	sp!, {r3, r4, r5, lr}
 8000544:	f000 b90c 	b.w	8000760 <ov5640_init>
 8000548:	2300      	movs	r3, #0
 800054a:	7123      	strb	r3, [r4, #4]
 800054c:	81e3      	strh	r3, [r4, #14]
 800054e:	bd38      	pop	{r3, r4, r5, pc}
 8000550:	240000f0 	.word	0x240000f0
 8000554:	76737fa2 	.word	0x76737fa2

08000558 <wrSensorRegs>:
 8000558:	b538      	push	{r3, r4, r5, lr}
 800055a:	1c44      	adds	r4, r0, #1
 800055c:	4d05      	ldr	r5, [pc, #20]	; (8000574 <wrSensorRegs+0x1c>)
 800055e:	f814 1c01 	ldrb.w	r1, [r4, #-1]
 8000562:	b901      	cbnz	r1, 8000566 <wrSensorRegs+0xe>
 8000564:	bd38      	pop	{r3, r4, r5, pc}
 8000566:	4622      	mov	r2, r4
 8000568:	4628      	mov	r0, r5
 800056a:	3402      	adds	r4, #2
 800056c:	f7ff ff08 	bl	8000380 <Camera_WriteReg>
 8000570:	e7f5      	b.n	800055e <wrSensorRegs+0x6>
 8000572:	bf00      	nop
 8000574:	240000f0 	.word	0x240000f0

08000578 <OV2640_RD_Reg>:
 8000578:	b507      	push	{r0, r1, r2, lr}
 800057a:	4601      	mov	r1, r0
 800057c:	f10d 0207 	add.w	r2, sp, #7
 8000580:	4803      	ldr	r0, [pc, #12]	; (8000590 <OV2640_RD_Reg+0x18>)
 8000582:	f7ff ff11 	bl	80003a8 <Camera_ReadReg>
 8000586:	f89d 0007 	ldrb.w	r0, [sp, #7]
 800058a:	b003      	add	sp, #12
 800058c:	f85d fb04 	ldr.w	pc, [sp], #4
 8000590:	240000f0 	.word	0x240000f0

08000594 <OV2640_WR_Reg.isra.0>:
 8000594:	b507      	push	{r0, r1, r2, lr}
 8000596:	f88d 1007 	strb.w	r1, [sp, #7]
 800059a:	f10d 0207 	add.w	r2, sp, #7
 800059e:	4601      	mov	r1, r0
 80005a0:	4802      	ldr	r0, [pc, #8]	; (80005ac <OV2640_WR_Reg.isra.0+0x18>)
 80005a2:	f7ff feed 	bl	8000380 <Camera_WriteReg>
 80005a6:	b003      	add	sp, #12
 80005a8:	f85d fb04 	ldr.w	pc, [sp], #4
 80005ac:	240000f0 	.word	0x240000f0

080005b0 <ov2640_init>:
 80005b0:	e92d 47f3 	stmdb	sp!, {r0, r1, r4, r5, r6, r7, r8, r9, sl, lr}
 80005b4:	4604      	mov	r4, r0
 80005b6:	2064      	movs	r0, #100	; 0x64
 80005b8:	f002 fd90 	bl	80030dc <HAL_Delay>
 80005bc:	2101      	movs	r1, #1
 80005be:	20ff      	movs	r0, #255	; 0xff
 80005c0:	4e4f      	ldr	r6, [pc, #316]	; (8000700 <ov2640_init+0x150>)
 80005c2:	f7ff ffe7 	bl	8000594 <OV2640_WR_Reg.isra.0>
 80005c6:	2180      	movs	r1, #128	; 0x80
 80005c8:	2012      	movs	r0, #18
 80005ca:	f7ff ffe3 	bl	8000594 <OV2640_WR_Reg.isra.0>
 80005ce:	2005      	movs	r0, #5
 80005d0:	f002 fd84 	bl	80030dc <HAL_Delay>
 80005d4:	484b      	ldr	r0, [pc, #300]	; (8000704 <ov2640_init+0x154>)
 80005d6:	f7ff ffbf 	bl	8000558 <wrSensorRegs>
 80005da:	201e      	movs	r0, #30
 80005dc:	f002 fd7e 	bl	80030dc <HAL_Delay>
 80005e0:	7434      	strb	r4, [r6, #16]
 80005e2:	2401      	movs	r4, #1
 80005e4:	2100      	movs	r1, #0
 80005e6:	20ff      	movs	r0, #255	; 0xff
 80005e8:	7474      	strb	r4, [r6, #17]
 80005ea:	f7ff ffd3 	bl	8000594 <OV2640_WR_Reg.isra.0>
 80005ee:	4621      	mov	r1, r4
 80005f0:	2005      	movs	r0, #5
 80005f2:	f7ff ffcf 	bl	8000594 <OV2640_WR_Reg.isra.0>
 80005f6:	4844      	ldr	r0, [pc, #272]	; (8000708 <ov2640_init+0x158>)
 80005f8:	f7ff ffae 	bl	8000558 <wrSensorRegs>
 80005fc:	4621      	mov	r1, r4
 80005fe:	20ff      	movs	r0, #255	; 0xff
 8000600:	7c35      	ldrb	r5, [r6, #16]
 8000602:	f7ff ffc7 	bl	8000594 <OV2640_WR_Reg.isra.0>
 8000606:	2012      	movs	r0, #18
 8000608:	f7ff ffb6 	bl	8000578 <OV2640_RD_Reg>
 800060c:	2100      	movs	r1, #0
 800060e:	f000 0702 	and.w	r7, r0, #2
 8000612:	20ff      	movs	r0, #255	; 0xff
 8000614:	f7ff ffbe 	bl	8000594 <OV2640_WR_Reg.isra.0>
 8000618:	2044      	movs	r0, #68	; 0x44
 800061a:	f7ff ffad 	bl	8000578 <OV2640_RD_Reg>
 800061e:	4b3b      	ldr	r3, [pc, #236]	; (800070c <ov2640_init+0x15c>)
 8000620:	4a3b      	ldr	r2, [pc, #236]	; (8000710 <ov2640_init+0x160>)
 8000622:	4681      	mov	r9, r0
 8000624:	f833 8025 	ldrh.w	r8, [r3, r5, lsl #2]
 8000628:	eb03 0585 	add.w	r5, r3, r5, lsl #2
 800062c:	f8b3 1060 	ldrh.w	r1, [r3, #96]	; 0x60
 8000630:	20ff      	movs	r0, #255	; 0xff
 8000632:	4b38      	ldr	r3, [pc, #224]	; (8000714 <ov2640_init+0x164>)
 8000634:	886d      	ldrh	r5, [r5, #2]
 8000636:	4541      	cmp	r1, r8
 8000638:	bf2c      	ite	cs
 800063a:	4692      	movcs	sl, r2
 800063c:	469a      	movcc	sl, r3
 800063e:	2100      	movs	r1, #0
 8000640:	f7ff ffa8 	bl	8000594 <OV2640_WR_Reg.isra.0>
 8000644:	4621      	mov	r1, r4
 8000646:	2005      	movs	r0, #5
 8000648:	f7ff ffa4 	bl	8000594 <OV2640_WR_Reg.isra.0>
 800064c:	f3c8 0187 	ubfx	r1, r8, #2, #8
 8000650:	205a      	movs	r0, #90	; 0x5a
 8000652:	f3c8 2881 	ubfx	r8, r8, #10, #2
 8000656:	f7ff ff9d 	bl	8000594 <OV2640_WR_Reg.isra.0>
 800065a:	f3c5 0187 	ubfx	r1, r5, #2, #8
 800065e:	0a2d      	lsrs	r5, r5, #8
 8000660:	205b      	movs	r0, #91	; 0x5b
 8000662:	f7ff ff97 	bl	8000594 <OV2640_WR_Reg.isra.0>
 8000666:	205c      	movs	r0, #92	; 0x5c
 8000668:	f005 0504 	and.w	r5, r5, #4
 800066c:	ea45 0108 	orr.w	r1, r5, r8
 8000670:	f7ff ff90 	bl	8000594 <OV2640_WR_Reg.isra.0>
 8000674:	4621      	mov	r1, r4
 8000676:	20ff      	movs	r0, #255	; 0xff
 8000678:	f7ff ff8c 	bl	8000594 <OV2640_WR_Reg.isra.0>
 800067c:	4650      	mov	r0, sl
 800067e:	f7ff ff6b 	bl	8000558 <wrSensorRegs>
 8000682:	4621      	mov	r1, r4
 8000684:	20ff      	movs	r0, #255	; 0xff
 8000686:	f7ff ff85 	bl	8000594 <OV2640_WR_Reg.isra.0>
 800068a:	2012      	movs	r0, #18
 800068c:	f7ff ff74 	bl	8000578 <OV2640_RD_Reg>
 8000690:	4338      	orrs	r0, r7
 8000692:	b2c1      	uxtb	r1, r0
 8000694:	2012      	movs	r0, #18
 8000696:	f7ff ff7d 	bl	8000594 <OV2640_WR_Reg.isra.0>
 800069a:	2100      	movs	r1, #0
 800069c:	20ff      	movs	r0, #255	; 0xff
 800069e:	f7ff ff79 	bl	8000594 <OV2640_WR_Reg.isra.0>
 80006a2:	4649      	mov	r1, r9
 80006a4:	2044      	movs	r0, #68	; 0x44
 80006a6:	f7ff ff75 	bl	8000594 <OV2640_WR_Reg.isra.0>
 80006aa:	2100      	movs	r1, #0
 80006ac:	2005      	movs	r0, #5
 80006ae:	f7ff ff71 	bl	8000594 <OV2640_WR_Reg.isra.0>
 80006b2:	4621      	mov	r1, r4
 80006b4:	20ff      	movs	r0, #255	; 0xff
 80006b6:	f7ff ff6d 	bl	8000594 <OV2640_WR_Reg.isra.0>
 80006ba:	2004      	movs	r0, #4
 80006bc:	f7ff ff5c 	bl	8000578 <OV2640_RD_Reg>
 80006c0:	f060 007f 	orn	r0, r0, #127	; 0x7f
 80006c4:	f10d 0207 	add.w	r2, sp, #7
 80006c8:	2104      	movs	r1, #4
 80006ca:	f88d 0007 	strb.w	r0, [sp, #7]
 80006ce:	4630      	mov	r0, r6
 80006d0:	f7ff fe56 	bl	8000380 <Camera_WriteReg>
 80006d4:	4621      	mov	r1, r4
 80006d6:	20ff      	movs	r0, #255	; 0xff
 80006d8:	f7ff ff5c 	bl	8000594 <OV2640_WR_Reg.isra.0>
 80006dc:	2004      	movs	r0, #4
 80006de:	f7ff ff4b 	bl	8000578 <OV2640_RD_Reg>
 80006e2:	f040 0050 	orr.w	r0, r0, #80	; 0x50
 80006e6:	f10d 0207 	add.w	r2, sp, #7
 80006ea:	2104      	movs	r1, #4
 80006ec:	f88d 0007 	strb.w	r0, [sp, #7]
 80006f0:	4630      	mov	r0, r6
 80006f2:	f7ff fe45 	bl	8000380 <Camera_WriteReg>
 80006f6:	2000      	movs	r0, #0
 80006f8:	b002      	add	sp, #8
 80006fa:	e8bd 87f0 	ldmia.w	sp!, {r4, r5, r6, r7, r8, r9, sl, pc}
 80006fe:	bf00      	nop
 8000700:	240000f0 	.word	0x240000f0
 8000704:	080080be 	.word	0x080080be
 8000708:	08008024 	.word	0x08008024
 800070c:	08007fa4 	.word	0x08007fa4
 8000710:	08008032 	.word	0x08008032
 8000714:	08008078 	.word	0x08008078

08000718 <calculate_hts>:
 8000718:	4b0f      	ldr	r3, [pc, #60]	; (8000758 <calculate_hts+0x40>)
 800071a:	881a      	ldrh	r2, [r3, #0]
 800071c:	4b0f      	ldr	r3, [pc, #60]	; (800075c <calculate_hts+0x44>)
 800071e:	7c5b      	ldrb	r3, [r3, #17]
 8000720:	1f19      	subs	r1, r3, #4
 8000722:	2901      	cmp	r1, #1
 8000724:	d901      	bls.n	800072a <calculate_hts+0x12>
 8000726:	2b02      	cmp	r3, #2
 8000728:	d110      	bne.n	800074c <calculate_hts+0x34>
 800072a:	f5b0 6fa0 	cmp.w	r0, #1280	; 0x500
 800072e:	d806      	bhi.n	800073e <calculate_hts+0x26>
 8000730:	1d03      	adds	r3, r0, #4
 8000732:	b29b      	uxth	r3, r3
 8000734:	005b      	lsls	r3, r3, #1
 8000736:	429a      	cmp	r2, r3
 8000738:	bfb8      	it	lt
 800073a:	461a      	movlt	r2, r3
 800073c:	b292      	uxth	r2, r2
 800073e:	32fc      	adds	r2, #252	; 0xfc
 8000740:	f240 509e 	movw	r0, #1438	; 0x59e
 8000744:	4290      	cmp	r0, r2
 8000746:	bfb8      	it	lt
 8000748:	4610      	movlt	r0, r2
 800074a:	4770      	bx	lr
 800074c:	f5b0 7f20 	cmp.w	r0, #640	; 0x280
 8000750:	d9f5      	bls.n	800073e <calculate_hts+0x26>
 8000752:	3004      	adds	r0, #4
 8000754:	0043      	lsls	r3, r0, #1
 8000756:	e7ee      	b.n	8000736 <calculate_hts+0x1e>
 8000758:	24000104 	.word	0x24000104
 800075c:	240000f0 	.word	0x240000f0

08000760 <ov5640_init>:
 8000760:	e92d 4ff0 	stmdb	sp!, {r4, r5, r6, r7, r8, r9, sl, fp, lr}
 8000764:	2211      	movs	r2, #17
 8000766:	b087      	sub	sp, #28
 8000768:	f243 1103 	movw	r1, #12547	; 0x3103
 800076c:	4605      	mov	r5, r0
 800076e:	4856      	ldr	r0, [pc, #344]	; (80008c8 <ov5640_init+0x168>)
 8000770:	f7ff fe38 	bl	80003e4 <Camera_WriteRegb2>
 8000774:	4c55      	ldr	r4, [pc, #340]	; (80008cc <ov5640_init+0x16c>)
 8000776:	2282      	movs	r2, #130	; 0x82
 8000778:	f243 0108 	movw	r1, #12296	; 0x3008
 800077c:	4852      	ldr	r0, [pc, #328]	; (80008c8 <ov5640_init+0x168>)
 800077e:	4e52      	ldr	r6, [pc, #328]	; (80008c8 <ov5640_init+0x168>)
 8000780:	f7ff fe30 	bl	80003e4 <Camera_WriteRegb2>
 8000784:	2005      	movs	r0, #5
 8000786:	f002 fca9 	bl	80030dc <HAL_Delay>
 800078a:	f814 3b03 	ldrb.w	r3, [r4], #3
 800078e:	2b00      	cmp	r3, #0
 8000790:	f040 808f 	bne.w	80008b2 <ov5640_init+0x152>
 8000794:	4c4c      	ldr	r4, [pc, #304]	; (80008c8 <ov5640_init+0x168>)
 8000796:	f44f 7096 	mov.w	r0, #300	; 0x12c
 800079a:	f002 fc9f 	bl	80030dc <HAL_Delay>
 800079e:	2261      	movs	r2, #97	; 0x61
 80007a0:	7425      	strb	r5, [r4, #16]
 80007a2:	2501      	movs	r5, #1
 80007a4:	f44f 4186 	mov.w	r1, #17152	; 0x4300
 80007a8:	4620      	mov	r0, r4
 80007aa:	7465      	strb	r5, [r4, #17]
 80007ac:	f7ff fe1a 	bl	80003e4 <Camera_WriteRegb2>
 80007b0:	462a      	mov	r2, r5
 80007b2:	f245 011f 	movw	r1, #20511	; 0x501f
 80007b6:	4620      	mov	r0, r4
 80007b8:	4d45      	ldr	r5, [pc, #276]	; (80008d0 <ov5640_init+0x170>)
 80007ba:	f7ff fe13 	bl	80003e4 <Camera_WriteRegb2>
 80007be:	f10d 0217 	add.w	r2, sp, #23
 80007c2:	f643 0121 	movw	r1, #14369	; 0x3821
 80007c6:	4620      	mov	r0, r4
 80007c8:	f7ff fe23 	bl	8000412 <Camera_ReadRegb2>
 80007cc:	f89d 2017 	ldrb.w	r2, [sp, #23]
 80007d0:	f643 0121 	movw	r1, #14369	; 0x3821
 80007d4:	4620      	mov	r0, r4
 80007d6:	f002 02df 	and.w	r2, r2, #223	; 0xdf
 80007da:	f7ff fe03 	bl	80003e4 <Camera_WriteRegb2>
 80007de:	f10d 0217 	add.w	r2, sp, #23
 80007e2:	f243 0102 	movw	r1, #12290	; 0x3002
 80007e6:	4620      	mov	r0, r4
 80007e8:	f7ff fe13 	bl	8000412 <Camera_ReadRegb2>
 80007ec:	f89d 2017 	ldrb.w	r2, [sp, #23]
 80007f0:	f243 0102 	movw	r1, #12290	; 0x3002
 80007f4:	4620      	mov	r0, r4
 80007f6:	f022 021c 	bic.w	r2, r2, #28
 80007fa:	f042 021c 	orr.w	r2, r2, #28
 80007fe:	f7ff fdf1 	bl	80003e4 <Camera_WriteRegb2>
 8000802:	f10d 0217 	add.w	r2, sp, #23
 8000806:	f243 0106 	movw	r1, #12294	; 0x3006
 800080a:	4620      	mov	r0, r4
 800080c:	f7ff fe01 	bl	8000412 <Camera_ReadRegb2>
 8000810:	f89d 2017 	ldrb.w	r2, [sp, #23]
 8000814:	f243 0106 	movw	r1, #12294	; 0x3006
 8000818:	4620      	mov	r0, r4
 800081a:	f002 02d7 	and.w	r2, r2, #215	; 0xd7
 800081e:	f7ff fde1 	bl	80003e4 <Camera_WriteRegb2>
 8000822:	4b2c      	ldr	r3, [pc, #176]	; (80008d4 <ov5640_init+0x174>)
 8000824:	881b      	ldrh	r3, [r3, #0]
 8000826:	b193      	cbz	r3, 800084e <ov5640_init+0xee>
 8000828:	7c23      	ldrb	r3, [r4, #16]
 800082a:	f835 0023 	ldrh.w	r0, [r5, r3, lsl #2]
 800082e:	f7ff ff73 	bl	8000718 <calculate_hts>
 8000832:	4606      	mov	r6, r0
 8000834:	f3c0 2207 	ubfx	r2, r0, #8, #8
 8000838:	f643 010c 	movw	r1, #14348	; 0x380c
 800083c:	4620      	mov	r0, r4
 800083e:	f7ff fdd1 	bl	80003e4 <Camera_WriteRegb2>
 8000842:	f643 010d 	movw	r1, #14349	; 0x380d
 8000846:	b2f2      	uxtb	r2, r6
 8000848:	4620      	mov	r0, r4
 800084a:	f7ff fdcb 	bl	80003e4 <Camera_WriteRegb2>
 800084e:	7c23      	ldrb	r3, [r4, #16]
 8000850:	7c62      	ldrb	r2, [r4, #17]
 8000852:	f835 6023 	ldrh.w	r6, [r5, r3, lsl #2]
 8000856:	eb05 0583 	add.w	r5, r5, r3, lsl #2
 800085a:	2a02      	cmp	r2, #2
 800085c:	f8b5 8002 	ldrh.w	r8, [r5, #2]
 8000860:	d13a      	bne.n	80008d8 <ov5640_init+0x178>
 8000862:	ea46 0208 	orr.w	r2, r6, r8
 8000866:	0751      	lsls	r1, r2, #29
 8000868:	d039      	beq.n	80008de <ov5640_init+0x17e>
 800086a:	f10d 0217 	add.w	r2, sp, #23
 800086e:	f643 0121 	movw	r1, #14369	; 0x3821
 8000872:	4815      	ldr	r0, [pc, #84]	; (80008c8 <ov5640_init+0x168>)
 8000874:	f7ff fdcd 	bl	8000412 <Camera_ReadRegb2>
 8000878:	f89d 2017 	ldrb.w	r2, [sp, #23]
 800087c:	f643 0121 	movw	r1, #14369	; 0x3821
 8000880:	4811      	ldr	r0, [pc, #68]	; (80008c8 <ov5640_init+0x168>)
 8000882:	f002 02f9 	and.w	r2, r2, #249	; 0xf9
 8000886:	f7ff fdad 	bl	80003e4 <Camera_WriteRegb2>
 800088a:	f10d 0217 	add.w	r2, sp, #23
 800088e:	f643 0120 	movw	r1, #14368	; 0x3820
 8000892:	480d      	ldr	r0, [pc, #52]	; (80008c8 <ov5640_init+0x168>)
 8000894:	f7ff fdbd 	bl	8000412 <Camera_ReadRegb2>
 8000898:	f89d 2017 	ldrb.w	r2, [sp, #23]
 800089c:	f643 0120 	movw	r1, #14368	; 0x3820
 80008a0:	4809      	ldr	r0, [pc, #36]	; (80008c8 <ov5640_init+0x168>)
 80008a2:	f042 0206 	orr.w	r2, r2, #6
 80008a6:	f7ff fd9d 	bl	80003e4 <Camera_WriteRegb2>
 80008aa:	2001      	movs	r0, #1
 80008ac:	b007      	add	sp, #28
 80008ae:	e8bd 8ff0 	ldmia.w	sp!, {r4, r5, r6, r7, r8, r9, sl, fp, pc}
 80008b2:	f814 1c02 	ldrb.w	r1, [r4, #-2]
 80008b6:	4630      	mov	r0, r6
 80008b8:	f814 2c01 	ldrb.w	r2, [r4, #-1]
 80008bc:	ea41 2103 	orr.w	r1, r1, r3, lsl #8
 80008c0:	f7ff fd90 	bl	80003e4 <Camera_WriteRegb2>
 80008c4:	e761      	b.n	800078a <ov5640_init+0x2a>
 80008c6:	bf00      	nop
 80008c8:	240000f0 	.word	0x240000f0
 80008cc:	08008232 	.word	0x08008232
 80008d0:	08007fa4 	.word	0x08007fa4
 80008d4:	24000104 	.word	0x24000104
 80008d8:	3a04      	subs	r2, #4
 80008da:	2a01      	cmp	r2, #1
 80008dc:	d806      	bhi.n	80008ec <ov5640_init+0x18c>
 80008de:	2b0d      	cmp	r3, #13
 80008e0:	d806      	bhi.n	80008f0 <ov5640_init+0x190>
 80008e2:	f243 0212 	movw	r2, #12306	; 0x3012
 80008e6:	40da      	lsrs	r2, r3
 80008e8:	07d2      	lsls	r2, r2, #31
 80008ea:	d4be      	bmi.n	800086a <ov5640_init+0x10a>
 80008ec:	2b07      	cmp	r3, #7
 80008ee:	d0bc      	beq.n	800086a <ov5640_init+0x10a>
 80008f0:	f5b6 6f22 	cmp.w	r6, #2592	; 0xa20
 80008f4:	d8b9      	bhi.n	800086a <ov5640_init+0x10a>
 80008f6:	f5b8 6ff3 	cmp.w	r8, #1944	; 0x798
 80008fa:	d8b6      	bhi.n	800086a <ov5640_init+0x10a>
 80008fc:	4bd5      	ldr	r3, [pc, #852]	; (8000c54 <ov5640_init+0x4f4>)
 80008fe:	4dd6      	ldr	r5, [pc, #856]	; (8000c58 <ov5640_init+0x4f8>)
 8000900:	8818      	ldrh	r0, [r3, #0]
 8000902:	f9b5 4000 	ldrsh.w	r4, [r5]
 8000906:	42b0      	cmp	r0, r6
 8000908:	bf38      	it	cc
 800090a:	4630      	movcc	r0, r6
 800090c:	8018      	strh	r0, [r3, #0]
 800090e:	f5c0 6222 	rsb	r2, r0, #2592	; 0xa20
 8000912:	4bd2      	ldr	r3, [pc, #840]	; (8000c5c <ov5640_init+0x4fc>)
 8000914:	eb02 72d2 	add.w	r2, r2, r2, lsr #31
 8000918:	8819      	ldrh	r1, [r3, #0]
 800091a:	1052      	asrs	r2, r2, #1
 800091c:	4541      	cmp	r1, r8
 800091e:	bf38      	it	cc
 8000920:	4641      	movcc	r1, r8
 8000922:	4294      	cmp	r4, r2
 8000924:	bfa8      	it	ge
 8000926:	4614      	movge	r4, r2
 8000928:	4252      	negs	r2, r2
 800092a:	8019      	strh	r1, [r3, #0]
 800092c:	f5c1 63f3 	rsb	r3, r1, #1944	; 0x798
 8000930:	4294      	cmp	r4, r2
 8000932:	eb03 73d3 	add.w	r3, r3, r3, lsr #31
 8000936:	bfb8      	it	lt
 8000938:	4614      	movlt	r4, r2
 800093a:	105b      	asrs	r3, r3, #1
 800093c:	b224      	sxth	r4, r4
 800093e:	802c      	strh	r4, [r5, #0]
 8000940:	4dc7      	ldr	r5, [pc, #796]	; (8000c60 <ov5640_init+0x500>)
 8000942:	f9b5 2000 	ldrsh.w	r2, [r5]
 8000946:	429a      	cmp	r2, r3
 8000948:	bfa8      	it	ge
 800094a:	461a      	movge	r2, r3
 800094c:	425b      	negs	r3, r3
 800094e:	429a      	cmp	r2, r3
 8000950:	bfb8      	it	lt
 8000952:	461a      	movlt	r2, r3
 8000954:	ebb6 0f50 	cmp.w	r6, r0, lsr #1
 8000958:	b212      	sxth	r2, r2
 800095a:	802a      	strh	r2, [r5, #0]
 800095c:	f200 8176 	bhi.w	8000c4c <ov5640_init+0x4ec>
 8000960:	ebb8 0f51 	cmp.w	r8, r1, lsr #1
 8000964:	bf8c      	ite	hi
 8000966:	f04f 0a01 	movhi.w	sl, #1
 800096a:	f04f 0a02 	movls.w	sl, #2
 800096e:	f100 0c10 	add.w	ip, r0, #16
 8000972:	eb04 75d4 	add.w	r5, r4, r4, lsr #31
 8000976:	f06f 0407 	mvn.w	r4, #7
 800097a:	f101 0708 	add.w	r7, r1, #8
 800097e:	fa1f fc8c 	uxth.w	ip, ip
 8000982:	ee07 6a10 	vmov	s14, r6
 8000986:	106d      	asrs	r5, r5, #1
 8000988:	f5cc 6e22 	rsb	lr, ip, #2592	; 0xa20
 800098c:	b2bf      	uxth	r7, r7
 800098e:	eef8 6a47 	vcvt.f32.u32	s13, s14
 8000992:	f1be 0f00 	cmp.w	lr, #0
 8000996:	46f1      	mov	r9, lr
 8000998:	bfb8      	it	lt
 800099a:	f10e 0903 	addlt.w	r9, lr, #3
 800099e:	eb05 05a9 	add.w	r5, r5, r9, asr #2
 80009a2:	006d      	lsls	r5, r5, #1
 80009a4:	4575      	cmp	r5, lr
 80009a6:	bfa8      	it	ge
 80009a8:	4675      	movge	r5, lr
 80009aa:	f5c7 6ef3 	rsb	lr, r7, #1944	; 0x798
 80009ae:	42a5      	cmp	r5, r4
 80009b0:	46f1      	mov	r9, lr
 80009b2:	bfb8      	it	lt
 80009b4:	4625      	movlt	r5, r4
 80009b6:	f100 040f 	add.w	r4, r0, #15
 80009ba:	f1be 0f00 	cmp.w	lr, #0
 80009be:	f105 0510 	add.w	r5, r5, #16
 80009c2:	bfb8      	it	lt
 80009c4:	f10e 0903 	addlt.w	r9, lr, #3
 80009c8:	fa1f fb85 	uxth.w	fp, r5
 80009cc:	fa14 f585 	uxtah	r5, r4, r5
 80009d0:	eb02 74d2 	add.w	r4, r2, r2, lsr #31
 80009d4:	f06f 0203 	mvn.w	r2, #3
 80009d8:	b2ad      	uxth	r5, r5
 80009da:	1064      	asrs	r4, r4, #1
 80009dc:	ebc4 04a9 	rsb	r4, r4, r9, asr #2
 80009e0:	0064      	lsls	r4, r4, #1
 80009e2:	4574      	cmp	r4, lr
 80009e4:	fbb0 f0fa 	udiv	r0, r0, sl
 80009e8:	bfa8      	it	ge
 80009ea:	4674      	movge	r4, lr
 80009ec:	ee07 0a90 	vmov	s15, r0
 80009f0:	4630      	mov	r0, r6
 80009f2:	4294      	cmp	r4, r2
 80009f4:	eef8 7ae7 	vcvt.f32.s32	s15, s15
 80009f8:	bfb8      	it	lt
 80009fa:	4614      	movlt	r4, r2
 80009fc:	1dca      	adds	r2, r1, #7
 80009fe:	ee87 7aa6 	vdiv.f32	s14, s15, s13
 8000a02:	ee06 8a90 	vmov	s13, r8
 8000a06:	3406      	adds	r4, #6
 8000a08:	b2a3      	uxth	r3, r4
 8000a0a:	fa12 f484 	uxtah	r4, r2, r4
 8000a0e:	eeb8 6a66 	vcvt.f32.u32	s12, s13
 8000a12:	9301      	str	r3, [sp, #4]
 8000a14:	b2a4      	uxth	r4, r4
 8000a16:	fbb1 f1fa 	udiv	r1, r1, sl
 8000a1a:	ee07 1a90 	vmov	s15, r1
 8000a1e:	eef8 7ae7 	vcvt.f32.s32	s15, s15
 8000a22:	fbbc fcfa 	udiv	ip, ip, sl
 8000a26:	eec7 6a86 	vdiv.f32	s13, s15, s12
 8000a2a:	ee07 6a90 	vmov	s15, r6
 8000a2e:	eef8 7ae7 	vcvt.f32.s32	s15, s15
 8000a32:	fbb7 f7fa 	udiv	r7, r7, sl
 8000a36:	eeb4 7ae6 	vcmpe.f32	s14, s13
 8000a3a:	eef1 fa10 	vmrs	APSR_nzcv, fpscr
 8000a3e:	bf58      	it	pl
 8000a40:	eeb0 7a66 	vmovpl.f32	s14, s13
 8000a44:	ee67 7a87 	vmul.f32	s15, s15, s14
 8000a48:	eefc 7ae7 	vcvt.u32.f32	s15, s15
 8000a4c:	ee17 3a90 	vmov	r3, s15
 8000a50:	ee07 8a90 	vmov	s15, r8
 8000a54:	eef8 7ae7 	vcvt.f32.s32	s15, s15
 8000a58:	b29a      	uxth	r2, r3
 8000a5a:	ebac 0202 	sub.w	r2, ip, r2
 8000a5e:	ee67 7a87 	vmul.f32	s15, s15, s14
 8000a62:	eb02 72d2 	add.w	r2, r2, r2, lsr #31
 8000a66:	eefc 7ae7 	vcvt.u32.f32	s15, s15
 8000a6a:	1053      	asrs	r3, r2, #1
 8000a6c:	9302      	str	r3, [sp, #8]
 8000a6e:	ee17 3a90 	vmov	r3, s15
 8000a72:	b29a      	uxth	r2, r3
 8000a74:	1aba      	subs	r2, r7, r2
 8000a76:	3718      	adds	r7, #24
 8000a78:	eb02 72d2 	add.w	r2, r2, r2, lsr #31
 8000a7c:	1053      	asrs	r3, r2, #1
 8000a7e:	4a79      	ldr	r2, [pc, #484]	; (8000c64 <ov5640_init+0x504>)
 8000a80:	9303      	str	r3, [sp, #12]
 8000a82:	f8a2 c000 	strh.w	ip, [r2]
 8000a86:	f7ff fe47 	bl	8000718 <calculate_hts>
 8000a8a:	2ff8      	cmp	r7, #248	; 0xf8
 8000a8c:	4681      	mov	r9, r0
 8000a8e:	ea4f 221b 	mov.w	r2, fp, lsr #8
 8000a92:	f44f 5160 	mov.w	r1, #14336	; 0x3800
 8000a96:	4874      	ldr	r0, [pc, #464]	; (8000c68 <ov5640_init+0x508>)
 8000a98:	bfb8      	it	lt
 8000a9a:	27f8      	movlt	r7, #248	; 0xf8
 8000a9c:	f7ff fca2 	bl	80003e4 <Camera_WriteRegb2>
 8000aa0:	f643 0101 	movw	r1, #14337	; 0x3801
 8000aa4:	fa5f f28b 	uxtb.w	r2, fp
 8000aa8:	486f      	ldr	r0, [pc, #444]	; (8000c68 <ov5640_init+0x508>)
 8000aaa:	f7ff fc9b 	bl	80003e4 <Camera_WriteRegb2>
 8000aae:	9b01      	ldr	r3, [sp, #4]
 8000ab0:	f643 0102 	movw	r1, #14338	; 0x3802
 8000ab4:	486c      	ldr	r0, [pc, #432]	; (8000c68 <ov5640_init+0x508>)
 8000ab6:	0a1a      	lsrs	r2, r3, #8
 8000ab8:	f7ff fc94 	bl	80003e4 <Camera_WriteRegb2>
 8000abc:	f89d 2004 	ldrb.w	r2, [sp, #4]
 8000ac0:	f643 0103 	movw	r1, #14339	; 0x3803
 8000ac4:	4868      	ldr	r0, [pc, #416]	; (8000c68 <ov5640_init+0x508>)
 8000ac6:	f7ff fc8d 	bl	80003e4 <Camera_WriteRegb2>
 8000aca:	f643 0104 	movw	r1, #14340	; 0x3804
 8000ace:	0a2a      	lsrs	r2, r5, #8
 8000ad0:	4865      	ldr	r0, [pc, #404]	; (8000c68 <ov5640_init+0x508>)
 8000ad2:	f7ff fc87 	bl	80003e4 <Camera_WriteRegb2>
 8000ad6:	f643 0105 	movw	r1, #14341	; 0x3805
 8000ada:	b2ea      	uxtb	r2, r5
 8000adc:	4862      	ldr	r0, [pc, #392]	; (8000c68 <ov5640_init+0x508>)
 8000ade:	f7ff fc81 	bl	80003e4 <Camera_WriteRegb2>
 8000ae2:	f643 0106 	movw	r1, #14342	; 0x3806
 8000ae6:	0a35      	lsrs	r5, r6, #8
 8000ae8:	485f      	ldr	r0, [pc, #380]	; (8000c68 <ov5640_init+0x508>)
 8000aea:	0a22      	lsrs	r2, r4, #8
 8000aec:	f7ff fc7a 	bl	80003e4 <Camera_WriteRegb2>
 8000af0:	f643 0107 	movw	r1, #14343	; 0x3807
 8000af4:	b2e2      	uxtb	r2, r4
 8000af6:	485c      	ldr	r0, [pc, #368]	; (8000c68 <ov5640_init+0x508>)
 8000af8:	b2f6      	uxtb	r6, r6
 8000afa:	f7ff fc73 	bl	80003e4 <Camera_WriteRegb2>
 8000afe:	462a      	mov	r2, r5
 8000b00:	ea4f 2418 	mov.w	r4, r8, lsr #8
 8000b04:	f643 0108 	movw	r1, #14344	; 0x3808
 8000b08:	4857      	ldr	r0, [pc, #348]	; (8000c68 <ov5640_init+0x508>)
 8000b0a:	fa5f f888 	uxtb.w	r8, r8
 8000b0e:	f7ff fc69 	bl	80003e4 <Camera_WriteRegb2>
 8000b12:	4632      	mov	r2, r6
 8000b14:	f643 0109 	movw	r1, #14345	; 0x3809
 8000b18:	4853      	ldr	r0, [pc, #332]	; (8000c68 <ov5640_init+0x508>)
 8000b1a:	f7ff fc63 	bl	80003e4 <Camera_WriteRegb2>
 8000b1e:	4622      	mov	r2, r4
 8000b20:	f643 010a 	movw	r1, #14346	; 0x380a
 8000b24:	4850      	ldr	r0, [pc, #320]	; (8000c68 <ov5640_init+0x508>)
 8000b26:	f7ff fc5d 	bl	80003e4 <Camera_WriteRegb2>
 8000b2a:	4642      	mov	r2, r8
 8000b2c:	f643 010b 	movw	r1, #14347	; 0x380b
 8000b30:	484d      	ldr	r0, [pc, #308]	; (8000c68 <ov5640_init+0x508>)
 8000b32:	f7ff fc57 	bl	80003e4 <Camera_WriteRegb2>
 8000b36:	f3c9 2207 	ubfx	r2, r9, #8, #8
 8000b3a:	f643 010c 	movw	r1, #14348	; 0x380c
 8000b3e:	484a      	ldr	r0, [pc, #296]	; (8000c68 <ov5640_init+0x508>)
 8000b40:	f7ff fc50 	bl	80003e4 <Camera_WriteRegb2>
 8000b44:	f643 010d 	movw	r1, #14349	; 0x380d
 8000b48:	fa5f f289 	uxtb.w	r2, r9
 8000b4c:	4846      	ldr	r0, [pc, #280]	; (8000c68 <ov5640_init+0x508>)
 8000b4e:	f7ff fc49 	bl	80003e4 <Camera_WriteRegb2>
 8000b52:	f3c7 2207 	ubfx	r2, r7, #8, #8
 8000b56:	f643 010e 	movw	r1, #14350	; 0x380e
 8000b5a:	4843      	ldr	r0, [pc, #268]	; (8000c68 <ov5640_init+0x508>)
 8000b5c:	f7ff fc42 	bl	80003e4 <Camera_WriteRegb2>
 8000b60:	f643 010f 	movw	r1, #14351	; 0x380f
 8000b64:	b2fa      	uxtb	r2, r7
 8000b66:	4840      	ldr	r0, [pc, #256]	; (8000c68 <ov5640_init+0x508>)
 8000b68:	f7ff fc3c 	bl	80003e4 <Camera_WriteRegb2>
 8000b6c:	9b02      	ldr	r3, [sp, #8]
 8000b6e:	f643 0110 	movw	r1, #14352	; 0x3810
 8000b72:	483d      	ldr	r0, [pc, #244]	; (8000c68 <ov5640_init+0x508>)
 8000b74:	f3c3 2207 	ubfx	r2, r3, #8, #8
 8000b78:	f7ff fc34 	bl	80003e4 <Camera_WriteRegb2>
 8000b7c:	f89d 2008 	ldrb.w	r2, [sp, #8]
 8000b80:	f643 0111 	movw	r1, #14353	; 0x3811
 8000b84:	4838      	ldr	r0, [pc, #224]	; (8000c68 <ov5640_init+0x508>)
 8000b86:	f7ff fc2d 	bl	80003e4 <Camera_WriteRegb2>
 8000b8a:	9b03      	ldr	r3, [sp, #12]
 8000b8c:	f643 0112 	movw	r1, #14354	; 0x3812
 8000b90:	4835      	ldr	r0, [pc, #212]	; (8000c68 <ov5640_init+0x508>)
 8000b92:	f3c3 2207 	ubfx	r2, r3, #8, #8
 8000b96:	f7ff fc25 	bl	80003e4 <Camera_WriteRegb2>
 8000b9a:	f89d 200c 	ldrb.w	r2, [sp, #12]
 8000b9e:	f643 0113 	movw	r1, #14355	; 0x3813
 8000ba2:	4831      	ldr	r0, [pc, #196]	; (8000c68 <ov5640_init+0x508>)
 8000ba4:	f7ff fc1e 	bl	80003e4 <Camera_WriteRegb2>
 8000ba8:	f643 0114 	movw	r1, #14356	; 0x3814
 8000bac:	ea4f 124a 	mov.w	r2, sl, lsl #5
 8000bb0:	482d      	ldr	r0, [pc, #180]	; (8000c68 <ov5640_init+0x508>)
 8000bb2:	3a10      	subs	r2, #16
 8000bb4:	f042 0201 	orr.w	r2, r2, #1
 8000bb8:	b2d2      	uxtb	r2, r2
 8000bba:	9201      	str	r2, [sp, #4]
 8000bbc:	f7ff fc12 	bl	80003e4 <Camera_WriteRegb2>
 8000bc0:	9a01      	ldr	r2, [sp, #4]
 8000bc2:	f643 0115 	movw	r1, #14357	; 0x3815
 8000bc6:	4828      	ldr	r0, [pc, #160]	; (8000c68 <ov5640_init+0x508>)
 8000bc8:	f7ff fc0c 	bl	80003e4 <Camera_WriteRegb2>
 8000bcc:	f10d 0217 	add.w	r2, sp, #23
 8000bd0:	f643 0120 	movw	r1, #14368	; 0x3820
 8000bd4:	4824      	ldr	r0, [pc, #144]	; (8000c68 <ov5640_init+0x508>)
 8000bd6:	f7ff fc1c 	bl	8000412 <Camera_ReadRegb2>
 8000bda:	f1ba 0f01 	cmp.w	sl, #1
 8000bde:	f89d 2017 	ldrb.w	r2, [sp, #23]
 8000be2:	f643 0120 	movw	r1, #14368	; 0x3820
 8000be6:	bf94      	ite	ls
 8000be8:	2700      	movls	r7, #0
 8000bea:	2701      	movhi	r7, #1
 8000bec:	f022 0201 	bic.w	r2, r2, #1
 8000bf0:	481d      	ldr	r0, [pc, #116]	; (8000c68 <ov5640_init+0x508>)
 8000bf2:	433a      	orrs	r2, r7
 8000bf4:	f7ff fbf6 	bl	80003e4 <Camera_WriteRegb2>
 8000bf8:	f10d 0217 	add.w	r2, sp, #23
 8000bfc:	f643 0121 	movw	r1, #14369	; 0x3821
 8000c00:	4819      	ldr	r0, [pc, #100]	; (8000c68 <ov5640_init+0x508>)
 8000c02:	f7ff fc06 	bl	8000412 <Camera_ReadRegb2>
 8000c06:	f89d 2017 	ldrb.w	r2, [sp, #23]
 8000c0a:	f643 0121 	movw	r1, #14369	; 0x3821
 8000c0e:	4816      	ldr	r0, [pc, #88]	; (8000c68 <ov5640_init+0x508>)
 8000c10:	f022 0201 	bic.w	r2, r2, #1
 8000c14:	433a      	orrs	r2, r7
 8000c16:	f7ff fbe5 	bl	80003e4 <Camera_WriteRegb2>
 8000c1a:	462a      	mov	r2, r5
 8000c1c:	f244 6102 	movw	r1, #17922	; 0x4602
 8000c20:	4811      	ldr	r0, [pc, #68]	; (8000c68 <ov5640_init+0x508>)
 8000c22:	f7ff fbdf 	bl	80003e4 <Camera_WriteRegb2>
 8000c26:	4632      	mov	r2, r6
 8000c28:	f244 6103 	movw	r1, #17923	; 0x4603
 8000c2c:	480e      	ldr	r0, [pc, #56]	; (8000c68 <ov5640_init+0x508>)
 8000c2e:	f7ff fbd9 	bl	80003e4 <Camera_WriteRegb2>
 8000c32:	4622      	mov	r2, r4
 8000c34:	f244 6104 	movw	r1, #17924	; 0x4604
 8000c38:	480b      	ldr	r0, [pc, #44]	; (8000c68 <ov5640_init+0x508>)
 8000c3a:	f7ff fbd3 	bl	80003e4 <Camera_WriteRegb2>
 8000c3e:	4642      	mov	r2, r8
 8000c40:	f244 6105 	movw	r1, #17925	; 0x4605
 8000c44:	4808      	ldr	r0, [pc, #32]	; (8000c68 <ov5640_init+0x508>)
 8000c46:	f7ff fbcd 	bl	80003e4 <Camera_WriteRegb2>
 8000c4a:	e60e      	b.n	800086a <ov5640_init+0x10a>
 8000c4c:	f04f 0a01 	mov.w	sl, #1
 8000c50:	e68d      	b.n	800096e <ov5640_init+0x20e>
 8000c52:	bf00      	nop
 8000c54:	24000002 	.word	0x24000002
 8000c58:	24000106 	.word	0x24000106
 8000c5c:	24000000 	.word	0x24000000
 8000c60:	24000108 	.word	0x24000108
 8000c64:	24000104 	.word	0x24000104
 8000c68:	240000f0 	.word	0x240000f0

08000c6c <OV7670_WriteReg>:
 8000c6c:	b51f      	push	{r0, r1, r2, r3, r4, lr}
 8000c6e:	780b      	ldrb	r3, [r1, #0]
 8000c70:	aa03      	add	r2, sp, #12
 8000c72:	f88d 000c 	strb.w	r0, [sp, #12]
 8000c76:	4808      	ldr	r0, [pc, #32]	; (8000c98 <OV7670_WriteReg+0x2c>)
 8000c78:	f88d 300d 	strb.w	r3, [sp, #13]
 8000c7c:	6883      	ldr	r3, [r0, #8]
 8000c7e:	9300      	str	r3, [sp, #0]
 8000c80:	2302      	movs	r3, #2
 8000c82:	7901      	ldrb	r1, [r0, #4]
 8000c84:	6800      	ldr	r0, [r0, #0]
 8000c86:	f003 ff7d 	bl	8004b84 <HAL_I2C_Master_Transmit>
 8000c8a:	3800      	subs	r0, #0
 8000c8c:	bf18      	it	ne
 8000c8e:	2001      	movne	r0, #1
 8000c90:	b005      	add	sp, #20
 8000c92:	f85d fb04 	ldr.w	pc, [sp], #4
 8000c96:	bf00      	nop
 8000c98:	240000f0 	.word	0x240000f0

08000c9c <OV7670_ReadReg>:
 8000c9c:	b530      	push	{r4, r5, lr}
 8000c9e:	4c0e      	ldr	r4, [pc, #56]	; (8000cd8 <OV7670_ReadReg+0x3c>)
 8000ca0:	b085      	sub	sp, #20
 8000ca2:	460d      	mov	r5, r1
 8000ca4:	68a3      	ldr	r3, [r4, #8]
 8000ca6:	f10d 020f 	add.w	r2, sp, #15
 8000caa:	7921      	ldrb	r1, [r4, #4]
 8000cac:	9300      	str	r3, [sp, #0]
 8000cae:	2301      	movs	r3, #1
 8000cb0:	f88d 000f 	strb.w	r0, [sp, #15]
 8000cb4:	4419      	add	r1, r3
 8000cb6:	6820      	ldr	r0, [r4, #0]
 8000cb8:	f003 ff64 	bl	8004b84 <HAL_I2C_Master_Transmit>
 8000cbc:	68a3      	ldr	r3, [r4, #8]
 8000cbe:	7921      	ldrb	r1, [r4, #4]
 8000cc0:	462a      	mov	r2, r5
 8000cc2:	9300      	str	r3, [sp, #0]
 8000cc4:	2301      	movs	r3, #1
 8000cc6:	6820      	ldr	r0, [r4, #0]
 8000cc8:	4419      	add	r1, r3
 8000cca:	f003 fff1 	bl	8004cb0 <HAL_I2C_Master_Receive>
 8000cce:	3800      	subs	r0, #0
 8000cd0:	bf18      	it	ne
 8000cd2:	2001      	movne	r0, #1
 8000cd4:	b005      	add	sp, #20
 8000cd6:	bd30      	pop	{r4, r5, pc}
 8000cd8:	240000f0 	.word	0x240000f0

08000cdc <OV7670_Reset>:
 8000cdc:	b513      	push	{r0, r1, r4, lr}
 8000cde:	2064      	movs	r0, #100	; 0x64
 8000ce0:	f002 f9fc 	bl	80030dc <HAL_Delay>
 8000ce4:	2380      	movs	r3, #128	; 0x80
 8000ce6:	f10d 0107 	add.w	r1, sp, #7
 8000cea:	2012      	movs	r0, #18
 8000cec:	f88d 3007 	strb.w	r3, [sp, #7]
 8000cf0:	f7ff ffbc 	bl	8000c6c <OV7670_WriteReg>
 8000cf4:	4604      	mov	r4, r0
 8000cf6:	b928      	cbnz	r0, 8000d04 <OV7670_Reset+0x28>
 8000cf8:	2064      	movs	r0, #100	; 0x64
 8000cfa:	f002 f9ef 	bl	80030dc <HAL_Delay>
 8000cfe:	4620      	mov	r0, r4
 8000d00:	b002      	add	sp, #8
 8000d02:	bd10      	pop	{r4, pc}
 8000d04:	2401      	movs	r4, #1
 8000d06:	e7fa      	b.n	8000cfe <OV7670_Reset+0x22>

08000d08 <OV7670_WriteRegList>:
 8000d08:	b510      	push	{r4, lr}
 8000d0a:	1c44      	adds	r4, r0, #1
 8000d0c:	f814 0c01 	ldrb.w	r0, [r4, #-1]
 8000d10:	28ff      	cmp	r0, #255	; 0xff
 8000d12:	d002      	beq.n	8000d1a <OV7670_WriteRegList+0x12>
 8000d14:	7823      	ldrb	r3, [r4, #0]
 8000d16:	2bff      	cmp	r3, #255	; 0xff
 8000d18:	d101      	bne.n	8000d1e <OV7670_WriteRegList+0x16>
 8000d1a:	2000      	movs	r0, #0
 8000d1c:	e005      	b.n	8000d2a <OV7670_WriteRegList+0x22>
 8000d1e:	4621      	mov	r1, r4
 8000d20:	3402      	adds	r4, #2
 8000d22:	f7ff ffa3 	bl	8000c6c <OV7670_WriteReg>
 8000d26:	2800      	cmp	r0, #0
 8000d28:	d0f0      	beq.n	8000d0c <OV7670_WriteRegList+0x4>
 8000d2a:	bd10      	pop	{r4, pc}

08000d2c <OV7670_Config>:
 8000d2c:	b513      	push	{r0, r1, r4, lr}
 8000d2e:	f7ff ffd5 	bl	8000cdc <OV7670_Reset>
 8000d32:	4604      	mov	r4, r0
 8000d34:	2800      	cmp	r0, #0
 8000d36:	d14c      	bne.n	8000dd2 <OV7670_Config+0xa6>
 8000d38:	4827      	ldr	r0, [pc, #156]	; (8000dd8 <OV7670_Config+0xac>)
 8000d3a:	f7ff ffe5 	bl	8000d08 <OV7670_WriteRegList>
 8000d3e:	4604      	mov	r4, r0
 8000d40:	2800      	cmp	r0, #0
 8000d42:	d146      	bne.n	8000dd2 <OV7670_Config+0xa6>
 8000d44:	2304      	movs	r3, #4
 8000d46:	f10d 0105 	add.w	r1, sp, #5
 8000d4a:	200c      	movs	r0, #12
 8000d4c:	f88d 3005 	strb.w	r3, [sp, #5]
 8000d50:	f7ff ff8c 	bl	8000c6c <OV7670_WriteReg>
 8000d54:	4604      	mov	r4, r0
 8000d56:	bbe0      	cbnz	r0, 8000dd2 <OV7670_Config+0xa6>
 8000d58:	4820      	ldr	r0, [pc, #128]	; (8000ddc <OV7670_Config+0xb0>)
 8000d5a:	f7ff ffd5 	bl	8000d08 <OV7670_WriteRegList>
 8000d5e:	4604      	mov	r4, r0
 8000d60:	bbb8      	cbnz	r0, 8000dd2 <OV7670_Config+0xa6>
 8000d62:	481f      	ldr	r0, [pc, #124]	; (8000de0 <OV7670_Config+0xb4>)
 8000d64:	f7ff ffd0 	bl	8000d08 <OV7670_WriteRegList>
 8000d68:	4604      	mov	r4, r0
 8000d6a:	bb90      	cbnz	r0, 8000dd2 <OV7670_Config+0xa6>
 8000d6c:	f88d 0006 	strb.w	r0, [sp, #6]
 8000d70:	f10d 0106 	add.w	r1, sp, #6
 8000d74:	2011      	movs	r0, #17
 8000d76:	f7ff ff91 	bl	8000c9c <OV7670_ReadReg>
 8000d7a:	4604      	mov	r4, r0
 8000d7c:	bb48      	cbnz	r0, 8000dd2 <OV7670_Config+0xa6>
 8000d7e:	f89d 3006 	ldrb.w	r3, [sp, #6]
 8000d82:	f10d 0106 	add.w	r1, sp, #6
 8000d86:	2011      	movs	r0, #17
 8000d88:	f023 037f 	bic.w	r3, r3, #127	; 0x7f
 8000d8c:	f043 0301 	orr.w	r3, r3, #1
 8000d90:	f88d 3006 	strb.w	r3, [sp, #6]
 8000d94:	f7ff ff6a 	bl	8000c6c <OV7670_WriteReg>
 8000d98:	4604      	mov	r4, r0
 8000d9a:	b9d0      	cbnz	r0, 8000dd2 <OV7670_Config+0xa6>
 8000d9c:	f88d 0007 	strb.w	r0, [sp, #7]
 8000da0:	f10d 0107 	add.w	r1, sp, #7
 8000da4:	206b      	movs	r0, #107	; 0x6b
 8000da6:	f7ff ff79 	bl	8000c9c <OV7670_ReadReg>
 8000daa:	4604      	mov	r4, r0
 8000dac:	b988      	cbnz	r0, 8000dd2 <OV7670_Config+0xa6>
 8000dae:	f89d 3007 	ldrb.w	r3, [sp, #7]
 8000db2:	f10d 0107 	add.w	r1, sp, #7
 8000db6:	206b      	movs	r0, #107	; 0x6b
 8000db8:	f003 033f 	and.w	r3, r3, #63	; 0x3f
 8000dbc:	f043 0340 	orr.w	r3, r3, #64	; 0x40
 8000dc0:	f88d 3007 	strb.w	r3, [sp, #7]
 8000dc4:	f7ff ff52 	bl	8000c6c <OV7670_WriteReg>
 8000dc8:	4604      	mov	r4, r0
 8000dca:	b910      	cbnz	r0, 8000dd2 <OV7670_Config+0xa6>
 8000dcc:	2064      	movs	r0, #100	; 0x64
 8000dce:	f002 f985 	bl	80030dc <HAL_Delay>
 8000dd2:	4620      	mov	r0, r4
 8000dd4:	b002      	add	sp, #8
 8000dd6:	bd10      	pop	{r4, pc}
 8000dd8:	08008589 	.word	0x08008589
 8000ddc:	080086a3 	.word	0x080086a3
 8000de0:	080086b7 	.word	0x080086b7

08000de4 <ov7725_RD_Reg.isra.0>:
 8000de4:	460a      	mov	r2, r1
 8000de6:	4601      	mov	r1, r0
 8000de8:	4801      	ldr	r0, [pc, #4]	; (8000df0 <ov7725_RD_Reg.isra.0+0xc>)
 8000dea:	f7ff badd 	b.w	80003a8 <Camera_ReadReg>
 8000dee:	bf00      	nop
 8000df0:	240000f0 	.word	0x240000f0

08000df4 <ov7725_set_framesize.isra.0>:
 8000df4:	4b74      	ldr	r3, [pc, #464]	; (8000fc8 <ov7725_set_framesize.isra.0+0x1d4>)
 8000df6:	b573      	push	{r0, r1, r4, r5, r6, lr}
 8000df8:	f833 6020 	ldrh.w	r6, [r3, r0, lsl #2]
 8000dfc:	eb03 0080 	add.w	r0, r3, r0, lsl #2
 8000e00:	f5b6 7f20 	cmp.w	r6, #640	; 0x280
 8000e04:	8845      	ldrh	r5, [r0, #2]
 8000e06:	f200 8086 	bhi.w	8000f16 <ov7725_set_framesize.isra.0+0x122>
 8000e0a:	f5b5 7ff0 	cmp.w	r5, #480	; 0x1e0
 8000e0e:	f200 8082 	bhi.w	8000f16 <ov7725_set_framesize.isra.0+0x122>
 8000e12:	08b3      	lsrs	r3, r6, #2
 8000e14:	f10d 0207 	add.w	r2, sp, #7
 8000e18:	2129      	movs	r1, #41	; 0x29
 8000e1a:	486c      	ldr	r0, [pc, #432]	; (8000fcc <ov7725_set_framesize.isra.0+0x1d8>)
 8000e1c:	f88d 3007 	strb.w	r3, [sp, #7]
 8000e20:	f7ff faae 	bl	8000380 <Camera_WriteReg>
 8000e24:	086b      	lsrs	r3, r5, #1
 8000e26:	f10d 0207 	add.w	r2, sp, #7
 8000e2a:	212c      	movs	r1, #44	; 0x2c
 8000e2c:	4867      	ldr	r0, [pc, #412]	; (8000fcc <ov7725_set_framesize.isra.0+0x1d8>)
 8000e2e:	f88d 3007 	strb.w	r3, [sp, #7]
 8000e32:	f7ff faa5 	bl	8000380 <Camera_WriteReg>
 8000e36:	00ab      	lsls	r3, r5, #2
 8000e38:	f006 0203 	and.w	r2, r6, #3
 8000e3c:	212a      	movs	r1, #42	; 0x2a
 8000e3e:	4863      	ldr	r0, [pc, #396]	; (8000fcc <ov7725_set_framesize.isra.0+0x1d8>)
 8000e40:	f003 0304 	and.w	r3, r3, #4
 8000e44:	4313      	orrs	r3, r2
 8000e46:	f10d 0207 	add.w	r2, sp, #7
 8000e4a:	f88d 3007 	strb.w	r3, [sp, #7]
 8000e4e:	f7ff fa97 	bl	8000380 <Camera_WriteReg>
 8000e52:	f10d 0105 	add.w	r1, sp, #5
 8000e56:	200c      	movs	r0, #12
 8000e58:	f7ff ffc4 	bl	8000de4 <ov7725_RD_Reg.isra.0>
 8000e5c:	f10d 0105 	add.w	r1, sp, #5
 8000e60:	2032      	movs	r0, #50	; 0x32
 8000e62:	f89d 4005 	ldrb.w	r4, [sp, #5]
 8000e66:	f7ff ffbd 	bl	8000de4 <ov7725_RD_Reg.isra.0>
 8000e6a:	f89d 3005 	ldrb.w	r3, [sp, #5]
 8000e6e:	09e4      	lsrs	r4, r4, #7
 8000e70:	2132      	movs	r1, #50	; 0x32
 8000e72:	f023 0340 	bic.w	r3, r3, #64	; 0x40
 8000e76:	f10d 0207 	add.w	r2, sp, #7
 8000e7a:	4854      	ldr	r0, [pc, #336]	; (8000fcc <ov7725_set_framesize.isra.0+0x1d8>)
 8000e7c:	ea43 1384 	orr.w	r3, r3, r4, lsl #6
 8000e80:	f88d 3007 	strb.w	r3, [sp, #7]
 8000e84:	f7ff fa7c 	bl	8000380 <Camera_WriteReg>
 8000e88:	f5b6 7fa0 	cmp.w	r6, #320	; 0x140
 8000e8c:	f10d 0106 	add.w	r1, sp, #6
 8000e90:	f04f 0012 	mov.w	r0, #18
 8000e94:	d841      	bhi.n	8000f1a <ov7725_set_framesize.isra.0+0x126>
 8000e96:	2df0      	cmp	r5, #240	; 0xf0
 8000e98:	d83f      	bhi.n	8000f1a <ov7725_set_framesize.isra.0+0x126>
 8000e9a:	f7ff ffa3 	bl	8000de4 <ov7725_RD_Reg.isra.0>
 8000e9e:	f89d 3006 	ldrb.w	r3, [sp, #6]
 8000ea2:	f10d 0207 	add.w	r2, sp, #7
 8000ea6:	2112      	movs	r1, #18
 8000ea8:	f043 0340 	orr.w	r3, r3, #64	; 0x40
 8000eac:	4847      	ldr	r0, [pc, #284]	; (8000fcc <ov7725_set_framesize.isra.0+0x1d8>)
 8000eae:	f1c4 0403 	rsb	r4, r4, #3
 8000eb2:	f88d 3006 	strb.w	r3, [sp, #6]
 8000eb6:	f88d 3007 	strb.w	r3, [sp, #7]
 8000eba:	f7ff fa61 	bl	8000380 <Camera_WriteReg>
 8000ebe:	233f      	movs	r3, #63	; 0x3f
 8000ec0:	f10d 0207 	add.w	r2, sp, #7
 8000ec4:	2117      	movs	r1, #23
 8000ec6:	4841      	ldr	r0, [pc, #260]	; (8000fcc <ov7725_set_framesize.isra.0+0x1d8>)
 8000ec8:	f88d 3007 	strb.w	r3, [sp, #7]
 8000ecc:	f7ff fa58 	bl	8000380 <Camera_WriteReg>
 8000ed0:	2350      	movs	r3, #80	; 0x50
 8000ed2:	f10d 0207 	add.w	r2, sp, #7
 8000ed6:	2118      	movs	r1, #24
 8000ed8:	483c      	ldr	r0, [pc, #240]	; (8000fcc <ov7725_set_framesize.isra.0+0x1d8>)
 8000eda:	f88d 3007 	strb.w	r3, [sp, #7]
 8000ede:	f7ff fa4f 	bl	8000380 <Camera_WriteReg>
 8000ee2:	f10d 0207 	add.w	r2, sp, #7
 8000ee6:	2119      	movs	r1, #25
 8000ee8:	4838      	ldr	r0, [pc, #224]	; (8000fcc <ov7725_set_framesize.isra.0+0x1d8>)
 8000eea:	f88d 4007 	strb.w	r4, [sp, #7]
 8000eee:	f7ff fa47 	bl	8000380 <Camera_WriteReg>
 8000ef2:	2378      	movs	r3, #120	; 0x78
 8000ef4:	f10d 0207 	add.w	r2, sp, #7
 8000ef8:	211a      	movs	r1, #26
 8000efa:	4834      	ldr	r0, [pc, #208]	; (8000fcc <ov7725_set_framesize.isra.0+0x1d8>)
 8000efc:	f88d 3007 	strb.w	r3, [sp, #7]
 8000f00:	f7ff fa3e 	bl	8000380 <Camera_WriteReg>
 8000f04:	23ff      	movs	r3, #255	; 0xff
 8000f06:	f10d 0207 	add.w	r2, sp, #7
 8000f0a:	21ac      	movs	r1, #172	; 0xac
 8000f0c:	f88d 3007 	strb.w	r3, [sp, #7]
 8000f10:	482e      	ldr	r0, [pc, #184]	; (8000fcc <ov7725_set_framesize.isra.0+0x1d8>)
 8000f12:	f7ff fa35 	bl	8000380 <Camera_WriteReg>
 8000f16:	b002      	add	sp, #8
 8000f18:	bd70      	pop	{r4, r5, r6, pc}
 8000f1a:	f7ff ff63 	bl	8000de4 <ov7725_RD_Reg.isra.0>
 8000f1e:	f89d 3006 	ldrb.w	r3, [sp, #6]
 8000f22:	f10d 0207 	add.w	r2, sp, #7
 8000f26:	2112      	movs	r1, #18
 8000f28:	f003 03bf 	and.w	r3, r3, #191	; 0xbf
 8000f2c:	4827      	ldr	r0, [pc, #156]	; (8000fcc <ov7725_set_framesize.isra.0+0x1d8>)
 8000f2e:	25a0      	movs	r5, #160	; 0xa0
 8000f30:	f1c4 0407 	rsb	r4, r4, #7
 8000f34:	f88d 3006 	strb.w	r3, [sp, #6]
 8000f38:	f88d 3007 	strb.w	r3, [sp, #7]
 8000f3c:	f7ff fa20 	bl	8000380 <Camera_WriteReg>
 8000f40:	2323      	movs	r3, #35	; 0x23
 8000f42:	f10d 0207 	add.w	r2, sp, #7
 8000f46:	2117      	movs	r1, #23
 8000f48:	4820      	ldr	r0, [pc, #128]	; (8000fcc <ov7725_set_framesize.isra.0+0x1d8>)
 8000f4a:	f88d 3007 	strb.w	r3, [sp, #7]
 8000f4e:	f7ff fa17 	bl	8000380 <Camera_WriteReg>
 8000f52:	f10d 0207 	add.w	r2, sp, #7
 8000f56:	2118      	movs	r1, #24
 8000f58:	481c      	ldr	r0, [pc, #112]	; (8000fcc <ov7725_set_framesize.isra.0+0x1d8>)
 8000f5a:	f88d 5007 	strb.w	r5, [sp, #7]
 8000f5e:	f7ff fa0f 	bl	8000380 <Camera_WriteReg>
 8000f62:	f10d 0207 	add.w	r2, sp, #7
 8000f66:	2119      	movs	r1, #25
 8000f68:	4818      	ldr	r0, [pc, #96]	; (8000fcc <ov7725_set_framesize.isra.0+0x1d8>)
 8000f6a:	f88d 4007 	strb.w	r4, [sp, #7]
 8000f6e:	f7ff fa07 	bl	8000380 <Camera_WriteReg>
 8000f72:	23f0      	movs	r3, #240	; 0xf0
 8000f74:	f10d 0207 	add.w	r2, sp, #7
 8000f78:	211a      	movs	r1, #26
 8000f7a:	4814      	ldr	r0, [pc, #80]	; (8000fcc <ov7725_set_framesize.isra.0+0x1d8>)
 8000f7c:	f88d 3007 	strb.w	r3, [sp, #7]
 8000f80:	f7ff f9fe 	bl	8000380 <Camera_WriteReg>
 8000f84:	23f3      	movs	r3, #243	; 0xf3
 8000f86:	f10d 0207 	add.w	r2, sp, #7
 8000f8a:	21ac      	movs	r1, #172	; 0xac
 8000f8c:	480f      	ldr	r0, [pc, #60]	; (8000fcc <ov7725_set_framesize.isra.0+0x1d8>)
 8000f8e:	f88d 3007 	strb.w	r3, [sp, #7]
 8000f92:	f7ff f9f5 	bl	8000380 <Camera_WriteReg>
 8000f96:	2300      	movs	r3, #0
 8000f98:	f10d 0207 	add.w	r2, sp, #7
 8000f9c:	4629      	mov	r1, r5
 8000f9e:	2440      	movs	r4, #64	; 0x40
 8000fa0:	480a      	ldr	r0, [pc, #40]	; (8000fcc <ov7725_set_framesize.isra.0+0x1d8>)
 8000fa2:	f88d 3007 	strb.w	r3, [sp, #7]
 8000fa6:	f7ff f9eb 	bl	8000380 <Camera_WriteReg>
 8000faa:	f10d 0207 	add.w	r2, sp, #7
 8000fae:	21a1      	movs	r1, #161	; 0xa1
 8000fb0:	4806      	ldr	r0, [pc, #24]	; (8000fcc <ov7725_set_framesize.isra.0+0x1d8>)
 8000fb2:	f88d 4007 	strb.w	r4, [sp, #7]
 8000fb6:	f7ff f9e3 	bl	8000380 <Camera_WriteReg>
 8000fba:	f10d 0207 	add.w	r2, sp, #7
 8000fbe:	21a2      	movs	r1, #162	; 0xa2
 8000fc0:	f88d 4007 	strb.w	r4, [sp, #7]
 8000fc4:	e7a4      	b.n	8000f10 <ov7725_set_framesize.isra.0+0x11c>
 8000fc6:	bf00      	nop
 8000fc8:	08007fa4 	.word	0x08007fa4
 8000fcc:	240000f0 	.word	0x240000f0

08000fd0 <ov7725_init>:
 8000fd0:	2380      	movs	r3, #128	; 0x80
 8000fd2:	b5f7      	push	{r0, r1, r2, r4, r5, r6, r7, lr}
 8000fd4:	2112      	movs	r1, #18
 8000fd6:	f10d 0207 	add.w	r2, sp, #7
 8000fda:	4605      	mov	r5, r0
 8000fdc:	4c36      	ldr	r4, [pc, #216]	; (80010b8 <ov7725_init+0xe8>)
 8000fde:	4837      	ldr	r0, [pc, #220]	; (80010bc <ov7725_init+0xec>)
 8000fe0:	4f36      	ldr	r7, [pc, #216]	; (80010bc <ov7725_init+0xec>)
 8000fe2:	f88d 3007 	strb.w	r3, [sp, #7]
 8000fe6:	f7ff f9cb 	bl	8000380 <Camera_WriteReg>
 8000fea:	2002      	movs	r0, #2
 8000fec:	f002 f876 	bl	80030dc <HAL_Delay>
 8000ff0:	f814 6b02 	ldrb.w	r6, [r4], #2
 8000ff4:	2e00      	cmp	r6, #0
 8000ff6:	d153      	bne.n	80010a0 <ov7725_init+0xd0>
 8000ff8:	4c30      	ldr	r4, [pc, #192]	; (80010bc <ov7725_init+0xec>)
 8000ffa:	f44f 7096 	mov.w	r0, #300	; 0x12c
 8000ffe:	f002 f86d 	bl	80030dc <HAL_Delay>
 8001002:	f10d 0106 	add.w	r1, sp, #6
 8001006:	7425      	strb	r5, [r4, #16]
 8001008:	2501      	movs	r5, #1
 800100a:	2012      	movs	r0, #18
 800100c:	7465      	strb	r5, [r4, #17]
 800100e:	f7ff fee9 	bl	8000de4 <ov7725_RD_Reg.isra.0>
 8001012:	f89d 3006 	ldrb.w	r3, [sp, #6]
 8001016:	f10d 0207 	add.w	r2, sp, #7
 800101a:	2167      	movs	r1, #103	; 0x67
 800101c:	4620      	mov	r0, r4
 800101e:	f023 0303 	bic.w	r3, r3, #3
 8001022:	f88d 6007 	strb.w	r6, [sp, #7]
 8001026:	f043 0302 	orr.w	r3, r3, #2
 800102a:	f88d 3006 	strb.w	r3, [sp, #6]
 800102e:	f7ff f9a7 	bl	8000380 <Camera_WriteReg>
 8001032:	f89d 3006 	ldrb.w	r3, [sp, #6]
 8001036:	f10d 0207 	add.w	r2, sp, #7
 800103a:	2112      	movs	r1, #18
 800103c:	4620      	mov	r0, r4
 800103e:	f88d 3007 	strb.w	r3, [sp, #7]
 8001042:	f7ff f99d 	bl	8000380 <Camera_WriteReg>
 8001046:	7c20      	ldrb	r0, [r4, #16]
 8001048:	f7ff fed4 	bl	8000df4 <ov7725_set_framesize.isra.0>
 800104c:	f10d 0106 	add.w	r1, sp, #6
 8001050:	200c      	movs	r0, #12
 8001052:	f7ff fec7 	bl	8000de4 <ov7725_RD_Reg.isra.0>
 8001056:	f89d 3006 	ldrb.w	r3, [sp, #6]
 800105a:	f10d 0207 	add.w	r2, sp, #7
 800105e:	210c      	movs	r1, #12
 8001060:	f023 0340 	bic.w	r3, r3, #64	; 0x40
 8001064:	4620      	mov	r0, r4
 8001066:	f043 0340 	orr.w	r3, r3, #64	; 0x40
 800106a:	f88d 3007 	strb.w	r3, [sp, #7]
 800106e:	f7ff f987 	bl	8000380 <Camera_WriteReg>
 8001072:	f10d 0106 	add.w	r1, sp, #6
 8001076:	200c      	movs	r0, #12
 8001078:	f7ff feb4 	bl	8000de4 <ov7725_RD_Reg.isra.0>
 800107c:	f89d 3006 	ldrb.w	r3, [sp, #6]
 8001080:	f10d 0207 	add.w	r2, sp, #7
 8001084:	210c      	movs	r1, #12
 8001086:	f063 037f 	orn	r3, r3, #127	; 0x7f
 800108a:	4620      	mov	r0, r4
 800108c:	f88d 3007 	strb.w	r3, [sp, #7]
 8001090:	f7ff f976 	bl	8000380 <Camera_WriteReg>
 8001094:	7c20      	ldrb	r0, [r4, #16]
 8001096:	f7ff fead 	bl	8000df4 <ov7725_set_framesize.isra.0>
 800109a:	4628      	mov	r0, r5
 800109c:	b003      	add	sp, #12
 800109e:	bdf0      	pop	{r4, r5, r6, r7, pc}
 80010a0:	f814 3c01 	ldrb.w	r3, [r4, #-1]
 80010a4:	f10d 0207 	add.w	r2, sp, #7
 80010a8:	4631      	mov	r1, r6
 80010aa:	4638      	mov	r0, r7
 80010ac:	f88d 3007 	strb.w	r3, [sp, #7]
 80010b0:	f7ff f966 	bl	8000380 <Camera_WriteReg>
 80010b4:	e79c      	b.n	8000ff0 <ov7725_init+0x20>
 80010b6:	bf00      	nop
 80010b8:	080086d1 	.word	0x080086d1
 80010bc:	240000f0 	.word	0x240000f0

080010c0 <lcd_gettick>:
 80010c0:	f002 b806 	b.w	80030d0 <HAL_GetTick>

080010c4 <lcd_recvdata>:
 80010c4:	b570      	push	{r4, r5, r6, lr}
 80010c6:	4e0e      	ldr	r6, [pc, #56]	; (8001100 <lcd_recvdata+0x3c>)
 80010c8:	4604      	mov	r4, r0
 80010ca:	460d      	mov	r5, r1
 80010cc:	2200      	movs	r2, #0
 80010ce:	4630      	mov	r0, r6
 80010d0:	f44f 6100 	mov.w	r1, #2048	; 0x800
 80010d4:	f003 fb82 	bl	80047dc <HAL_GPIO_WritePin>
 80010d8:	f44f 73fa 	mov.w	r3, #500	; 0x1f4
 80010dc:	b2aa      	uxth	r2, r5
 80010de:	4621      	mov	r1, r4
 80010e0:	4808      	ldr	r0, [pc, #32]	; (8001104 <lcd_recvdata+0x40>)
 80010e2:	f005 fd8b 	bl	8006bfc <HAL_SPI_Receive>
 80010e6:	4604      	mov	r4, r0
 80010e8:	2201      	movs	r2, #1
 80010ea:	4630      	mov	r0, r6
 80010ec:	f44f 6100 	mov.w	r1, #2048	; 0x800
 80010f0:	f003 fb74 	bl	80047dc <HAL_GPIO_WritePin>
 80010f4:	1e20      	subs	r0, r4, #0
 80010f6:	bf18      	it	ne
 80010f8:	2001      	movne	r0, #1
 80010fa:	4240      	negs	r0, r0
 80010fc:	bd70      	pop	{r4, r5, r6, pc}
 80010fe:	bf00      	nop
 8001100:	58021000 	.word	0x58021000
 8001104:	24006b90 	.word	0x24006b90

08001108 <lcd_senddata>:
 8001108:	b570      	push	{r4, r5, r6, lr}
 800110a:	4e0d      	ldr	r6, [pc, #52]	; (8001140 <lcd_senddata+0x38>)
 800110c:	4604      	mov	r4, r0
 800110e:	460d      	mov	r5, r1
 8001110:	2200      	movs	r2, #0
 8001112:	4630      	mov	r0, r6
 8001114:	f44f 6100 	mov.w	r1, #2048	; 0x800
 8001118:	f003 fb60 	bl	80047dc <HAL_GPIO_WritePin>
 800111c:	2364      	movs	r3, #100	; 0x64
 800111e:	b2aa      	uxth	r2, r5
 8001120:	4621      	mov	r1, r4
 8001122:	4808      	ldr	r0, [pc, #32]	; (8001144 <lcd_senddata+0x3c>)
 8001124:	f005 fc44 	bl	80069b0 <HAL_SPI_Transmit>
 8001128:	4604      	mov	r4, r0
 800112a:	2201      	movs	r2, #1
 800112c:	4630      	mov	r0, r6
 800112e:	f44f 6100 	mov.w	r1, #2048	; 0x800
 8001132:	f003 fb53 	bl	80047dc <HAL_GPIO_WritePin>
 8001136:	1e20      	subs	r0, r4, #0
 8001138:	bf18      	it	ne
 800113a:	2001      	movne	r0, #1
 800113c:	4240      	negs	r0, r0
 800113e:	bd70      	pop	{r4, r5, r6, pc}
 8001140:	58021000 	.word	0x58021000
 8001144:	24006b90 	.word	0x24006b90

08001148 <lcd_readreg>:
 8001148:	b5f7      	push	{r0, r1, r2, r4, r5, r6, r7, lr}
 800114a:	4d19      	ldr	r5, [pc, #100]	; (80011b0 <lcd_readreg+0x68>)
 800114c:	460e      	mov	r6, r1
 800114e:	4f19      	ldr	r7, [pc, #100]	; (80011b4 <lcd_readreg+0x6c>)
 8001150:	2200      	movs	r2, #0
 8001152:	f88d 0007 	strb.w	r0, [sp, #7]
 8001156:	f44f 6100 	mov.w	r1, #2048	; 0x800
 800115a:	4628      	mov	r0, r5
 800115c:	f003 fb3e 	bl	80047dc <HAL_GPIO_WritePin>
 8001160:	4628      	mov	r0, r5
 8001162:	2200      	movs	r2, #0
 8001164:	f44f 5100 	mov.w	r1, #8192	; 0x2000
 8001168:	f003 fb38 	bl	80047dc <HAL_GPIO_WritePin>
 800116c:	2364      	movs	r3, #100	; 0x64
 800116e:	f10d 0107 	add.w	r1, sp, #7
 8001172:	2201      	movs	r2, #1
 8001174:	4638      	mov	r0, r7
 8001176:	f005 fc1b 	bl	80069b0 <HAL_SPI_Transmit>
 800117a:	2201      	movs	r2, #1
 800117c:	4604      	mov	r4, r0
 800117e:	f44f 5100 	mov.w	r1, #8192	; 0x2000
 8001182:	4628      	mov	r0, r5
 8001184:	f003 fb2a 	bl	80047dc <HAL_GPIO_WritePin>
 8001188:	f44f 73fa 	mov.w	r3, #500	; 0x1f4
 800118c:	4631      	mov	r1, r6
 800118e:	2201      	movs	r2, #1
 8001190:	4638      	mov	r0, r7
 8001192:	f005 fd33 	bl	8006bfc <HAL_SPI_Receive>
 8001196:	4404      	add	r4, r0
 8001198:	2201      	movs	r2, #1
 800119a:	4628      	mov	r0, r5
 800119c:	f44f 6100 	mov.w	r1, #2048	; 0x800
 80011a0:	f003 fb1c 	bl	80047dc <HAL_GPIO_WritePin>
 80011a4:	1e20      	subs	r0, r4, #0
 80011a6:	bf18      	it	ne
 80011a8:	2001      	movne	r0, #1
 80011aa:	4240      	negs	r0, r0
 80011ac:	b003      	add	sp, #12
 80011ae:	bdf0      	pop	{r4, r5, r6, r7, pc}
 80011b0:	58021000 	.word	0x58021000
 80011b4:	24006b90 	.word	0x24006b90

080011b8 <lcd_writereg>:
 80011b8:	b573      	push	{r0, r1, r4, r5, r6, lr}
 80011ba:	4615      	mov	r5, r2
 80011bc:	f88d 0007 	strb.w	r0, [sp, #7]
 80011c0:	2200      	movs	r2, #0
 80011c2:	4817      	ldr	r0, [pc, #92]	; (8001220 <lcd_writereg+0x68>)
 80011c4:	460e      	mov	r6, r1
 80011c6:	f44f 6100 	mov.w	r1, #2048	; 0x800
 80011ca:	f003 fb07 	bl	80047dc <HAL_GPIO_WritePin>
 80011ce:	2200      	movs	r2, #0
 80011d0:	f44f 5100 	mov.w	r1, #8192	; 0x2000
 80011d4:	4812      	ldr	r0, [pc, #72]	; (8001220 <lcd_writereg+0x68>)
 80011d6:	f003 fb01 	bl	80047dc <HAL_GPIO_WritePin>
 80011da:	2201      	movs	r2, #1
 80011dc:	f10d 0107 	add.w	r1, sp, #7
 80011e0:	2364      	movs	r3, #100	; 0x64
 80011e2:	4810      	ldr	r0, [pc, #64]	; (8001224 <lcd_writereg+0x6c>)
 80011e4:	f005 fbe4 	bl	80069b0 <HAL_SPI_Transmit>
 80011e8:	2201      	movs	r2, #1
 80011ea:	4604      	mov	r4, r0
 80011ec:	f44f 5100 	mov.w	r1, #8192	; 0x2000
 80011f0:	480b      	ldr	r0, [pc, #44]	; (8001220 <lcd_writereg+0x68>)
 80011f2:	f003 faf3 	bl	80047dc <HAL_GPIO_WritePin>
 80011f6:	b13d      	cbz	r5, 8001208 <lcd_writereg+0x50>
 80011f8:	f44f 73fa 	mov.w	r3, #500	; 0x1f4
 80011fc:	b2aa      	uxth	r2, r5
 80011fe:	4631      	mov	r1, r6
 8001200:	4808      	ldr	r0, [pc, #32]	; (8001224 <lcd_writereg+0x6c>)
 8001202:	f005 fbd5 	bl	80069b0 <HAL_SPI_Transmit>
 8001206:	4404      	add	r4, r0
 8001208:	2201      	movs	r2, #1
 800120a:	f44f 6100 	mov.w	r1, #2048	; 0x800
 800120e:	4804      	ldr	r0, [pc, #16]	; (8001220 <lcd_writereg+0x68>)
 8001210:	f003 fae4 	bl	80047dc <HAL_GPIO_WritePin>
 8001214:	1e20      	subs	r0, r4, #0
 8001216:	bf18      	it	ne
 8001218:	2001      	movne	r0, #1
 800121a:	4240      	negs	r0, r0
 800121c:	b002      	add	sp, #8
 800121e:	bd70      	pop	{r4, r5, r6, pc}
 8001220:	58021000 	.word	0x58021000
 8001224:	24006b90 	.word	0x24006b90

08001228 <lcd_init>:
 8001228:	2104      	movs	r1, #4
 800122a:	4803      	ldr	r0, [pc, #12]	; (8001238 <lcd_init+0x10>)
 800122c:	b508      	push	{r3, lr}
 800122e:	f006 f96d 	bl	800750c <HAL_TIMEx_PWMN_Start>
 8001232:	2000      	movs	r0, #0
 8001234:	bd08      	pop	{r3, pc}
 8001236:	bf00      	nop
 8001238:	24006c1c 	.word	0x24006c1c

0800123c <LCD_SetBrightness>:
 800123c:	4b04      	ldr	r3, [pc, #16]	; (8001250 <LCD_SetBrightness+0x14>)
 800123e:	6018      	str	r0, [r3, #0]
 8001240:	4b04      	ldr	r3, [pc, #16]	; (8001254 <LCD_SetBrightness+0x18>)
 8001242:	781b      	ldrb	r3, [r3, #0]
 8001244:	b913      	cbnz	r3, 800124c <LCD_SetBrightness+0x10>
 8001246:	4b04      	ldr	r3, [pc, #16]	; (8001258 <LCD_SetBrightness+0x1c>)
 8001248:	681b      	ldr	r3, [r3, #0]
 800124a:	6398      	str	r0, [r3, #56]	; 0x38
 800124c:	4770      	bx	lr
 800124e:	bf00      	nop
 8001250:	24000110 	.word	0x24000110
 8001254:	2400010c 	.word	0x2400010c
 8001258:	24006c1c 	.word	0x24006c1c

0800125c <LCD_GetBrightness>:
 800125c:	4b04      	ldr	r3, [pc, #16]	; (8001270 <LCD_GetBrightness+0x14>)
 800125e:	781b      	ldrb	r3, [r3, #0]
 8001260:	b113      	cbz	r3, 8001268 <LCD_GetBrightness+0xc>
 8001262:	4b04      	ldr	r3, [pc, #16]	; (8001274 <LCD_GetBrightness+0x18>)
 8001264:	6818      	ldr	r0, [r3, #0]
 8001266:	4770      	bx	lr
 8001268:	4b03      	ldr	r3, [pc, #12]	; (8001278 <LCD_GetBrightness+0x1c>)
 800126a:	681b      	ldr	r3, [r3, #0]
 800126c:	6b98      	ldr	r0, [r3, #56]	; 0x38
 800126e:	4770      	bx	lr
 8001270:	2400010c 	.word	0x2400010c
 8001274:	24000110 	.word	0x24000110
 8001278:	24006c1c 	.word	0x24006c1c

0800127c <LCD_SoftPWMCtrlRun>:
 800127c:	4a09      	ldr	r2, [pc, #36]	; (80012a4 <LCD_SoftPWMCtrlRun+0x28>)
 800127e:	f44f 6180 	mov.w	r1, #1024	; 0x400
 8001282:	4809      	ldr	r0, [pc, #36]	; (80012a8 <LCD_SoftPWMCtrlRun+0x2c>)
 8001284:	6813      	ldr	r3, [r2, #0]
 8001286:	f5b3 7f7a 	cmp.w	r3, #1000	; 0x3e8
 800128a:	bf94      	ite	ls
 800128c:	330a      	addls	r3, #10
 800128e:	2300      	movhi	r3, #0
 8001290:	6013      	str	r3, [r2, #0]
 8001292:	4a06      	ldr	r2, [pc, #24]	; (80012ac <LCD_SoftPWMCtrlRun+0x30>)
 8001294:	6812      	ldr	r2, [r2, #0]
 8001296:	429a      	cmp	r2, r3
 8001298:	bf94      	ite	ls
 800129a:	2201      	movls	r2, #1
 800129c:	2200      	movhi	r2, #0
 800129e:	f003 ba9d 	b.w	80047dc <HAL_GPIO_WritePin>
 80012a2:	bf00      	nop
 80012a4:	24000150 	.word	0x24000150
 80012a8:	58021000 	.word	0x58021000
 80012ac:	24000110 	.word	0x24000110

080012b0 <HAL_TIM_PeriodElapsedCallback>:
 80012b0:	6802      	ldr	r2, [r0, #0]
 80012b2:	4b03      	ldr	r3, [pc, #12]	; (80012c0 <HAL_TIM_PeriodElapsedCallback+0x10>)
 80012b4:	429a      	cmp	r2, r3
 80012b6:	d101      	bne.n	80012bc <HAL_TIM_PeriodElapsedCallback+0xc>
 80012b8:	f7ff bfe0 	b.w	800127c <LCD_SoftPWMCtrlRun>
 80012bc:	4770      	bx	lr
 80012be:	bf00      	nop
 80012c0:	40014400 	.word	0x40014400

080012c4 <LCD_Light>:
 80012c4:	4602      	mov	r2, r0
 80012c6:	b538      	push	{r3, r4, r5, lr}
 80012c8:	ed2d 8b02 	vpush	{d8}
 80012cc:	f7ff ffc6 	bl	800125c <LCD_GetBrightness>
 80012d0:	4290      	cmp	r0, r2
 80012d2:	460c      	mov	r4, r1
 80012d4:	d02d      	beq.n	8001332 <LCD_Light+0x6e>
 80012d6:	b361      	cbz	r1, 8001332 <LCD_Light+0x6e>
 80012d8:	ee07 0a90 	vmov	s15, r0
 80012dc:	ee07 1a10 	vmov	s14, r1
 80012e0:	eeb8 8a67 	vcvt.f32.u32	s16, s15
 80012e4:	ee07 2a90 	vmov	s15, r2
 80012e8:	eef8 6a47 	vcvt.f32.u32	s13, s14
 80012ec:	ed9f 7a12 	vldr	s14, [pc, #72]	; 8001338 <LCD_Light+0x74>
 80012f0:	eef8 7a67 	vcvt.f32.u32	s15, s15
 80012f4:	ee37 7a66 	vsub.f32	s14, s14, s13
 80012f8:	ee78 7a67 	vsub.f32	s15, s16, s15
 80012fc:	eec7 8a87 	vdiv.f32	s17, s15, s14
 8001300:	f001 fee6 	bl	80030d0 <HAL_GetTick>
 8001304:	4605      	mov	r5, r0
 8001306:	2001      	movs	r0, #1
 8001308:	f001 fee8 	bl	80030dc <HAL_Delay>
 800130c:	f001 fee0 	bl	80030d0 <HAL_GetTick>
 8001310:	1b42      	subs	r2, r0, r5
 8001312:	ee07 2a90 	vmov	s15, r2
 8001316:	eeb8 7a67 	vcvt.f32.u32	s14, s15
 800131a:	eef0 7a48 	vmov.f32	s15, s16
 800131e:	eee8 7a87 	vfma.f32	s15, s17, s14
 8001322:	eefc 7ae7 	vcvt.u32.f32	s15, s15
 8001326:	ee17 0a90 	vmov	r0, s15
 800132a:	f7ff ff87 	bl	800123c <LCD_SetBrightness>
 800132e:	4294      	cmp	r4, r2
 8001330:	d8e9      	bhi.n	8001306 <LCD_Light+0x42>
 8001332:	ecbd 8b02 	vpop	{d8}
 8001336:	bd38      	pop	{r3, r4, r5, pc}
 8001338:	00000000 	.word	0x00000000

0800133c <LCD_ShowChar>:
 800133c:	e92d 4ff0 	stmdb	sp!, {r4, r5, r6, r7, r8, r9, sl, fp, lr}
 8001340:	b091      	sub	sp, #68	; 0x44
 8001342:	461c      	mov	r4, r3
 8001344:	f8df b1fc 	ldr.w	fp, [pc, #508]	; 8001544 <LCD_ShowChar+0x208>
 8001348:	4692      	mov	sl, r2
 800134a:	af02      	add	r7, sp, #8
 800134c:	2c0c      	cmp	r4, #12
 800134e:	46e9      	mov	r9, sp
 8001350:	f897 3060 	ldrb.w	r3, [r7, #96]	; 0x60
 8001354:	4680      	mov	r8, r0
 8001356:	62f9      	str	r1, [r7, #44]	; 0x2c
 8001358:	f107 0134 	add.w	r1, r7, #52	; 0x34
 800135c:	627b      	str	r3, [r7, #36]	; 0x24
 800135e:	f1aa 0a20 	sub.w	sl, sl, #32
 8001362:	f8bb 3000 	ldrh.w	r3, [fp]
 8001366:	f04f 0500 	mov.w	r5, #0
 800136a:	4872      	ldr	r0, [pc, #456]	; (8001534 <LCD_ShowChar+0x1f8>)
 800136c:	fa5f fa8a 	uxtb.w	sl, sl
 8001370:	62bb      	str	r3, [r7, #40]	; 0x28
 8001372:	bf0c      	ite	eq
 8001374:	2306      	moveq	r3, #6
 8001376:	2308      	movne	r3, #8
 8001378:	fb04 f203 	mul.w	r2, r4, r3
 800137c:	623b      	str	r3, [r7, #32]
 800137e:	0052      	lsls	r2, r2, #1
 8001380:	3207      	adds	r2, #7
 8001382:	08d2      	lsrs	r2, r2, #3
 8001384:	eba9 03c2 	sub.w	r3, r9, r2, lsl #3
 8001388:	469d      	mov	sp, r3
 800138a:	ab02      	add	r3, sp, #8
 800138c:	61fb      	str	r3, [r7, #28]
 800138e:	f000 f9fb 	bl	8001788 <ST7735_GetXSize>
 8001392:	f107 0130 	add.w	r1, r7, #48	; 0x30
 8001396:	4867      	ldr	r0, [pc, #412]	; (8001534 <LCD_ShowChar+0x1f8>)
 8001398:	f000 f9fe 	bl	8001798 <ST7735_GetYSize>
 800139c:	6a7b      	ldr	r3, [r7, #36]	; 0x24
 800139e:	2b00      	cmp	r3, #0
 80013a0:	d050      	beq.n	8001444 <LCD_ShowChar+0x108>
 80013a2:	f8bb 3000 	ldrh.w	r3, [fp]
 80013a6:	b2a1      	uxth	r1, r4
 80013a8:	462a      	mov	r2, r5
 80013aa:	f8c7 8024 	str.w	r8, [r7, #36]	; 0x24
 80013ae:	ba5b      	rev16	r3, r3
 80013b0:	60b9      	str	r1, [r7, #8]
 80013b2:	b29b      	uxth	r3, r3
 80013b4:	617b      	str	r3, [r7, #20]
 80013b6:	6b3b      	ldr	r3, [r7, #48]	; 0x30
 80013b8:	613b      	str	r3, [r7, #16]
 80013ba:	6b7b      	ldr	r3, [r7, #52]	; 0x34
 80013bc:	60fb      	str	r3, [r7, #12]
 80013be:	4b5e      	ldr	r3, [pc, #376]	; (8001538 <LCD_ShowChar+0x1fc>)
 80013c0:	eb03 130a 	add.w	r3, r3, sl, lsl #4
 80013c4:	eb0a 0a4a 	add.w	sl, sl, sl, lsl #1
 80013c8:	61bb      	str	r3, [r7, #24]
 80013ca:	4b5c      	ldr	r3, [pc, #368]	; (800153c <LCD_ShowChar+0x200>)
 80013cc:	eb03 0b8a 	add.w	fp, r3, sl, lsl #2
 80013d0:	6afb      	ldr	r3, [r7, #44]	; 0x2c
 80013d2:	fa5f fe85 	uxtb.w	lr, r5
 80013d6:	45a6      	cmp	lr, r4
 80013d8:	d259      	bcs.n	800148e <LCD_ShowChar+0x152>
 80013da:	2c0c      	cmp	r4, #12
 80013dc:	f103 0c08 	add.w	ip, r3, #8
 80013e0:	ea4f 0e5e 	mov.w	lr, lr, lsr #1
 80013e4:	bf18      	it	ne
 80013e6:	69b9      	ldrne	r1, [r7, #24]
 80013e8:	fa1f fc8c 	uxth.w	ip, ip
 80013ec:	bf0c      	ite	eq
 80013ee:	f81b 1005 	ldrbeq.w	r1, [fp, r5]
 80013f2:	5d49      	ldrbne	r1, [r1, r5]
 80013f4:	0608      	lsls	r0, r1, #24
 80013f6:	d506      	bpl.n	8001406 <LCD_ShowChar+0xca>
 80013f8:	6a3e      	ldr	r6, [r7, #32]
 80013fa:	6978      	ldr	r0, [r7, #20]
 80013fc:	fb02 ea06 	mla	sl, r2, r6, lr
 8001400:	69fe      	ldr	r6, [r7, #28]
 8001402:	f826 001a 	strh.w	r0, [r6, sl, lsl #1]
 8001406:	3201      	adds	r2, #1
 8001408:	68b8      	ldr	r0, [r7, #8]
 800140a:	3301      	adds	r3, #1
 800140c:	0049      	lsls	r1, r1, #1
 800140e:	b292      	uxth	r2, r2
 8001410:	b29b      	uxth	r3, r3
 8001412:	4290      	cmp	r0, r2
 8001414:	bf98      	it	ls
 8001416:	2200      	movls	r2, #0
 8001418:	6938      	ldr	r0, [r7, #16]
 800141a:	b2c9      	uxtb	r1, r1
 800141c:	4283      	cmp	r3, r0
 800141e:	d242      	bcs.n	80014a6 <LCD_ShowChar+0x16a>
 8001420:	6af8      	ldr	r0, [r7, #44]	; 0x2c
 8001422:	eba3 0a00 	sub.w	sl, r3, r0
 8001426:	4554      	cmp	r4, sl
 8001428:	d17f      	bne.n	800152a <LCD_ShowChar+0x1ee>
 800142a:	6a78      	ldr	r0, [r7, #36]	; 0x24
 800142c:	3001      	adds	r0, #1
 800142e:	b283      	uxth	r3, r0
 8001430:	627b      	str	r3, [r7, #36]	; 0x24
 8001432:	6a79      	ldr	r1, [r7, #36]	; 0x24
 8001434:	68fb      	ldr	r3, [r7, #12]
 8001436:	4299      	cmp	r1, r3
 8001438:	d235      	bcs.n	80014a6 <LCD_ShowChar+0x16a>
 800143a:	f8d7 c02c 	ldr.w	ip, [r7, #44]	; 0x2c
 800143e:	3501      	adds	r5, #1
 8001440:	4663      	mov	r3, ip
 8001442:	e7c6      	b.n	80013d2 <LCD_ShowChar+0x96>
 8001444:	6abb      	ldr	r3, [r7, #40]	; 0x28
 8001446:	b2a6      	uxth	r6, r4
 8001448:	46c4      	mov	ip, r8
 800144a:	4628      	mov	r0, r5
 800144c:	ba5b      	rev16	r3, r3
 800144e:	4629      	mov	r1, r5
 8001450:	462a      	mov	r2, r5
 8001452:	607e      	str	r6, [r7, #4]
 8001454:	b29b      	uxth	r3, r3
 8001456:	627b      	str	r3, [r7, #36]	; 0x24
 8001458:	4b39      	ldr	r3, [pc, #228]	; (8001540 <LCD_ShowChar+0x204>)
 800145a:	881b      	ldrh	r3, [r3, #0]
 800145c:	ba5b      	rev16	r3, r3
 800145e:	b29b      	uxth	r3, r3
 8001460:	61bb      	str	r3, [r7, #24]
 8001462:	6b3b      	ldr	r3, [r7, #48]	; 0x30
 8001464:	617b      	str	r3, [r7, #20]
 8001466:	6b7b      	ldr	r3, [r7, #52]	; 0x34
 8001468:	613b      	str	r3, [r7, #16]
 800146a:	4b33      	ldr	r3, [pc, #204]	; (8001538 <LCD_ShowChar+0x1fc>)
 800146c:	eb03 130a 	add.w	r3, r3, sl, lsl #4
 8001470:	eb0a 0a4a 	add.w	sl, sl, sl, lsl #1
 8001474:	60bb      	str	r3, [r7, #8]
 8001476:	4b31      	ldr	r3, [pc, #196]	; (800153c <LCD_ShowChar+0x200>)
 8001478:	eb03 038a 	add.w	r3, r3, sl, lsl #2
 800147c:	60fb      	str	r3, [r7, #12]
 800147e:	6afb      	ldr	r3, [r7, #44]	; 0x2c
 8001480:	fa5f fa80 	uxtb.w	sl, r0
 8001484:	4554      	cmp	r4, sl
 8001486:	d816      	bhi.n	80014b6 <LCD_ShowChar+0x17a>
 8001488:	b109      	cbz	r1, 800148e <LCD_ShowChar+0x152>
 800148a:	4b2e      	ldr	r3, [pc, #184]	; (8001544 <LCD_ShowChar+0x208>)
 800148c:	801d      	strh	r5, [r3, #0]
 800148e:	2c0c      	cmp	r4, #12
 8001490:	4641      	mov	r1, r8
 8001492:	4828      	ldr	r0, [pc, #160]	; (8001534 <LCD_ShowChar+0x1f8>)
 8001494:	bf0c      	ite	eq
 8001496:	2306      	moveq	r3, #6
 8001498:	2308      	movne	r3, #8
 800149a:	e9cd 3400 	strd	r3, r4, [sp]
 800149e:	69fb      	ldr	r3, [r7, #28]
 80014a0:	6afa      	ldr	r2, [r7, #44]	; 0x2c
 80014a2:	f000 fc23 	bl	8001cec <ST7735_FillRGBRect>
 80014a6:	6aba      	ldr	r2, [r7, #40]	; 0x28
 80014a8:	373c      	adds	r7, #60	; 0x3c
 80014aa:	4b26      	ldr	r3, [pc, #152]	; (8001544 <LCD_ShowChar+0x208>)
 80014ac:	801a      	strh	r2, [r3, #0]
 80014ae:	46cd      	mov	sp, r9
 80014b0:	46bd      	mov	sp, r7
 80014b2:	e8bd 8ff0 	ldmia.w	sp!, {r4, r5, r6, r7, r8, r9, sl, fp, pc}
 80014b6:	2c0c      	cmp	r4, #12
 80014b8:	f103 0e08 	add.w	lr, r3, #8
 80014bc:	ea4f 0a5a 	mov.w	sl, sl, lsr #1
 80014c0:	bf08      	it	eq
 80014c2:	68f9      	ldreq	r1, [r7, #12]
 80014c4:	fa1f fe8e 	uxth.w	lr, lr
 80014c8:	bf18      	it	ne
 80014ca:	68b9      	ldrne	r1, [r7, #8]
 80014cc:	5c09      	ldrb	r1, [r1, r0]
 80014ce:	f011 0f80 	tst.w	r1, #128	; 0x80
 80014d2:	69be      	ldr	r6, [r7, #24]
 80014d4:	6a7d      	ldr	r5, [r7, #36]	; 0x24
 80014d6:	f103 0301 	add.w	r3, r3, #1
 80014da:	bf08      	it	eq
 80014dc:	4635      	moveq	r5, r6
 80014de:	6a3e      	ldr	r6, [r7, #32]
 80014e0:	b29b      	uxth	r3, r3
 80014e2:	fb02 ab06 	mla	fp, r2, r6, sl
 80014e6:	69fe      	ldr	r6, [r7, #28]
 80014e8:	3201      	adds	r2, #1
 80014ea:	0049      	lsls	r1, r1, #1
 80014ec:	f826 501b 	strh.w	r5, [r6, fp, lsl #1]
 80014f0:	b292      	uxth	r2, r2
 80014f2:	687e      	ldr	r6, [r7, #4]
 80014f4:	b2c9      	uxtb	r1, r1
 80014f6:	4296      	cmp	r6, r2
 80014f8:	bf98      	it	ls
 80014fa:	2200      	movls	r2, #0
 80014fc:	697e      	ldr	r6, [r7, #20]
 80014fe:	42b3      	cmp	r3, r6
 8001500:	d2d1      	bcs.n	80014a6 <LCD_ShowChar+0x16a>
 8001502:	6afe      	ldr	r6, [r7, #44]	; 0x2c
 8001504:	eba3 0b06 	sub.w	fp, r3, r6
 8001508:	455c      	cmp	r4, fp
 800150a:	d10b      	bne.n	8001524 <LCD_ShowChar+0x1e8>
 800150c:	f10c 0c01 	add.w	ip, ip, #1
 8001510:	693b      	ldr	r3, [r7, #16]
 8001512:	fa1f fc8c 	uxth.w	ip, ip
 8001516:	459c      	cmp	ip, r3
 8001518:	d2c5      	bcs.n	80014a6 <LCD_ShowChar+0x16a>
 800151a:	46b6      	mov	lr, r6
 800151c:	3001      	adds	r0, #1
 800151e:	4673      	mov	r3, lr
 8001520:	2101      	movs	r1, #1
 8001522:	e7ad      	b.n	8001480 <LCD_ShowChar+0x144>
 8001524:	459e      	cmp	lr, r3
 8001526:	d1d2      	bne.n	80014ce <LCD_ShowChar+0x192>
 8001528:	e7f8      	b.n	800151c <LCD_ShowChar+0x1e0>
 800152a:	459c      	cmp	ip, r3
 800152c:	f47f af62 	bne.w	80013f4 <LCD_ShowChar+0xb8>
 8001530:	e785      	b.n	800143e <LCD_ShowChar+0x102>
 8001532:	bf00      	nop
 8001534:	24000118 	.word	0x24000118
 8001538:	08008c02 	.word	0x08008c02
 800153c:	0800878e 	.word	0x0800878e
 8001540:	2400010a 	.word	0x2400010a
 8001544:	24000004 	.word	0x24000004

08001548 <LCD_ShowString>:
 8001548:	440b      	add	r3, r1
 800154a:	e92d 4ff7 	stmdb	sp!, {r0, r1, r2, r4, r5, r6, r7, r8, r9, sl, fp, lr}
 800154e:	4402      	add	r2, r0
 8001550:	f89d b030 	ldrb.w	fp, [sp, #48]	; 0x30
 8001554:	b29f      	uxth	r7, r3
 8001556:	9b0d      	ldr	r3, [sp, #52]	; 0x34
 8001558:	460d      	mov	r5, r1
 800155a:	b296      	uxth	r6, r2
 800155c:	ea4f 095b 	mov.w	r9, fp, lsr #1
 8001560:	f103 38ff 	add.w	r8, r3, #4294967295
 8001564:	4604      	mov	r4, r0
 8001566:	fa5f fa80 	uxtb.w	sl, r0
 800156a:	f818 2f01 	ldrb.w	r2, [r8, #1]!
 800156e:	f1a2 0320 	sub.w	r3, r2, #32
 8001572:	2b5e      	cmp	r3, #94	; 0x5e
 8001574:	d902      	bls.n	800157c <LCD_ShowString+0x34>
 8001576:	b003      	add	sp, #12
 8001578:	e8bd 8ff0 	ldmia.w	sp!, {r4, r5, r6, r7, r8, r9, sl, fp, pc}
 800157c:	42b4      	cmp	r4, r6
 800157e:	bf22      	ittt	cs
 8001580:	445d      	addcs	r5, fp
 8001582:	4654      	movcs	r4, sl
 8001584:	b2ad      	uxthcs	r5, r5
 8001586:	42bd      	cmp	r5, r7
 8001588:	d2f5      	bcs.n	8001576 <LCD_ShowString+0x2e>
 800158a:	2300      	movs	r3, #0
 800158c:	4620      	mov	r0, r4
 800158e:	444c      	add	r4, r9
 8001590:	4629      	mov	r1, r5
 8001592:	9300      	str	r3, [sp, #0]
 8001594:	465b      	mov	r3, fp
 8001596:	b2a4      	uxth	r4, r4
 8001598:	f7ff fed0 	bl	800133c <LCD_ShowChar>
 800159c:	e7e5      	b.n	800156a <LCD_ShowString+0x22>
	...

080015a0 <LCD_Test>:
 80015a0:	e92d 43f0 	stmdb	sp!, {r4, r5, r6, r7, r8, r9, lr}
 80015a4:	2303      	movs	r3, #3
 80015a6:	4c64      	ldr	r4, [pc, #400]	; (8001738 <LCD_Test+0x198>)
 80015a8:	4e64      	ldr	r6, [pc, #400]	; (800173c <LCD_Test+0x19c>)
 80015aa:	b08b      	sub	sp, #44	; 0x2c
 80015ac:	60a3      	str	r3, [r4, #8]
 80015ae:	f44f 7380 	mov.w	r3, #256	; 0x100
 80015b2:	4963      	ldr	r1, [pc, #396]	; (8001740 <LCD_Test+0x1a0>)
 80015b4:	4863      	ldr	r0, [pc, #396]	; (8001744 <LCD_Test+0x1a4>)
 80015b6:	81a3      	strh	r3, [r4, #12]
 80015b8:	f000 ff94 	bl	80024e4 <ST7735_RegisterBusIO>
 80015bc:	4622      	mov	r2, r4
 80015be:	6833      	ldr	r3, [r6, #0]
 80015c0:	2105      	movs	r1, #5
 80015c2:	4860      	ldr	r0, [pc, #384]	; (8001744 <LCD_Test+0x1a4>)
 80015c4:	4798      	blx	r3
 80015c6:	68b3      	ldr	r3, [r6, #8]
 80015c8:	495f      	ldr	r1, [pc, #380]	; (8001748 <LCD_Test+0x1a8>)
 80015ca:	485e      	ldr	r0, [pc, #376]	; (8001744 <LCD_Test+0x1a4>)
 80015cc:	4798      	blx	r3
 80015ce:	2000      	movs	r0, #0
 80015d0:	4f5e      	ldr	r7, [pc, #376]	; (800174c <LCD_Test+0x1ac>)
 80015d2:	f7ff fe33 	bl	800123c <LCD_SetBrightness>
 80015d6:	4602      	mov	r2, r0
 80015d8:	4601      	mov	r1, r0
 80015da:	6ab5      	ldr	r5, [r6, #40]	; 0x28
 80015dc:	4b5c      	ldr	r3, [pc, #368]	; (8001750 <LCD_Test+0x1b0>)
 80015de:	4859      	ldr	r0, [pc, #356]	; (8001744 <LCD_Test+0x1a4>)
 80015e0:	47a8      	blx	r5
 80015e2:	f8df 8174 	ldr.w	r8, [pc, #372]	; 8001758 <LCD_Test+0x1b8>
 80015e6:	f001 fd73 	bl	80030d0 <HAL_GetTick>
 80015ea:	4605      	mov	r5, r0
 80015ec:	1a3f      	subs	r7, r7, r0
 80015ee:	f44f 5100 	mov.w	r1, #8192	; 0x2000
 80015f2:	4640      	mov	r0, r8
 80015f4:	f003 f8ec 	bl	80047d0 <HAL_GPIO_ReadPin>
 80015f8:	2801      	cmp	r0, #1
 80015fa:	d04f      	beq.n	800169c <LCD_Test+0xfc>
 80015fc:	200a      	movs	r0, #10
 80015fe:	f001 fd6d 	bl	80030dc <HAL_Delay>
 8001602:	f001 fd65 	bl	80030d0 <HAL_GetTick>
 8001606:	1b40      	subs	r0, r0, r5
 8001608:	f5b0 7f7a 	cmp.w	r0, #1000	; 0x3e8
 800160c:	d80b      	bhi.n	8001626 <LCD_Test+0x86>
 800160e:	f001 fd5f 	bl	80030d0 <HAL_GetTick>
 8001612:	2364      	movs	r3, #100	; 0x64
 8001614:	1b40      	subs	r0, r0, r5
 8001616:	4358      	muls	r0, r3
 8001618:	f44f 737a 	mov.w	r3, #1000	; 0x3e8
 800161c:	fbb0 f0f3 	udiv	r0, r0, r3
 8001620:	f7ff fe0c 	bl	800123c <LCD_SetBrightness>
 8001624:	e7e3      	b.n	80015ee <LCD_Test+0x4e>
 8001626:	f001 fd53 	bl	80030d0 <HAL_GetTick>
 800162a:	f640 39b8 	movw	r9, #3000	; 0xbb8
 800162e:	1b40      	subs	r0, r0, r5
 8001630:	4548      	cmp	r0, r9
 8001632:	d82e      	bhi.n	8001692 <LCD_Test+0xf2>
 8001634:	f001 fd4c 	bl	80030d0 <HAL_GetTick>
 8001638:	f10d 0914 	add.w	r9, sp, #20
 800163c:	4438      	add	r0, r7
 800163e:	220a      	movs	r2, #10
 8001640:	4944      	ldr	r1, [pc, #272]	; (8001754 <LCD_Test+0x1b4>)
 8001642:	fbb0 f2f2 	udiv	r2, r0, r2
 8001646:	4648      	mov	r0, r9
 8001648:	f005 fff4 	bl	8007634 <siprintf>
 800164c:	8822      	ldrh	r2, [r4, #0]
 800164e:	2310      	movs	r3, #16
 8001650:	2101      	movs	r1, #1
 8001652:	f1a2 001e 	sub.w	r0, r2, #30
 8001656:	f8cd 9004 	str.w	r9, [sp, #4]
 800165a:	9300      	str	r3, [sp, #0]
 800165c:	b280      	uxth	r0, r0
 800165e:	f7ff ff73 	bl	8001548 <LCD_ShowString>
 8001662:	6862      	ldr	r2, [r4, #4]
 8001664:	f8d6 9038 	ldr.w	r9, [r6, #56]	; 0x38
 8001668:	3a03      	subs	r2, #3
 800166a:	9203      	str	r2, [sp, #12]
 800166c:	f001 fd30 	bl	80030d0 <HAL_GetTick>
 8001670:	6823      	ldr	r3, [r4, #0]
 8001672:	4438      	add	r0, r7
 8001674:	f64f 72ff 	movw	r2, #65535	; 0xffff
 8001678:	2100      	movs	r1, #0
 800167a:	4358      	muls	r0, r3
 800167c:	2303      	movs	r3, #3
 800167e:	e9cd 3200 	strd	r3, r2, [sp]
 8001682:	f44f 63fa 	mov.w	r3, #2000	; 0x7d0
 8001686:	9a03      	ldr	r2, [sp, #12]
 8001688:	fbb0 f3f3 	udiv	r3, r0, r3
 800168c:	482d      	ldr	r0, [pc, #180]	; (8001744 <LCD_Test+0x1a4>)
 800168e:	47c8      	blx	r9
 8001690:	e7ad      	b.n	80015ee <LCD_Test+0x4e>
 8001692:	f001 fd1d 	bl	80030d0 <HAL_GetTick>
 8001696:	1b40      	subs	r0, r0, r5
 8001698:	4548      	cmp	r0, r9
 800169a:	d9a8      	bls.n	80015ee <LCD_Test+0x4e>
 800169c:	4d2e      	ldr	r5, [pc, #184]	; (8001758 <LCD_Test+0x1b8>)
 800169e:	f44f 5100 	mov.w	r1, #8192	; 0x2000
 80016a2:	4628      	mov	r0, r5
 80016a4:	f003 f894 	bl	80047d0 <HAL_GPIO_ReadPin>
 80016a8:	2801      	cmp	r0, #1
 80016aa:	d041      	beq.n	8001730 <LCD_Test+0x190>
 80016ac:	f44f 7196 	mov.w	r1, #300	; 0x12c
 80016b0:	2000      	movs	r0, #0
 80016b2:	f7ff fe07 	bl	80012c4 <LCD_Light>
 80016b6:	2200      	movs	r2, #0
 80016b8:	6863      	ldr	r3, [r4, #4]
 80016ba:	9201      	str	r2, [sp, #4]
 80016bc:	4611      	mov	r1, r2
 80016be:	9300      	str	r3, [sp, #0]
 80016c0:	6bb5      	ldr	r5, [r6, #56]	; 0x38
 80016c2:	ae05      	add	r6, sp, #20
 80016c4:	6823      	ldr	r3, [r4, #0]
 80016c6:	481f      	ldr	r0, [pc, #124]	; (8001744 <LCD_Test+0x1a4>)
 80016c8:	47a8      	blx	r5
 80016ca:	4924      	ldr	r1, [pc, #144]	; (800175c <LCD_Test+0x1bc>)
 80016cc:	4630      	mov	r0, r6
 80016ce:	2510      	movs	r5, #16
 80016d0:	f006 f804 	bl	80076dc <strcpy>
 80016d4:	2104      	movs	r1, #4
 80016d6:	462b      	mov	r3, r5
 80016d8:	8822      	ldrh	r2, [r4, #0]
 80016da:	4608      	mov	r0, r1
 80016dc:	9601      	str	r6, [sp, #4]
 80016de:	9500      	str	r5, [sp, #0]
 80016e0:	f7ff ff32 	bl	8001548 <LCD_ShowString>
 80016e4:	f001 fd12 	bl	800310c <HAL_GetDEVID>
 80016e8:	491d      	ldr	r1, [pc, #116]	; (8001760 <LCD_Test+0x1c0>)
 80016ea:	4602      	mov	r2, r0
 80016ec:	4630      	mov	r0, r6
 80016ee:	f005 ffa1 	bl	8007634 <siprintf>
 80016f2:	462b      	mov	r3, r5
 80016f4:	8822      	ldrh	r2, [r4, #0]
 80016f6:	2116      	movs	r1, #22
 80016f8:	2004      	movs	r0, #4
 80016fa:	e9cd 5600 	strd	r5, r6, [sp]
 80016fe:	f7ff ff23 	bl	8001548 <LCD_ShowString>
 8001702:	4b11      	ldr	r3, [pc, #68]	; (8001748 <LCD_Test+0x1a8>)
 8001704:	4917      	ldr	r1, [pc, #92]	; (8001764 <LCD_Test+0x1c4>)
 8001706:	4630      	mov	r0, r6
 8001708:	681a      	ldr	r2, [r3, #0]
 800170a:	f005 ff93 	bl	8007634 <siprintf>
 800170e:	462b      	mov	r3, r5
 8001710:	8822      	ldrh	r2, [r4, #0]
 8001712:	2128      	movs	r1, #40	; 0x28
 8001714:	2004      	movs	r0, #4
 8001716:	e9cd 5600 	strd	r5, r6, [sp]
 800171a:	f7ff ff15 	bl	8001548 <LCD_ShowString>
 800171e:	f44f 7196 	mov.w	r1, #300	; 0x12c
 8001722:	f44f 7016 	mov.w	r0, #600	; 0x258
 8001726:	f7ff fdcd 	bl	80012c4 <LCD_Light>
 800172a:	b00b      	add	sp, #44	; 0x2c
 800172c:	e8bd 83f0 	ldmia.w	sp!, {r4, r5, r6, r7, r8, r9, pc}
 8001730:	200a      	movs	r0, #10
 8001732:	f001 fcd3 	bl	80030dc <HAL_Delay>
 8001736:	e7b2      	b.n	800169e <LCD_Test+0xfe>
 8001738:	24000154 	.word	0x24000154
 800173c:	24000028 	.word	0x24000028
 8001740:	24000008 	.word	0x24000008
 8001744:	24000118 	.word	0x24000118
 8001748:	24000114 	.word	0x24000114
 800174c:	fffffc18 	.word	0xfffffc18
 8001750:	080091f2 	.word	0x080091f2
 8001754:	08008761 	.word	0x08008761
 8001758:	58020800 	.word	0x58020800
 800175c:	08008766 	.word	0x08008766
 8001760:	08008773 	.word	0x08008773
 8001764:	08008782 	.word	0x08008782

08001768 <ST7735_DeInit>:
 8001768:	2000      	movs	r0, #0
 800176a:	4770      	bx	lr

0800176c <ST7735_SetBrightness>:
 800176c:	f04f 30ff 	mov.w	r0, #4294967295
 8001770:	4770      	bx	lr

08001772 <ST7735_GetBrightness>:
 8001772:	f04f 30ff 	mov.w	r0, #4294967295
 8001776:	4770      	bx	lr

08001778 <ST7735_GetOrientation>:
 8001778:	4b02      	ldr	r3, [pc, #8]	; (8001784 <ST7735_GetOrientation+0xc>)
 800177a:	2000      	movs	r0, #0
 800177c:	689b      	ldr	r3, [r3, #8]
 800177e:	600b      	str	r3, [r1, #0]
 8001780:	4770      	bx	lr
 8001782:	bf00      	nop
 8001784:	24000154 	.word	0x24000154

08001788 <ST7735_GetXSize>:
 8001788:	4b02      	ldr	r3, [pc, #8]	; (8001794 <ST7735_GetXSize+0xc>)
 800178a:	2000      	movs	r0, #0
 800178c:	681b      	ldr	r3, [r3, #0]
 800178e:	600b      	str	r3, [r1, #0]
 8001790:	4770      	bx	lr
 8001792:	bf00      	nop
 8001794:	24000154 	.word	0x24000154

08001798 <ST7735_GetYSize>:
 8001798:	4b02      	ldr	r3, [pc, #8]	; (80017a4 <ST7735_GetYSize+0xc>)
 800179a:	2000      	movs	r0, #0
 800179c:	685b      	ldr	r3, [r3, #4]
 800179e:	600b      	str	r3, [r1, #0]
 80017a0:	4770      	bx	lr
 80017a2:	bf00      	nop
 80017a4:	24000154 	.word	0x24000154

080017a8 <ST7735_ReadRegWrap>:
 80017a8:	4603      	mov	r3, r0
 80017aa:	4608      	mov	r0, r1
 80017ac:	4611      	mov	r1, r2
 80017ae:	691b      	ldr	r3, [r3, #16]
 80017b0:	4718      	bx	r3

080017b2 <ST7735_WriteRegWrap>:
 80017b2:	b410      	push	{r4}
 80017b4:	4604      	mov	r4, r0
 80017b6:	4608      	mov	r0, r1
 80017b8:	4611      	mov	r1, r2
 80017ba:	461a      	mov	r2, r3
 80017bc:	68e4      	ldr	r4, [r4, #12]
 80017be:	4623      	mov	r3, r4
 80017c0:	f85d 4b04 	ldr.w	r4, [sp], #4
 80017c4:	4718      	bx	r3

080017c6 <ST7735_SendDataWrap>:
 80017c6:	4603      	mov	r3, r0
 80017c8:	4608      	mov	r0, r1
 80017ca:	4611      	mov	r1, r2
 80017cc:	695b      	ldr	r3, [r3, #20]
 80017ce:	4718      	bx	r3

080017d0 <ST7735_RecvDataWrap>:
 80017d0:	4603      	mov	r3, r0
 80017d2:	4608      	mov	r0, r1
 80017d4:	4611      	mov	r1, r2
 80017d6:	699b      	ldr	r3, [r3, #24]
 80017d8:	4718      	bx	r3
	...

080017dc <ST7735_SetDisplayWindow>:
 80017dc:	e92d 43f7 	stmdb	sp!, {r0, r1, r2, r4, r5, r6, r7, r8, r9, lr}
 80017e0:	4616      	mov	r6, r2
 80017e2:	4a4e      	ldr	r2, [pc, #312]	; (800191c <ST7735_SetDisplayWindow+0x140>)
 80017e4:	460f      	mov	r7, r1
 80017e6:	4699      	mov	r9, r3
 80017e8:	6891      	ldr	r1, [r2, #8]
 80017ea:	7b53      	ldrb	r3, [r2, #13]
 80017ec:	2901      	cmp	r1, #1
 80017ee:	f200 8082 	bhi.w	80018f6 <ST7735_SetDisplayWindow+0x11a>
 80017f2:	2b01      	cmp	r3, #1
 80017f4:	d178      	bne.n	80018e8 <ST7735_SetDisplayWindow+0x10c>
 80017f6:	7b13      	ldrb	r3, [r2, #12]
 80017f8:	b913      	cbnz	r3, 8001800 <ST7735_SetDisplayWindow+0x24>
 80017fa:	371a      	adds	r7, #26
 80017fc:	3601      	adds	r6, #1
 80017fe:	e000      	b.n	8001802 <ST7735_SetDisplayWindow+0x26>
 8001800:	3718      	adds	r7, #24
 8001802:	f100 0520 	add.w	r5, r0, #32
 8001806:	f10d 0207 	add.w	r2, sp, #7
 800180a:	2300      	movs	r3, #0
 800180c:	212a      	movs	r1, #42	; 0x2a
 800180e:	4628      	mov	r0, r5
 8001810:	fa5f f887 	uxtb.w	r8, r7
 8001814:	f000 fe91 	bl	800253a <st7735_write_reg>
 8001818:	4604      	mov	r4, r0
 800181a:	0a3b      	lsrs	r3, r7, #8
 800181c:	f10d 0107 	add.w	r1, sp, #7
 8001820:	f109 39ff 	add.w	r9, r9, #4294967295
 8001824:	2201      	movs	r2, #1
 8001826:	4628      	mov	r0, r5
 8001828:	f88d 3007 	strb.w	r3, [sp, #7]
 800182c:	f000 fe8c 	bl	8002548 <st7735_send_data>
 8001830:	f10d 0107 	add.w	r1, sp, #7
 8001834:	4404      	add	r4, r0
 8001836:	2201      	movs	r2, #1
 8001838:	4628      	mov	r0, r5
 800183a:	f88d 8007 	strb.w	r8, [sp, #7]
 800183e:	f000 fe83 	bl	8002548 <st7735_send_data>
 8001842:	eb09 0107 	add.w	r1, r9, r7
 8001846:	4404      	add	r4, r0
 8001848:	2201      	movs	r2, #1
 800184a:	0a09      	lsrs	r1, r1, #8
 800184c:	4628      	mov	r0, r5
 800184e:	44c8      	add	r8, r9
 8001850:	b2f7      	uxtb	r7, r6
 8001852:	f88d 1007 	strb.w	r1, [sp, #7]
 8001856:	f10d 0107 	add.w	r1, sp, #7
 800185a:	f000 fe75 	bl	8002548 <st7735_send_data>
 800185e:	4404      	add	r4, r0
 8001860:	f10d 0107 	add.w	r1, sp, #7
 8001864:	2201      	movs	r2, #1
 8001866:	4628      	mov	r0, r5
 8001868:	f88d 8007 	strb.w	r8, [sp, #7]
 800186c:	f000 fe6c 	bl	8002548 <st7735_send_data>
 8001870:	4404      	add	r4, r0
 8001872:	f10d 0207 	add.w	r2, sp, #7
 8001876:	2300      	movs	r3, #0
 8001878:	212b      	movs	r1, #43	; 0x2b
 800187a:	4628      	mov	r0, r5
 800187c:	f000 fe5d 	bl	800253a <st7735_write_reg>
 8001880:	4404      	add	r4, r0
 8001882:	0a33      	lsrs	r3, r6, #8
 8001884:	f10d 0107 	add.w	r1, sp, #7
 8001888:	2201      	movs	r2, #1
 800188a:	4628      	mov	r0, r5
 800188c:	f88d 3007 	strb.w	r3, [sp, #7]
 8001890:	f000 fe5a 	bl	8002548 <st7735_send_data>
 8001894:	f10d 0107 	add.w	r1, sp, #7
 8001898:	4404      	add	r4, r0
 800189a:	2201      	movs	r2, #1
 800189c:	4628      	mov	r0, r5
 800189e:	f88d 7007 	strb.w	r7, [sp, #7]
 80018a2:	f000 fe51 	bl	8002548 <st7735_send_data>
 80018a6:	9b0a      	ldr	r3, [sp, #40]	; 0x28
 80018a8:	4404      	add	r4, r0
 80018aa:	f10d 0107 	add.w	r1, sp, #7
 80018ae:	4628      	mov	r0, r5
 80018b0:	f103 38ff 	add.w	r8, r3, #4294967295
 80018b4:	eb08 0206 	add.w	r2, r8, r6
 80018b8:	4447      	add	r7, r8
 80018ba:	0a12      	lsrs	r2, r2, #8
 80018bc:	f88d 2007 	strb.w	r2, [sp, #7]
 80018c0:	2201      	movs	r2, #1
 80018c2:	f000 fe41 	bl	8002548 <st7735_send_data>
 80018c6:	4404      	add	r4, r0
 80018c8:	2201      	movs	r2, #1
 80018ca:	f10d 0107 	add.w	r1, sp, #7
 80018ce:	4628      	mov	r0, r5
 80018d0:	f88d 7007 	strb.w	r7, [sp, #7]
 80018d4:	f000 fe38 	bl	8002548 <st7735_send_data>
 80018d8:	42c4      	cmn	r4, r0
 80018da:	bf14      	ite	ne
 80018dc:	f04f 30ff 	movne.w	r0, #4294967295
 80018e0:	2000      	moveq	r0, #0
 80018e2:	b003      	add	sp, #12
 80018e4:	e8bd 83f0 	ldmia.w	sp!, {r4, r5, r6, r7, r8, r9, pc}
 80018e8:	2b02      	cmp	r3, #2
 80018ea:	d18a      	bne.n	8001802 <ST7735_SetDisplayWindow+0x26>
 80018ec:	7b13      	ldrb	r3, [r2, #12]
 80018ee:	2b01      	cmp	r3, #1
 80018f0:	d187      	bne.n	8001802 <ST7735_SetDisplayWindow+0x26>
 80018f2:	3702      	adds	r7, #2
 80018f4:	e782      	b.n	80017fc <ST7735_SetDisplayWindow+0x20>
 80018f6:	2b01      	cmp	r3, #1
 80018f8:	d106      	bne.n	8001908 <ST7735_SetDisplayWindow+0x12c>
 80018fa:	7b13      	ldrb	r3, [r2, #12]
 80018fc:	3701      	adds	r7, #1
 80018fe:	b90b      	cbnz	r3, 8001904 <ST7735_SetDisplayWindow+0x128>
 8001900:	361a      	adds	r6, #26
 8001902:	e77e      	b.n	8001802 <ST7735_SetDisplayWindow+0x26>
 8001904:	3618      	adds	r6, #24
 8001906:	e77c      	b.n	8001802 <ST7735_SetDisplayWindow+0x26>
 8001908:	2b02      	cmp	r3, #2
 800190a:	f47f af7a 	bne.w	8001802 <ST7735_SetDisplayWindow+0x26>
 800190e:	7b13      	ldrb	r3, [r2, #12]
 8001910:	2b01      	cmp	r3, #1
 8001912:	bf04      	itt	eq
 8001914:	3701      	addeq	r7, #1
 8001916:	3602      	addeq	r6, #2
 8001918:	e773      	b.n	8001802 <ST7735_SetDisplayWindow+0x26>
 800191a:	bf00      	nop
 800191c:	24000154 	.word	0x24000154

08001920 <ST7735_SetOrientation>:
 8001920:	b57f      	push	{r0, r1, r2, r3, r4, r5, r6, lr}
 8001922:	688a      	ldr	r2, [r1, #8]
 8001924:	4605      	mov	r5, r0
 8001926:	7b4b      	ldrb	r3, [r1, #13]
 8001928:	2a01      	cmp	r2, #1
 800192a:	4c23      	ldr	r4, [pc, #140]	; (80019b8 <ST7735_SetOrientation+0x98>)
 800192c:	d831      	bhi.n	8001992 <ST7735_SetOrientation+0x72>
 800192e:	2b01      	cmp	r3, #1
 8001930:	d12a      	bne.n	8001988 <ST7735_SetOrientation+0x68>
 8001932:	2050      	movs	r0, #80	; 0x50
 8001934:	6020      	str	r0, [r4, #0]
 8001936:	20a0      	movs	r0, #160	; 0xa0
 8001938:	6060      	str	r0, [r4, #4]
 800193a:	60a2      	str	r2, [r4, #8]
 800193c:	4628      	mov	r0, r5
 800193e:	7b0a      	ldrb	r2, [r1, #12]
 8001940:	7363      	strb	r3, [r4, #13]
 8001942:	7322      	strb	r2, [r4, #12]
 8001944:	2200      	movs	r2, #0
 8001946:	6863      	ldr	r3, [r4, #4]
 8001948:	4611      	mov	r1, r2
 800194a:	9300      	str	r3, [sp, #0]
 800194c:	6823      	ldr	r3, [r4, #0]
 800194e:	f7ff ff45 	bl	80017dc <ST7735_SetDisplayWindow>
 8001952:	7b22      	ldrb	r2, [r4, #12]
 8001954:	4606      	mov	r6, r0
 8001956:	4b19      	ldr	r3, [pc, #100]	; (80019bc <ST7735_SetOrientation+0x9c>)
 8001958:	bb42      	cbnz	r2, 80019ac <ST7735_SetOrientation+0x8c>
 800195a:	68a2      	ldr	r2, [r4, #8]
 800195c:	eb03 03c2 	add.w	r3, r3, r2, lsl #3
 8001960:	791b      	ldrb	r3, [r3, #4]
 8001962:	f043 0308 	orr.w	r3, r3, #8
 8001966:	f88d 300f 	strb.w	r3, [sp, #15]
 800196a:	f10d 020f 	add.w	r2, sp, #15
 800196e:	2301      	movs	r3, #1
 8001970:	2136      	movs	r1, #54	; 0x36
 8001972:	f105 0020 	add.w	r0, r5, #32
 8001976:	f000 fde0 	bl	800253a <st7735_write_reg>
 800197a:	42c6      	cmn	r6, r0
 800197c:	bf14      	ite	ne
 800197e:	f04f 30ff 	movne.w	r0, #4294967295
 8001982:	2000      	moveq	r0, #0
 8001984:	b004      	add	sp, #16
 8001986:	bd70      	pop	{r4, r5, r6, pc}
 8001988:	f013 0ffd 	tst.w	r3, #253	; 0xfd
 800198c:	d1d5      	bne.n	800193a <ST7735_SetOrientation+0x1a>
 800198e:	2080      	movs	r0, #128	; 0x80
 8001990:	e7d0      	b.n	8001934 <ST7735_SetOrientation+0x14>
 8001992:	2b01      	cmp	r3, #1
 8001994:	d103      	bne.n	800199e <ST7735_SetOrientation+0x7e>
 8001996:	20a0      	movs	r0, #160	; 0xa0
 8001998:	6020      	str	r0, [r4, #0]
 800199a:	2050      	movs	r0, #80	; 0x50
 800199c:	e7cc      	b.n	8001938 <ST7735_SetOrientation+0x18>
 800199e:	f013 0ffd 	tst.w	r3, #253	; 0xfd
 80019a2:	d1ca      	bne.n	800193a <ST7735_SetOrientation+0x1a>
 80019a4:	20a0      	movs	r0, #160	; 0xa0
 80019a6:	6020      	str	r0, [r4, #0]
 80019a8:	2080      	movs	r0, #128	; 0x80
 80019aa:	e7c5      	b.n	8001938 <ST7735_SetOrientation+0x18>
 80019ac:	68a2      	ldr	r2, [r4, #8]
 80019ae:	eb03 03c2 	add.w	r3, r3, r2, lsl #3
 80019b2:	791b      	ldrb	r3, [r3, #4]
 80019b4:	e7d7      	b.n	8001966 <ST7735_SetOrientation+0x46>
 80019b6:	bf00      	nop
 80019b8:	24000154 	.word	0x24000154
 80019bc:	0800f63c 	.word	0x0800f63c

080019c0 <ST7735_SetCursor>:
 80019c0:	4b36      	ldr	r3, [pc, #216]	; (8001a9c <ST7735_SetCursor+0xdc>)
 80019c2:	b5f7      	push	{r0, r1, r2, r4, r5, r6, r7, lr}
 80019c4:	460d      	mov	r5, r1
 80019c6:	6899      	ldr	r1, [r3, #8]
 80019c8:	4614      	mov	r4, r2
 80019ca:	7b5a      	ldrb	r2, [r3, #13]
 80019cc:	2901      	cmp	r1, #1
 80019ce:	d854      	bhi.n	8001a7a <ST7735_SetCursor+0xba>
 80019d0:	2a01      	cmp	r2, #1
 80019d2:	d14b      	bne.n	8001a6c <ST7735_SetCursor+0xac>
 80019d4:	7b1b      	ldrb	r3, [r3, #12]
 80019d6:	b913      	cbnz	r3, 80019de <ST7735_SetCursor+0x1e>
 80019d8:	351a      	adds	r5, #26
 80019da:	3401      	adds	r4, #1
 80019dc:	e000      	b.n	80019e0 <ST7735_SetCursor+0x20>
 80019de:	3518      	adds	r5, #24
 80019e0:	f100 0720 	add.w	r7, r0, #32
 80019e4:	f10d 0207 	add.w	r2, sp, #7
 80019e8:	2300      	movs	r3, #0
 80019ea:	212a      	movs	r1, #42	; 0x2a
 80019ec:	4638      	mov	r0, r7
 80019ee:	f000 fda4 	bl	800253a <st7735_write_reg>
 80019f2:	4606      	mov	r6, r0
 80019f4:	0a2b      	lsrs	r3, r5, #8
 80019f6:	f10d 0107 	add.w	r1, sp, #7
 80019fa:	2201      	movs	r2, #1
 80019fc:	4638      	mov	r0, r7
 80019fe:	f88d 3007 	strb.w	r3, [sp, #7]
 8001a02:	f000 fda1 	bl	8002548 <st7735_send_data>
 8001a06:	4406      	add	r6, r0
 8001a08:	f10d 0107 	add.w	r1, sp, #7
 8001a0c:	2201      	movs	r2, #1
 8001a0e:	4638      	mov	r0, r7
 8001a10:	f88d 5007 	strb.w	r5, [sp, #7]
 8001a14:	f000 fd98 	bl	8002548 <st7735_send_data>
 8001a18:	1835      	adds	r5, r6, r0
 8001a1a:	f10d 0207 	add.w	r2, sp, #7
 8001a1e:	2300      	movs	r3, #0
 8001a20:	212b      	movs	r1, #43	; 0x2b
 8001a22:	4638      	mov	r0, r7
 8001a24:	f000 fd89 	bl	800253a <st7735_write_reg>
 8001a28:	4405      	add	r5, r0
 8001a2a:	0a23      	lsrs	r3, r4, #8
 8001a2c:	f10d 0107 	add.w	r1, sp, #7
 8001a30:	2201      	movs	r2, #1
 8001a32:	4638      	mov	r0, r7
 8001a34:	f88d 3007 	strb.w	r3, [sp, #7]
 8001a38:	f000 fd86 	bl	8002548 <st7735_send_data>
 8001a3c:	4405      	add	r5, r0
 8001a3e:	f10d 0107 	add.w	r1, sp, #7
 8001a42:	2201      	movs	r2, #1
 8001a44:	4638      	mov	r0, r7
 8001a46:	f88d 4007 	strb.w	r4, [sp, #7]
 8001a4a:	f000 fd7d 	bl	8002548 <st7735_send_data>
 8001a4e:	4405      	add	r5, r0
 8001a50:	2300      	movs	r3, #0
 8001a52:	f10d 0207 	add.w	r2, sp, #7
 8001a56:	212c      	movs	r1, #44	; 0x2c
 8001a58:	4638      	mov	r0, r7
 8001a5a:	f000 fd6e 	bl	800253a <st7735_write_reg>
 8001a5e:	42c5      	cmn	r5, r0
 8001a60:	bf14      	ite	ne
 8001a62:	f04f 30ff 	movne.w	r0, #4294967295
 8001a66:	2000      	moveq	r0, #0
 8001a68:	b003      	add	sp, #12
 8001a6a:	bdf0      	pop	{r4, r5, r6, r7, pc}
 8001a6c:	2a02      	cmp	r2, #2
 8001a6e:	d1b7      	bne.n	80019e0 <ST7735_SetCursor+0x20>
 8001a70:	7b1b      	ldrb	r3, [r3, #12]
 8001a72:	2b01      	cmp	r3, #1
 8001a74:	d1b4      	bne.n	80019e0 <ST7735_SetCursor+0x20>
 8001a76:	3502      	adds	r5, #2
 8001a78:	e7af      	b.n	80019da <ST7735_SetCursor+0x1a>
 8001a7a:	2a01      	cmp	r2, #1
 8001a7c:	d106      	bne.n	8001a8c <ST7735_SetCursor+0xcc>
 8001a7e:	7b1b      	ldrb	r3, [r3, #12]
 8001a80:	b913      	cbnz	r3, 8001a88 <ST7735_SetCursor+0xc8>
 8001a82:	3501      	adds	r5, #1
 8001a84:	341a      	adds	r4, #26
 8001a86:	e7ab      	b.n	80019e0 <ST7735_SetCursor+0x20>
 8001a88:	3418      	adds	r4, #24
 8001a8a:	e7a9      	b.n	80019e0 <ST7735_SetCursor+0x20>
 8001a8c:	2a02      	cmp	r2, #2
 8001a8e:	d1a7      	bne.n	80019e0 <ST7735_SetCursor+0x20>
 8001a90:	7b1b      	ldrb	r3, [r3, #12]
 8001a92:	2b01      	cmp	r3, #1
 8001a94:	bf04      	itt	eq
 8001a96:	3501      	addeq	r5, #1
 8001a98:	3402      	addeq	r4, #2
 8001a9a:	e7a1      	b.n	80019e0 <ST7735_SetCursor+0x20>
 8001a9c:	24000154 	.word	0x24000154

08001aa0 <ST7735_DrawBitmap>:
 8001aa0:	e92d 4ff0 	stmdb	sp!, {r4, r5, r6, r7, r8, r9, sl, fp, lr}
 8001aa4:	7b1c      	ldrb	r4, [r3, #12]
 8001aa6:	b085      	sub	sp, #20
 8001aa8:	7add      	ldrb	r5, [r3, #11]
 8001aaa:	4680      	mov	r8, r0
 8001aac:	0424      	lsls	r4, r4, #16
 8001aae:	7dde      	ldrb	r6, [r3, #23]
 8001ab0:	78df      	ldrb	r7, [r3, #3]
 8001ab2:	4689      	mov	r9, r1
 8001ab4:	eb04 2405 	add.w	r4, r4, r5, lsl #8
 8001ab8:	7a9d      	ldrb	r5, [r3, #10]
 8001aba:	f8df a12c 	ldr.w	sl, [pc, #300]	; 8001be8 <ST7735_DrawBitmap+0x148>
 8001abe:	442c      	add	r4, r5
 8001ac0:	7b5d      	ldrb	r5, [r3, #13]
 8001ac2:	f893 c013 	ldrb.w	ip, [r3, #19]
 8001ac6:	eb04 6405 	add.w	r4, r4, r5, lsl #24
 8001aca:	7e1d      	ldrb	r5, [r3, #24]
 8001acc:	042d      	lsls	r5, r5, #16
 8001ace:	eb05 2506 	add.w	r5, r5, r6, lsl #8
 8001ad2:	7d9e      	ldrb	r6, [r3, #22]
 8001ad4:	4435      	add	r5, r6
 8001ad6:	7e5e      	ldrb	r6, [r3, #25]
 8001ad8:	eb05 6506 	add.w	r5, r5, r6, lsl #24
 8001adc:	791e      	ldrb	r6, [r3, #4]
 8001ade:	0436      	lsls	r6, r6, #16
 8001ae0:	eb06 2607 	add.w	r6, r6, r7, lsl #8
 8001ae4:	789f      	ldrb	r7, [r3, #2]
 8001ae6:	443e      	add	r6, r7
 8001ae8:	795f      	ldrb	r7, [r3, #5]
 8001aea:	eb06 6607 	add.w	r6, r6, r7, lsl #24
 8001aee:	f8da 7004 	ldr.w	r7, [sl, #4]
 8001af2:	1abf      	subs	r7, r7, r2
 8001af4:	7d1a      	ldrb	r2, [r3, #20]
 8001af6:	1b36      	subs	r6, r6, r4
 8001af8:	441c      	add	r4, r3
 8001afa:	0412      	lsls	r2, r2, #16
 8001afc:	1b7f      	subs	r7, r7, r5
 8001afe:	eb02 220c 	add.w	r2, r2, ip, lsl #8
 8001b02:	f893 c012 	ldrb.w	ip, [r3, #18]
 8001b06:	7d5b      	ldrb	r3, [r3, #21]
 8001b08:	4462      	add	r2, ip
 8001b0a:	9500      	str	r5, [sp, #0]
 8001b0c:	eb02 6303 	add.w	r3, r2, r3, lsl #24
 8001b10:	463a      	mov	r2, r7
 8001b12:	f7ff fe63 	bl	80017dc <ST7735_SetDisplayWindow>
 8001b16:	b128      	cbz	r0, 8001b24 <ST7735_DrawBitmap+0x84>
 8001b18:	f04f 37ff 	mov.w	r7, #4294967295
 8001b1c:	4638      	mov	r0, r7
 8001b1e:	b005      	add	sp, #20
 8001b20:	e8bd 8ff0 	ldmia.w	sp!, {r4, r5, r6, r7, r8, r9, sl, fp, pc}
 8001b24:	4d2f      	ldr	r5, [pc, #188]	; (8001be4 <ST7735_DrawBitmap+0x144>)
 8001b26:	f8da 3008 	ldr.w	r3, [sl, #8]
 8001b2a:	f89a 200c 	ldrb.w	r2, [sl, #12]
 8001b2e:	f815 3033 	ldrb.w	r3, [r5, r3, lsl #3]
 8001b32:	b90a      	cbnz	r2, 8001b38 <ST7735_DrawBitmap+0x98>
 8001b34:	f043 0308 	orr.w	r3, r3, #8
 8001b38:	f108 0b20 	add.w	fp, r8, #32
 8001b3c:	f88d 300b 	strb.w	r3, [sp, #11]
 8001b40:	f10d 020b 	add.w	r2, sp, #11
 8001b44:	2301      	movs	r3, #1
 8001b46:	2136      	movs	r1, #54	; 0x36
 8001b48:	4658      	mov	r0, fp
 8001b4a:	f000 fcf6 	bl	800253a <st7735_write_reg>
 8001b4e:	2800      	cmp	r0, #0
 8001b50:	d1e2      	bne.n	8001b18 <ST7735_DrawBitmap+0x78>
 8001b52:	463a      	mov	r2, r7
 8001b54:	4649      	mov	r1, r9
 8001b56:	4640      	mov	r0, r8
 8001b58:	f7ff ff32 	bl	80019c0 <ST7735_SetCursor>
 8001b5c:	2800      	cmp	r0, #0
 8001b5e:	d1db      	bne.n	8001b18 <ST7735_DrawBitmap+0x78>
 8001b60:	f104 0902 	add.w	r9, r4, #2
 8001b64:	f1c4 24ff 	rsb	r4, r4, #4278255360	; 0xff00ff00
 8001b68:	f504 047f 	add.w	r4, r4, #16711680	; 0xff0000
 8001b6c:	34fe      	adds	r4, #254	; 0xfe
 8001b6e:	f819 3c01 	ldrb.w	r3, [r9, #-1]
 8001b72:	2202      	movs	r2, #2
 8001b74:	a903      	add	r1, sp, #12
 8001b76:	4658      	mov	r0, fp
 8001b78:	f88d 300c 	strb.w	r3, [sp, #12]
 8001b7c:	f819 3c02 	ldrb.w	r3, [r9, #-2]
 8001b80:	f88d 300d 	strb.w	r3, [sp, #13]
 8001b84:	f000 fce0 	bl	8002548 <st7735_send_data>
 8001b88:	4607      	mov	r7, r0
 8001b8a:	bb38      	cbnz	r0, 8001bdc <ST7735_DrawBitmap+0x13c>
 8001b8c:	f109 0902 	add.w	r9, r9, #2
 8001b90:	eb04 0309 	add.w	r3, r4, r9
 8001b94:	42b3      	cmp	r3, r6
 8001b96:	d3ea      	bcc.n	8001b6e <ST7735_DrawBitmap+0xce>
 8001b98:	f8da 3008 	ldr.w	r3, [sl, #8]
 8001b9c:	f89a 200c 	ldrb.w	r2, [sl, #12]
 8001ba0:	eb05 05c3 	add.w	r5, r5, r3, lsl #3
 8001ba4:	792b      	ldrb	r3, [r5, #4]
 8001ba6:	b90a      	cbnz	r2, 8001bac <ST7735_DrawBitmap+0x10c>
 8001ba8:	f043 0308 	orr.w	r3, r3, #8
 8001bac:	f10d 020b 	add.w	r2, sp, #11
 8001bb0:	f88d 300b 	strb.w	r3, [sp, #11]
 8001bb4:	2136      	movs	r1, #54	; 0x36
 8001bb6:	2301      	movs	r3, #1
 8001bb8:	4658      	mov	r0, fp
 8001bba:	f000 fcbe 	bl	800253a <st7735_write_reg>
 8001bbe:	4602      	mov	r2, r0
 8001bc0:	2800      	cmp	r0, #0
 8001bc2:	d1a9      	bne.n	8001b18 <ST7735_DrawBitmap+0x78>
 8001bc4:	f8da 3004 	ldr.w	r3, [sl, #4]
 8001bc8:	4601      	mov	r1, r0
 8001bca:	4640      	mov	r0, r8
 8001bcc:	9300      	str	r3, [sp, #0]
 8001bce:	f8da 3000 	ldr.w	r3, [sl]
 8001bd2:	f7ff fe03 	bl	80017dc <ST7735_SetDisplayWindow>
 8001bd6:	2800      	cmp	r0, #0
 8001bd8:	d0a0      	beq.n	8001b1c <ST7735_DrawBitmap+0x7c>
 8001bda:	e79d      	b.n	8001b18 <ST7735_DrawBitmap+0x78>
 8001bdc:	f04f 37ff 	mov.w	r7, #4294967295
 8001be0:	e7da      	b.n	8001b98 <ST7735_DrawBitmap+0xf8>
 8001be2:	bf00      	nop
 8001be4:	0800f63c 	.word	0x0800f63c
 8001be8:	24000154 	.word	0x24000154

08001bec <ST7735_SetPixel>:
 8001bec:	b573      	push	{r0, r1, r4, r5, r6, lr}
 8001bee:	0a1e      	lsrs	r6, r3, #8
 8001bf0:	4604      	mov	r4, r0
 8001bf2:	ea46 2603 	orr.w	r6, r6, r3, lsl #8
 8001bf6:	4b0e      	ldr	r3, [pc, #56]	; (8001c30 <ST7735_SetPixel+0x44>)
 8001bf8:	f8ad 6006 	strh.w	r6, [sp, #6]
 8001bfc:	681e      	ldr	r6, [r3, #0]
 8001bfe:	428e      	cmp	r6, r1
 8001c00:	d803      	bhi.n	8001c0a <ST7735_SetPixel+0x1e>
 8001c02:	f04f 30ff 	mov.w	r0, #4294967295
 8001c06:	b002      	add	sp, #8
 8001c08:	bd70      	pop	{r4, r5, r6, pc}
 8001c0a:	685b      	ldr	r3, [r3, #4]
 8001c0c:	4293      	cmp	r3, r2
 8001c0e:	d9f8      	bls.n	8001c02 <ST7735_SetPixel+0x16>
 8001c10:	f7ff fed6 	bl	80019c0 <ST7735_SetCursor>
 8001c14:	2800      	cmp	r0, #0
 8001c16:	d1f4      	bne.n	8001c02 <ST7735_SetPixel+0x16>
 8001c18:	2202      	movs	r2, #2
 8001c1a:	f10d 0106 	add.w	r1, sp, #6
 8001c1e:	f104 0020 	add.w	r0, r4, #32
 8001c22:	f000 fc91 	bl	8002548 <st7735_send_data>
 8001c26:	3800      	subs	r0, #0
 8001c28:	bf18      	it	ne
 8001c2a:	2001      	movne	r0, #1
 8001c2c:	4240      	negs	r0, r0
 8001c2e:	e7ea      	b.n	8001c06 <ST7735_SetPixel+0x1a>
 8001c30:	24000154 	.word	0x24000154

08001c34 <ST7735_ReadID>:
 8001c34:	b537      	push	{r0, r1, r2, r4, r5, lr}
 8001c36:	f100 0420 	add.w	r4, r0, #32
 8001c3a:	460d      	mov	r5, r1
 8001c3c:	aa01      	add	r2, sp, #4
 8001c3e:	21da      	movs	r1, #218	; 0xda
 8001c40:	4620      	mov	r0, r4
 8001c42:	f000 fc77 	bl	8002534 <st7735_read_reg>
 8001c46:	b118      	cbz	r0, 8001c50 <ST7735_ReadID+0x1c>
 8001c48:	f04f 30ff 	mov.w	r0, #4294967295
 8001c4c:	b003      	add	sp, #12
 8001c4e:	bd30      	pop	{r4, r5, pc}
 8001c50:	f10d 0205 	add.w	r2, sp, #5
 8001c54:	21db      	movs	r1, #219	; 0xdb
 8001c56:	4620      	mov	r0, r4
 8001c58:	f000 fc6c 	bl	8002534 <st7735_read_reg>
 8001c5c:	2800      	cmp	r0, #0
 8001c5e:	d1f3      	bne.n	8001c48 <ST7735_ReadID+0x14>
 8001c60:	f10d 0206 	add.w	r2, sp, #6
 8001c64:	21dc      	movs	r1, #220	; 0xdc
 8001c66:	4620      	mov	r0, r4
 8001c68:	f000 fc64 	bl	8002534 <st7735_read_reg>
 8001c6c:	2800      	cmp	r0, #0
 8001c6e:	d1eb      	bne.n	8001c48 <ST7735_ReadID+0x14>
 8001c70:	f89d 3004 	ldrb.w	r3, [sp, #4]
 8001c74:	f89d 2005 	ldrb.w	r2, [sp, #5]
 8001c78:	041b      	lsls	r3, r3, #16
 8001c7a:	ea43 2302 	orr.w	r3, r3, r2, lsl #8
 8001c7e:	f89d 2006 	ldrb.w	r2, [sp, #6]
 8001c82:	4313      	orrs	r3, r2
 8001c84:	602b      	str	r3, [r5, #0]
 8001c86:	e7e1      	b.n	8001c4c <ST7735_ReadID+0x18>

08001c88 <ST7735_GetPixel>:
 8001c88:	b573      	push	{r0, r1, r4, r5, r6, lr}
 8001c8a:	4605      	mov	r5, r0
 8001c8c:	461e      	mov	r6, r3
 8001c8e:	f7ff fe97 	bl	80019c0 <ST7735_SetCursor>
 8001c92:	4604      	mov	r4, r0
 8001c94:	3520      	adds	r5, #32
 8001c96:	f10d 0207 	add.w	r2, sp, #7
 8001c9a:	212e      	movs	r1, #46	; 0x2e
 8001c9c:	4628      	mov	r0, r5
 8001c9e:	f000 fc49 	bl	8002534 <st7735_read_reg>
 8001ca2:	4404      	add	r4, r0
 8001ca4:	f10d 0107 	add.w	r1, sp, #7
 8001ca8:	2201      	movs	r2, #1
 8001caa:	4628      	mov	r0, r5
 8001cac:	f000 fc4f 	bl	800254e <st7735_recv_data>
 8001cb0:	4404      	add	r4, r0
 8001cb2:	f10d 0105 	add.w	r1, sp, #5
 8001cb6:	2201      	movs	r2, #1
 8001cb8:	4628      	mov	r0, r5
 8001cba:	f000 fc48 	bl	800254e <st7735_recv_data>
 8001cbe:	4404      	add	r4, r0
 8001cc0:	2201      	movs	r2, #1
 8001cc2:	f10d 0106 	add.w	r1, sp, #6
 8001cc6:	4628      	mov	r0, r5
 8001cc8:	f000 fc41 	bl	800254e <st7735_recv_data>
 8001ccc:	f89d 2006 	ldrb.w	r2, [sp, #6]
 8001cd0:	42c4      	cmn	r4, r0
 8001cd2:	f89d 3005 	ldrb.w	r3, [sp, #5]
 8001cd6:	bf18      	it	ne
 8001cd8:	f04f 30ff 	movne.w	r0, #4294967295
 8001cdc:	eb03 2302 	add.w	r3, r3, r2, lsl #8
 8001ce0:	bf08      	it	eq
 8001ce2:	2000      	moveq	r0, #0
 8001ce4:	6033      	str	r3, [r6, #0]
 8001ce6:	b002      	add	sp, #8
 8001ce8:	bd70      	pop	{r4, r5, r6, pc}
	...

08001cec <ST7735_FillRGBRect>:
 8001cec:	e92d 4ff8 	stmdb	sp!, {r3, r4, r5, r6, r7, r8, r9, sl, fp, lr}
 8001cf0:	9e0a      	ldr	r6, [sp, #40]	; 0x28
 8001cf2:	461c      	mov	r4, r3
 8001cf4:	4b1e      	ldr	r3, [pc, #120]	; (8001d70 <ST7735_FillRGBRect+0x84>)
 8001cf6:	4689      	mov	r9, r1
 8001cf8:	4615      	mov	r5, r2
 8001cfa:	4431      	add	r1, r6
 8001cfc:	681a      	ldr	r2, [r3, #0]
 8001cfe:	4680      	mov	r8, r0
 8001d00:	4291      	cmp	r1, r2
 8001d02:	d831      	bhi.n	8001d68 <ST7735_FillRGBRect+0x7c>
 8001d04:	9f0b      	ldr	r7, [sp, #44]	; 0x2c
 8001d06:	685b      	ldr	r3, [r3, #4]
 8001d08:	442f      	add	r7, r5
 8001d0a:	429f      	cmp	r7, r3
 8001d0c:	d82c      	bhi.n	8001d68 <ST7735_FillRGBRect+0x7c>
 8001d0e:	0076      	lsls	r6, r6, #1
 8001d10:	f04f 0b00 	mov.w	fp, #0
 8001d14:	f100 0a20 	add.w	sl, r0, #32
 8001d18:	42af      	cmp	r7, r5
 8001d1a:	d102      	bne.n	8001d22 <ST7735_FillRGBRect+0x36>
 8001d1c:	4658      	mov	r0, fp
 8001d1e:	e8bd 8ff8 	ldmia.w	sp!, {r3, r4, r5, r6, r7, r8, r9, sl, fp, pc}
 8001d22:	462a      	mov	r2, r5
 8001d24:	4649      	mov	r1, r9
 8001d26:	4640      	mov	r0, r8
 8001d28:	f7ff fe4a 	bl	80019c0 <ST7735_SetCursor>
 8001d2c:	b9c8      	cbnz	r0, 8001d62 <ST7735_FillRGBRect+0x76>
 8001d2e:	4a11      	ldr	r2, [pc, #68]	; (8001d74 <ST7735_FillRGBRect+0x88>)
 8001d30:	19a1      	adds	r1, r4, r6
 8001d32:	42a1      	cmp	r1, r4
 8001d34:	f102 0202 	add.w	r2, r2, #2
 8001d38:	d10a      	bne.n	8001d50 <ST7735_FillRGBRect+0x64>
 8001d3a:	4632      	mov	r2, r6
 8001d3c:	490d      	ldr	r1, [pc, #52]	; (8001d74 <ST7735_FillRGBRect+0x88>)
 8001d3e:	4650      	mov	r0, sl
 8001d40:	f000 fc02 	bl	8002548 <st7735_send_data>
 8001d44:	2800      	cmp	r0, #0
 8001d46:	bf18      	it	ne
 8001d48:	f04f 3bff 	movne.w	fp, #4294967295
 8001d4c:	3501      	adds	r5, #1
 8001d4e:	e7e3      	b.n	8001d18 <ST7735_FillRGBRect+0x2c>
 8001d50:	7820      	ldrb	r0, [r4, #0]
 8001d52:	3402      	adds	r4, #2
 8001d54:	f802 0c02 	strb.w	r0, [r2, #-2]
 8001d58:	f814 0c01 	ldrb.w	r0, [r4, #-1]
 8001d5c:	f802 0c01 	strb.w	r0, [r2, #-1]
 8001d60:	e7e7      	b.n	8001d32 <ST7735_FillRGBRect+0x46>
 8001d62:	f04f 3bff 	mov.w	fp, #4294967295
 8001d66:	e7f1      	b.n	8001d4c <ST7735_FillRGBRect+0x60>
 8001d68:	f04f 3bff 	mov.w	fp, #4294967295
 8001d6c:	e7d6      	b.n	8001d1c <ST7735_FillRGBRect+0x30>
 8001d6e:	bf00      	nop
 8001d70:	24000154 	.word	0x24000154
 8001d74:	240003e4 	.word	0x240003e4

08001d78 <ST7735_DrawHLine>:
 8001d78:	b5f8      	push	{r3, r4, r5, r6, r7, lr}
 8001d7a:	4f14      	ldr	r7, [pc, #80]	; (8001dcc <ST7735_DrawHLine+0x54>)
 8001d7c:	461c      	mov	r4, r3
 8001d7e:	18cb      	adds	r3, r1, r3
 8001d80:	4605      	mov	r5, r0
 8001d82:	683f      	ldr	r7, [r7, #0]
 8001d84:	9e06      	ldr	r6, [sp, #24]
 8001d86:	42bb      	cmp	r3, r7
 8001d88:	d902      	bls.n	8001d90 <ST7735_DrawHLine+0x18>
 8001d8a:	f04f 30ff 	mov.w	r0, #4294967295
 8001d8e:	bdf8      	pop	{r3, r4, r5, r6, r7, pc}
 8001d90:	f7ff fe16 	bl	80019c0 <ST7735_SetCursor>
 8001d94:	2800      	cmp	r0, #0
 8001d96:	d1f8      	bne.n	8001d8a <ST7735_DrawHLine+0x12>
 8001d98:	f3c6 2207 	ubfx	r2, r6, #8, #8
 8001d9c:	4b0c      	ldr	r3, [pc, #48]	; (8001dd0 <ST7735_DrawHLine+0x58>)
 8001d9e:	4601      	mov	r1, r0
 8001da0:	428c      	cmp	r4, r1
 8001da2:	f103 0302 	add.w	r3, r3, #2
 8001da6:	d10a      	bne.n	8001dbe <ST7735_DrawHLine+0x46>
 8001da8:	0062      	lsls	r2, r4, #1
 8001daa:	4909      	ldr	r1, [pc, #36]	; (8001dd0 <ST7735_DrawHLine+0x58>)
 8001dac:	f105 0020 	add.w	r0, r5, #32
 8001db0:	f000 fbca 	bl	8002548 <st7735_send_data>
 8001db4:	3800      	subs	r0, #0
 8001db6:	bf18      	it	ne
 8001db8:	2001      	movne	r0, #1
 8001dba:	4240      	negs	r0, r0
 8001dbc:	e7e7      	b.n	8001d8e <ST7735_DrawHLine+0x16>
 8001dbe:	3101      	adds	r1, #1
 8001dc0:	f803 2c02 	strb.w	r2, [r3, #-2]
 8001dc4:	f803 6c01 	strb.w	r6, [r3, #-1]
 8001dc8:	e7ea      	b.n	8001da0 <ST7735_DrawHLine+0x28>
 8001dca:	bf00      	nop
 8001dcc:	24000154 	.word	0x24000154
 8001dd0:	24000164 	.word	0x24000164

08001dd4 <ST7735_FillRect>:
 8001dd4:	e92d 41f3 	stmdb	sp!, {r0, r1, r4, r5, r6, r7, r8, lr}
 8001dd8:	9d08      	ldr	r5, [sp, #32]
 8001dda:	4607      	mov	r7, r0
 8001ddc:	4688      	mov	r8, r1
 8001dde:	4614      	mov	r4, r2
 8001de0:	461e      	mov	r6, r3
 8001de2:	4415      	add	r5, r2
 8001de4:	42ac      	cmp	r4, r5
 8001de6:	d103      	bne.n	8001df0 <ST7735_FillRect+0x1c>
 8001de8:	2000      	movs	r0, #0
 8001dea:	b002      	add	sp, #8
 8001dec:	e8bd 81f0 	ldmia.w	sp!, {r4, r5, r6, r7, r8, pc}
 8001df0:	9b09      	ldr	r3, [sp, #36]	; 0x24
 8001df2:	4622      	mov	r2, r4
 8001df4:	4641      	mov	r1, r8
 8001df6:	4638      	mov	r0, r7
 8001df8:	9300      	str	r3, [sp, #0]
 8001dfa:	4633      	mov	r3, r6
 8001dfc:	f7ff ffbc 	bl	8001d78 <ST7735_DrawHLine>
 8001e00:	b908      	cbnz	r0, 8001e06 <ST7735_FillRect+0x32>
 8001e02:	3401      	adds	r4, #1
 8001e04:	e7ee      	b.n	8001de4 <ST7735_FillRect+0x10>
 8001e06:	f04f 30ff 	mov.w	r0, #4294967295
 8001e0a:	e7ee      	b.n	8001dea <ST7735_FillRect+0x16>

08001e0c <ST7735_DrawVLine>:
 8001e0c:	b5f8      	push	{r3, r4, r5, r6, r7, lr}
 8001e0e:	18d5      	adds	r5, r2, r3
 8001e10:	4b0b      	ldr	r3, [pc, #44]	; (8001e40 <ST7735_DrawVLine+0x34>)
 8001e12:	4606      	mov	r6, r0
 8001e14:	460f      	mov	r7, r1
 8001e16:	685b      	ldr	r3, [r3, #4]
 8001e18:	4614      	mov	r4, r2
 8001e1a:	429d      	cmp	r5, r3
 8001e1c:	d90b      	bls.n	8001e36 <ST7735_DrawVLine+0x2a>
 8001e1e:	f04f 30ff 	mov.w	r0, #4294967295
 8001e22:	bdf8      	pop	{r3, r4, r5, r6, r7, pc}
 8001e24:	4622      	mov	r2, r4
 8001e26:	9b06      	ldr	r3, [sp, #24]
 8001e28:	4639      	mov	r1, r7
 8001e2a:	4630      	mov	r0, r6
 8001e2c:	3401      	adds	r4, #1
 8001e2e:	f7ff fedd 	bl	8001bec <ST7735_SetPixel>
 8001e32:	2800      	cmp	r0, #0
 8001e34:	d1f3      	bne.n	8001e1e <ST7735_DrawVLine+0x12>
 8001e36:	42a5      	cmp	r5, r4
 8001e38:	d1f4      	bne.n	8001e24 <ST7735_DrawVLine+0x18>
 8001e3a:	2000      	movs	r0, #0
 8001e3c:	e7f1      	b.n	8001e22 <ST7735_DrawVLine+0x16>
 8001e3e:	bf00      	nop
 8001e40:	24000154 	.word	0x24000154

08001e44 <ST7735_IO_Delay.isra.0>:
 8001e44:	b570      	push	{r4, r5, r6, lr}
 8001e46:	69c3      	ldr	r3, [r0, #28]
 8001e48:	4604      	mov	r4, r0
 8001e4a:	460d      	mov	r5, r1
 8001e4c:	4798      	blx	r3
 8001e4e:	4606      	mov	r6, r0
 8001e50:	69e3      	ldr	r3, [r4, #28]
 8001e52:	4798      	blx	r3
 8001e54:	1b83      	subs	r3, r0, r6
 8001e56:	42ab      	cmp	r3, r5
 8001e58:	d3fa      	bcc.n	8001e50 <ST7735_IO_Delay.isra.0+0xc>
 8001e5a:	bd70      	pop	{r4, r5, r6, pc}

08001e5c <ST7735_Init>:
 8001e5c:	e92d 4ff0 	stmdb	sp!, {r4, r5, r6, r7, r8, r9, sl, fp, lr}
 8001e60:	b085      	sub	sp, #20
 8001e62:	4690      	mov	r8, r2
 8001e64:	4607      	mov	r7, r0
 8001e66:	9101      	str	r1, [sp, #4]
 8001e68:	2800      	cmp	r0, #0
 8001e6a:	f000 82b0 	beq.w	80023ce <ST7735_Init+0x572>
 8001e6e:	f100 0520 	add.w	r5, r0, #32
 8001e72:	2600      	movs	r6, #0
 8001e74:	f10d 020f 	add.w	r2, sp, #15
 8001e78:	2101      	movs	r1, #1
 8001e7a:	4633      	mov	r3, r6
 8001e7c:	4628      	mov	r0, r5
 8001e7e:	f88d 600f 	strb.w	r6, [sp, #15]
 8001e82:	f000 fb5a 	bl	800253a <st7735_write_reg>
 8001e86:	2178      	movs	r1, #120	; 0x78
 8001e88:	4638      	mov	r0, r7
 8001e8a:	f7ff ffdb 	bl	8001e44 <ST7735_IO_Delay.isra.0>
 8001e8e:	4633      	mov	r3, r6
 8001e90:	f10d 020f 	add.w	r2, sp, #15
 8001e94:	2101      	movs	r1, #1
 8001e96:	4628      	mov	r0, r5
 8001e98:	f88d 600f 	strb.w	r6, [sp, #15]
 8001e9c:	f000 fb4d 	bl	800253a <st7735_write_reg>
 8001ea0:	2178      	movs	r1, #120	; 0x78
 8001ea2:	4604      	mov	r4, r0
 8001ea4:	4638      	mov	r0, r7
 8001ea6:	f7ff ffcd 	bl	8001e44 <ST7735_IO_Delay.isra.0>
 8001eaa:	2301      	movs	r3, #1
 8001eac:	f10d 020f 	add.w	r2, sp, #15
 8001eb0:	2111      	movs	r1, #17
 8001eb2:	4628      	mov	r0, r5
 8001eb4:	f88d 600f 	strb.w	r6, [sp, #15]
 8001eb8:	f000 fb3f 	bl	800253a <st7735_write_reg>
 8001ebc:	4404      	add	r4, r0
 8001ebe:	f04f 0b01 	mov.w	fp, #1
 8001ec2:	4633      	mov	r3, r6
 8001ec4:	f10d 020f 	add.w	r2, sp, #15
 8001ec8:	21b1      	movs	r1, #177	; 0xb1
 8001eca:	4628      	mov	r0, r5
 8001ecc:	f04f 0a2c 	mov.w	sl, #44	; 0x2c
 8001ed0:	f000 fb33 	bl	800253a <st7735_write_reg>
 8001ed4:	4404      	add	r4, r0
 8001ed6:	465a      	mov	r2, fp
 8001ed8:	f10d 010f 	add.w	r1, sp, #15
 8001edc:	4628      	mov	r0, r5
 8001ede:	f88d b00f 	strb.w	fp, [sp, #15]
 8001ee2:	f000 fb31 	bl	8002548 <st7735_send_data>
 8001ee6:	4404      	add	r4, r0
 8001ee8:	465a      	mov	r2, fp
 8001eea:	f10d 010f 	add.w	r1, sp, #15
 8001eee:	4628      	mov	r0, r5
 8001ef0:	f04f 092d 	mov.w	r9, #45	; 0x2d
 8001ef4:	f88d a00f 	strb.w	sl, [sp, #15]
 8001ef8:	f000 fb26 	bl	8002548 <st7735_send_data>
 8001efc:	4404      	add	r4, r0
 8001efe:	465a      	mov	r2, fp
 8001f00:	f10d 010f 	add.w	r1, sp, #15
 8001f04:	4628      	mov	r0, r5
 8001f06:	f88d 900f 	strb.w	r9, [sp, #15]
 8001f0a:	f000 fb1d 	bl	8002548 <st7735_send_data>
 8001f0e:	4404      	add	r4, r0
 8001f10:	465b      	mov	r3, fp
 8001f12:	f10d 020f 	add.w	r2, sp, #15
 8001f16:	21b2      	movs	r1, #178	; 0xb2
 8001f18:	4628      	mov	r0, r5
 8001f1a:	f88d b00f 	strb.w	fp, [sp, #15]
 8001f1e:	f000 fb0c 	bl	800253a <st7735_write_reg>
 8001f22:	4404      	add	r4, r0
 8001f24:	465a      	mov	r2, fp
 8001f26:	f10d 010f 	add.w	r1, sp, #15
 8001f2a:	4628      	mov	r0, r5
 8001f2c:	f88d a00f 	strb.w	sl, [sp, #15]
 8001f30:	f000 fb0a 	bl	8002548 <st7735_send_data>
 8001f34:	4404      	add	r4, r0
 8001f36:	465a      	mov	r2, fp
 8001f38:	f10d 010f 	add.w	r1, sp, #15
 8001f3c:	4628      	mov	r0, r5
 8001f3e:	f88d 900f 	strb.w	r9, [sp, #15]
 8001f42:	f000 fb01 	bl	8002548 <st7735_send_data>
 8001f46:	4404      	add	r4, r0
 8001f48:	465b      	mov	r3, fp
 8001f4a:	f10d 020f 	add.w	r2, sp, #15
 8001f4e:	21b3      	movs	r1, #179	; 0xb3
 8001f50:	4628      	mov	r0, r5
 8001f52:	f88d b00f 	strb.w	fp, [sp, #15]
 8001f56:	f000 faf0 	bl	800253a <st7735_write_reg>
 8001f5a:	4404      	add	r4, r0
 8001f5c:	465a      	mov	r2, fp
 8001f5e:	f10d 010f 	add.w	r1, sp, #15
 8001f62:	4628      	mov	r0, r5
 8001f64:	f88d a00f 	strb.w	sl, [sp, #15]
 8001f68:	f000 faee 	bl	8002548 <st7735_send_data>
 8001f6c:	4404      	add	r4, r0
 8001f6e:	465a      	mov	r2, fp
 8001f70:	f10d 010f 	add.w	r1, sp, #15
 8001f74:	4628      	mov	r0, r5
 8001f76:	f88d 900f 	strb.w	r9, [sp, #15]
 8001f7a:	f000 fae5 	bl	8002548 <st7735_send_data>
 8001f7e:	4404      	add	r4, r0
 8001f80:	465a      	mov	r2, fp
 8001f82:	f10d 010f 	add.w	r1, sp, #15
 8001f86:	4628      	mov	r0, r5
 8001f88:	f88d b00f 	strb.w	fp, [sp, #15]
 8001f8c:	f000 fadc 	bl	8002548 <st7735_send_data>
 8001f90:	4404      	add	r4, r0
 8001f92:	465a      	mov	r2, fp
 8001f94:	f10d 010f 	add.w	r1, sp, #15
 8001f98:	4628      	mov	r0, r5
 8001f9a:	f88d a00f 	strb.w	sl, [sp, #15]
 8001f9e:	f000 fad3 	bl	8002548 <st7735_send_data>
 8001fa2:	465a      	mov	r2, fp
 8001fa4:	4404      	add	r4, r0
 8001fa6:	f10d 010f 	add.w	r1, sp, #15
 8001faa:	4628      	mov	r0, r5
 8001fac:	f88d 900f 	strb.w	r9, [sp, #15]
 8001fb0:	f000 faca 	bl	8002548 <st7735_send_data>
 8001fb4:	2307      	movs	r3, #7
 8001fb6:	4404      	add	r4, r0
 8001fb8:	f10d 020f 	add.w	r2, sp, #15
 8001fbc:	21b4      	movs	r1, #180	; 0xb4
 8001fbe:	f88d 300f 	strb.w	r3, [sp, #15]
 8001fc2:	4628      	mov	r0, r5
 8001fc4:	465b      	mov	r3, fp
 8001fc6:	f04f 09c5 	mov.w	r9, #197	; 0xc5
 8001fca:	f000 fab6 	bl	800253a <st7735_write_reg>
 8001fce:	23a2      	movs	r3, #162	; 0xa2
 8001fd0:	4404      	add	r4, r0
 8001fd2:	f10d 020f 	add.w	r2, sp, #15
 8001fd6:	21c0      	movs	r1, #192	; 0xc0
 8001fd8:	f88d 300f 	strb.w	r3, [sp, #15]
 8001fdc:	4628      	mov	r0, r5
 8001fde:	465b      	mov	r3, fp
 8001fe0:	f000 faab 	bl	800253a <st7735_write_reg>
 8001fe4:	2302      	movs	r3, #2
 8001fe6:	4404      	add	r4, r0
 8001fe8:	465a      	mov	r2, fp
 8001fea:	f10d 010f 	add.w	r1, sp, #15
 8001fee:	4628      	mov	r0, r5
 8001ff0:	f88d 300f 	strb.w	r3, [sp, #15]
 8001ff4:	f000 faa8 	bl	8002548 <st7735_send_data>
 8001ff8:	2384      	movs	r3, #132	; 0x84
 8001ffa:	4404      	add	r4, r0
 8001ffc:	465a      	mov	r2, fp
 8001ffe:	f10d 010f 	add.w	r1, sp, #15
 8002002:	4628      	mov	r0, r5
 8002004:	f88d 300f 	strb.w	r3, [sp, #15]
 8002008:	f000 fa9e 	bl	8002548 <st7735_send_data>
 800200c:	465b      	mov	r3, fp
 800200e:	4404      	add	r4, r0
 8002010:	f10d 020f 	add.w	r2, sp, #15
 8002014:	21c1      	movs	r1, #193	; 0xc1
 8002016:	4628      	mov	r0, r5
 8002018:	f88d 900f 	strb.w	r9, [sp, #15]
 800201c:	f000 fa8d 	bl	800253a <st7735_write_reg>
 8002020:	230a      	movs	r3, #10
 8002022:	4404      	add	r4, r0
 8002024:	f10d 020f 	add.w	r2, sp, #15
 8002028:	21c2      	movs	r1, #194	; 0xc2
 800202a:	f88d 300f 	strb.w	r3, [sp, #15]
 800202e:	4628      	mov	r0, r5
 8002030:	465b      	mov	r3, fp
 8002032:	f04f 0a8a 	mov.w	sl, #138	; 0x8a
 8002036:	f000 fa80 	bl	800253a <st7735_write_reg>
 800203a:	4404      	add	r4, r0
 800203c:	465a      	mov	r2, fp
 800203e:	f10d 010f 	add.w	r1, sp, #15
 8002042:	4628      	mov	r0, r5
 8002044:	f88d 600f 	strb.w	r6, [sp, #15]
 8002048:	f000 fa7e 	bl	8002548 <st7735_send_data>
 800204c:	4404      	add	r4, r0
 800204e:	465b      	mov	r3, fp
 8002050:	f10d 020f 	add.w	r2, sp, #15
 8002054:	21c3      	movs	r1, #195	; 0xc3
 8002056:	4628      	mov	r0, r5
 8002058:	f88d a00f 	strb.w	sl, [sp, #15]
 800205c:	f000 fa6d 	bl	800253a <st7735_write_reg>
 8002060:	232a      	movs	r3, #42	; 0x2a
 8002062:	4404      	add	r4, r0
 8002064:	465a      	mov	r2, fp
 8002066:	f10d 010f 	add.w	r1, sp, #15
 800206a:	4628      	mov	r0, r5
 800206c:	f88d 300f 	strb.w	r3, [sp, #15]
 8002070:	f000 fa6a 	bl	8002548 <st7735_send_data>
 8002074:	465b      	mov	r3, fp
 8002076:	4404      	add	r4, r0
 8002078:	f10d 020f 	add.w	r2, sp, #15
 800207c:	21c4      	movs	r1, #196	; 0xc4
 800207e:	4628      	mov	r0, r5
 8002080:	f88d a00f 	strb.w	sl, [sp, #15]
 8002084:	f000 fa59 	bl	800253a <st7735_write_reg>
 8002088:	23ee      	movs	r3, #238	; 0xee
 800208a:	4404      	add	r4, r0
 800208c:	465a      	mov	r2, fp
 800208e:	f10d 010f 	add.w	r1, sp, #15
 8002092:	4628      	mov	r0, r5
 8002094:	f88d 300f 	strb.w	r3, [sp, #15]
 8002098:	f000 fa56 	bl	8002548 <st7735_send_data>
 800209c:	230e      	movs	r3, #14
 800209e:	4404      	add	r4, r0
 80020a0:	f10d 020f 	add.w	r2, sp, #15
 80020a4:	f88d 300f 	strb.w	r3, [sp, #15]
 80020a8:	4649      	mov	r1, r9
 80020aa:	465b      	mov	r3, fp
 80020ac:	4628      	mov	r0, r5
 80020ae:	f000 fa44 	bl	800253a <st7735_write_reg>
 80020b2:	f898 300c 	ldrb.w	r3, [r8, #12]
 80020b6:	4404      	add	r4, r0
 80020b8:	2b00      	cmp	r3, #0
 80020ba:	f040 8183 	bne.w	80023c4 <ST7735_Init+0x568>
 80020be:	f10d 020f 	add.w	r2, sp, #15
 80020c2:	2121      	movs	r1, #33	; 0x21
 80020c4:	4628      	mov	r0, r5
 80020c6:	f04f 0b07 	mov.w	fp, #7
 80020ca:	f000 fa36 	bl	800253a <st7735_write_reg>
 80020ce:	2301      	movs	r3, #1
 80020d0:	4404      	add	r4, r0
 80020d2:	aa01      	add	r2, sp, #4
 80020d4:	213a      	movs	r1, #58	; 0x3a
 80020d6:	4628      	mov	r0, r5
 80020d8:	f000 fa2f 	bl	800253a <st7735_write_reg>
 80020dc:	f04f 0302 	mov.w	r3, #2
 80020e0:	4404      	add	r4, r0
 80020e2:	f10d 020f 	add.w	r2, sp, #15
 80020e6:	21e0      	movs	r1, #224	; 0xe0
 80020e8:	f88d 300f 	strb.w	r3, [sp, #15]
 80020ec:	4628      	mov	r0, r5
 80020ee:	2301      	movs	r3, #1
 80020f0:	f000 fa23 	bl	800253a <st7735_write_reg>
 80020f4:	231c      	movs	r3, #28
 80020f6:	4404      	add	r4, r0
 80020f8:	2201      	movs	r2, #1
 80020fa:	f10d 010f 	add.w	r1, sp, #15
 80020fe:	4628      	mov	r0, r5
 8002100:	f88d 300f 	strb.w	r3, [sp, #15]
 8002104:	f000 fa20 	bl	8002548 <st7735_send_data>
 8002108:	2201      	movs	r2, #1
 800210a:	4404      	add	r4, r0
 800210c:	f10d 010f 	add.w	r1, sp, #15
 8002110:	4628      	mov	r0, r5
 8002112:	f88d b00f 	strb.w	fp, [sp, #15]
 8002116:	f000 fa17 	bl	8002548 <st7735_send_data>
 800211a:	2312      	movs	r3, #18
 800211c:	4404      	add	r4, r0
 800211e:	2201      	movs	r2, #1
 8002120:	f10d 010f 	add.w	r1, sp, #15
 8002124:	4628      	mov	r0, r5
 8002126:	f88d 300f 	strb.w	r3, [sp, #15]
 800212a:	f000 fa0d 	bl	8002548 <st7735_send_data>
 800212e:	f04f 0237 	mov.w	r2, #55	; 0x37
 8002132:	4404      	add	r4, r0
 8002134:	f10d 010f 	add.w	r1, sp, #15
 8002138:	f88d 200f 	strb.w	r2, [sp, #15]
 800213c:	4628      	mov	r0, r5
 800213e:	2201      	movs	r2, #1
 8002140:	f04f 0929 	mov.w	r9, #41	; 0x29
 8002144:	f000 fa00 	bl	8002548 <st7735_send_data>
 8002148:	2332      	movs	r3, #50	; 0x32
 800214a:	4404      	add	r4, r0
 800214c:	2201      	movs	r2, #1
 800214e:	f10d 010f 	add.w	r1, sp, #15
 8002152:	4628      	mov	r0, r5
 8002154:	f88d 300f 	strb.w	r3, [sp, #15]
 8002158:	f000 f9f6 	bl	8002548 <st7735_send_data>
 800215c:	4404      	add	r4, r0
 800215e:	2201      	movs	r2, #1
 8002160:	f10d 010f 	add.w	r1, sp, #15
 8002164:	4628      	mov	r0, r5
 8002166:	f88d 900f 	strb.w	r9, [sp, #15]
 800216a:	f000 f9ed 	bl	8002548 <st7735_send_data>
 800216e:	f04f 012d 	mov.w	r1, #45	; 0x2d
 8002172:	4404      	add	r4, r0
 8002174:	f10d 000f 	add.w	r0, sp, #15
 8002178:	2201      	movs	r2, #1
 800217a:	f88d 100f 	strb.w	r1, [sp, #15]
 800217e:	f04f 0a00 	mov.w	sl, #0
 8002182:	4601      	mov	r1, r0
 8002184:	4628      	mov	r0, r5
 8002186:	f000 f9df 	bl	8002548 <st7735_send_data>
 800218a:	4404      	add	r4, r0
 800218c:	f10d 000f 	add.w	r0, sp, #15
 8002190:	2201      	movs	r2, #1
 8002192:	f88d 900f 	strb.w	r9, [sp, #15]
 8002196:	2601      	movs	r6, #1
 8002198:	4601      	mov	r1, r0
 800219a:	4628      	mov	r0, r5
 800219c:	f000 f9d4 	bl	8002548 <st7735_send_data>
 80021a0:	4404      	add	r4, r0
 80021a2:	f10d 000f 	add.w	r0, sp, #15
 80021a6:	2325      	movs	r3, #37	; 0x25
 80021a8:	2201      	movs	r2, #1
 80021aa:	4601      	mov	r1, r0
 80021ac:	4628      	mov	r0, r5
 80021ae:	f88d 300f 	strb.w	r3, [sp, #15]
 80021b2:	f000 f9c9 	bl	8002548 <st7735_send_data>
 80021b6:	4404      	add	r4, r0
 80021b8:	f10d 000f 	add.w	r0, sp, #15
 80021bc:	232b      	movs	r3, #43	; 0x2b
 80021be:	2201      	movs	r2, #1
 80021c0:	4601      	mov	r1, r0
 80021c2:	4628      	mov	r0, r5
 80021c4:	f88d 300f 	strb.w	r3, [sp, #15]
 80021c8:	f000 f9be 	bl	8002548 <st7735_send_data>
 80021cc:	4404      	add	r4, r0
 80021ce:	f10d 000f 	add.w	r0, sp, #15
 80021d2:	2339      	movs	r3, #57	; 0x39
 80021d4:	2201      	movs	r2, #1
 80021d6:	4601      	mov	r1, r0
 80021d8:	4628      	mov	r0, r5
 80021da:	f88d 300f 	strb.w	r3, [sp, #15]
 80021de:	f000 f9b3 	bl	8002548 <st7735_send_data>
 80021e2:	4404      	add	r4, r0
 80021e4:	f10d 000f 	add.w	r0, sp, #15
 80021e8:	2201      	movs	r2, #1
 80021ea:	f88d a00f 	strb.w	sl, [sp, #15]
 80021ee:	4601      	mov	r1, r0
 80021f0:	4628      	mov	r0, r5
 80021f2:	f000 f9a9 	bl	8002548 <st7735_send_data>
 80021f6:	4404      	add	r4, r0
 80021f8:	f10d 000f 	add.w	r0, sp, #15
 80021fc:	4632      	mov	r2, r6
 80021fe:	f88d 600f 	strb.w	r6, [sp, #15]
 8002202:	4601      	mov	r1, r0
 8002204:	4628      	mov	r0, r5
 8002206:	f000 f99f 	bl	8002548 <st7735_send_data>
 800220a:	4404      	add	r4, r0
 800220c:	f10d 000f 	add.w	r0, sp, #15
 8002210:	2303      	movs	r3, #3
 8002212:	4632      	mov	r2, r6
 8002214:	4601      	mov	r1, r0
 8002216:	4628      	mov	r0, r5
 8002218:	f88d 300f 	strb.w	r3, [sp, #15]
 800221c:	f000 f994 	bl	8002548 <st7735_send_data>
 8002220:	f10d 0c0f 	add.w	ip, sp, #15
 8002224:	4404      	add	r4, r0
 8002226:	f04f 0010 	mov.w	r0, #16
 800222a:	4632      	mov	r2, r6
 800222c:	4661      	mov	r1, ip
 800222e:	f88d 000f 	strb.w	r0, [sp, #15]
 8002232:	4628      	mov	r0, r5
 8002234:	f000 f988 	bl	8002548 <st7735_send_data>
 8002238:	f10d 0c0f 	add.w	ip, sp, #15
 800223c:	2303      	movs	r3, #3
 800223e:	4404      	add	r4, r0
 8002240:	4662      	mov	r2, ip
 8002242:	21e1      	movs	r1, #225	; 0xe1
 8002244:	f88d 300f 	strb.w	r3, [sp, #15]
 8002248:	4628      	mov	r0, r5
 800224a:	4633      	mov	r3, r6
 800224c:	f000 f975 	bl	800253a <st7735_write_reg>
 8002250:	f10d 0c0f 	add.w	ip, sp, #15
 8002254:	231d      	movs	r3, #29
 8002256:	4404      	add	r4, r0
 8002258:	4661      	mov	r1, ip
 800225a:	4632      	mov	r2, r6
 800225c:	4628      	mov	r0, r5
 800225e:	f88d 300f 	strb.w	r3, [sp, #15]
 8002262:	f000 f971 	bl	8002548 <st7735_send_data>
 8002266:	f10d 0c0f 	add.w	ip, sp, #15
 800226a:	4404      	add	r4, r0
 800226c:	4632      	mov	r2, r6
 800226e:	4661      	mov	r1, ip
 8002270:	4628      	mov	r0, r5
 8002272:	f88d b00f 	strb.w	fp, [sp, #15]
 8002276:	f000 f967 	bl	8002548 <st7735_send_data>
 800227a:	f10d 0c0f 	add.w	ip, sp, #15
 800227e:	2306      	movs	r3, #6
 8002280:	4404      	add	r4, r0
 8002282:	4632      	mov	r2, r6
 8002284:	4661      	mov	r1, ip
 8002286:	4628      	mov	r0, r5
 8002288:	f88d 300f 	strb.w	r3, [sp, #15]
 800228c:	f000 f95c 	bl	8002548 <st7735_send_data>
 8002290:	f10d 0c0f 	add.w	ip, sp, #15
 8002294:	f04f 0b2e 	mov.w	fp, #46	; 0x2e
 8002298:	4404      	add	r4, r0
 800229a:	4632      	mov	r2, r6
 800229c:	4661      	mov	r1, ip
 800229e:	4628      	mov	r0, r5
 80022a0:	f88d b00f 	strb.w	fp, [sp, #15]
 80022a4:	f000 f950 	bl	8002548 <st7735_send_data>
 80022a8:	f10d 0c0f 	add.w	ip, sp, #15
 80022ac:	232c      	movs	r3, #44	; 0x2c
 80022ae:	4404      	add	r4, r0
 80022b0:	4632      	mov	r2, r6
 80022b2:	4661      	mov	r1, ip
 80022b4:	4628      	mov	r0, r5
 80022b6:	f88d 300f 	strb.w	r3, [sp, #15]
 80022ba:	f000 f945 	bl	8002548 <st7735_send_data>
 80022be:	f10d 0c0f 	add.w	ip, sp, #15
 80022c2:	4404      	add	r4, r0
 80022c4:	4632      	mov	r2, r6
 80022c6:	4628      	mov	r0, r5
 80022c8:	4661      	mov	r1, ip
 80022ca:	f88d 900f 	strb.w	r9, [sp, #15]
 80022ce:	f000 f93b 	bl	8002548 <st7735_send_data>
 80022d2:	f04f 012d 	mov.w	r1, #45	; 0x2d
 80022d6:	4404      	add	r4, r0
 80022d8:	4632      	mov	r2, r6
 80022da:	f88d 100f 	strb.w	r1, [sp, #15]
 80022de:	4628      	mov	r0, r5
 80022e0:	f10d 010f 	add.w	r1, sp, #15
 80022e4:	f000 f930 	bl	8002548 <st7735_send_data>
 80022e8:	4404      	add	r4, r0
 80022ea:	4632      	mov	r2, r6
 80022ec:	f10d 010f 	add.w	r1, sp, #15
 80022f0:	4628      	mov	r0, r5
 80022f2:	f88d b00f 	strb.w	fp, [sp, #15]
 80022f6:	f000 f927 	bl	8002548 <st7735_send_data>
 80022fa:	4632      	mov	r2, r6
 80022fc:	4404      	add	r4, r0
 80022fe:	f10d 010f 	add.w	r1, sp, #15
 8002302:	4628      	mov	r0, r5
 8002304:	f88d b00f 	strb.w	fp, [sp, #15]
 8002308:	f000 f91e 	bl	8002548 <st7735_send_data>
 800230c:	f04f 0237 	mov.w	r2, #55	; 0x37
 8002310:	4404      	add	r4, r0
 8002312:	f10d 010f 	add.w	r1, sp, #15
 8002316:	f88d 200f 	strb.w	r2, [sp, #15]
 800231a:	4628      	mov	r0, r5
 800231c:	4632      	mov	r2, r6
 800231e:	f000 f913 	bl	8002548 <st7735_send_data>
 8002322:	233f      	movs	r3, #63	; 0x3f
 8002324:	4404      	add	r4, r0
 8002326:	4632      	mov	r2, r6
 8002328:	f10d 010f 	add.w	r1, sp, #15
 800232c:	4628      	mov	r0, r5
 800232e:	f88d 300f 	strb.w	r3, [sp, #15]
 8002332:	f000 f909 	bl	8002548 <st7735_send_data>
 8002336:	4404      	add	r4, r0
 8002338:	4632      	mov	r2, r6
 800233a:	f10d 010f 	add.w	r1, sp, #15
 800233e:	4628      	mov	r0, r5
 8002340:	f88d a00f 	strb.w	sl, [sp, #15]
 8002344:	f000 f900 	bl	8002548 <st7735_send_data>
 8002348:	4404      	add	r4, r0
 800234a:	4632      	mov	r2, r6
 800234c:	f10d 010f 	add.w	r1, sp, #15
 8002350:	4628      	mov	r0, r5
 8002352:	f88d a00f 	strb.w	sl, [sp, #15]
 8002356:	f000 f8f7 	bl	8002548 <st7735_send_data>
 800235a:	f04f 0302 	mov.w	r3, #2
 800235e:	4404      	add	r4, r0
 8002360:	4632      	mov	r2, r6
 8002362:	f10d 010f 	add.w	r1, sp, #15
 8002366:	4628      	mov	r0, r5
 8002368:	f88d 300f 	strb.w	r3, [sp, #15]
 800236c:	f000 f8ec 	bl	8002548 <st7735_send_data>
 8002370:	4404      	add	r4, r0
 8002372:	f04f 0010 	mov.w	r0, #16
 8002376:	4632      	mov	r2, r6
 8002378:	f10d 010f 	add.w	r1, sp, #15
 800237c:	f88d 000f 	strb.w	r0, [sp, #15]
 8002380:	4628      	mov	r0, r5
 8002382:	f000 f8e1 	bl	8002548 <st7735_send_data>
 8002386:	4404      	add	r4, r0
 8002388:	4633      	mov	r3, r6
 800238a:	f10d 020f 	add.w	r2, sp, #15
 800238e:	2113      	movs	r1, #19
 8002390:	4628      	mov	r0, r5
 8002392:	f88d a00f 	strb.w	sl, [sp, #15]
 8002396:	f000 f8d0 	bl	800253a <st7735_write_reg>
 800239a:	4404      	add	r4, r0
 800239c:	4633      	mov	r3, r6
 800239e:	f10d 020f 	add.w	r2, sp, #15
 80023a2:	4649      	mov	r1, r9
 80023a4:	4628      	mov	r0, r5
 80023a6:	f000 f8c8 	bl	800253a <st7735_write_reg>
 80023aa:	4404      	add	r4, r0
 80023ac:	4641      	mov	r1, r8
 80023ae:	4638      	mov	r0, r7
 80023b0:	f7ff fab6 	bl	8001920 <ST7735_SetOrientation>
 80023b4:	42c4      	cmn	r4, r0
 80023b6:	bf14      	ite	ne
 80023b8:	f04f 30ff 	movne.w	r0, #4294967295
 80023bc:	4650      	moveq	r0, sl
 80023be:	b005      	add	sp, #20
 80023c0:	e8bd 8ff0 	ldmia.w	sp!, {r4, r5, r6, r7, r8, r9, sl, fp, pc}
 80023c4:	4633      	mov	r3, r6
 80023c6:	f10d 020f 	add.w	r2, sp, #15
 80023ca:	2120      	movs	r1, #32
 80023cc:	e67a      	b.n	80020c4 <ST7735_Init+0x268>
 80023ce:	f04f 30ff 	mov.w	r0, #4294967295
 80023d2:	e7f4      	b.n	80023be <ST7735_Init+0x562>

080023d4 <ST7735_DisplayOff>:
 80023d4:	b5f7      	push	{r0, r1, r2, r4, r5, r6, r7, lr}
 80023d6:	2700      	movs	r7, #0
 80023d8:	f100 0520 	add.w	r5, r0, #32
 80023dc:	4606      	mov	r6, r0
 80023de:	f10d 0207 	add.w	r2, sp, #7
 80023e2:	463b      	mov	r3, r7
 80023e4:	2113      	movs	r1, #19
 80023e6:	4628      	mov	r0, r5
 80023e8:	f88d 7007 	strb.w	r7, [sp, #7]
 80023ec:	f000 f8a5 	bl	800253a <st7735_write_reg>
 80023f0:	210a      	movs	r1, #10
 80023f2:	4604      	mov	r4, r0
 80023f4:	4630      	mov	r0, r6
 80023f6:	f7ff fd25 	bl	8001e44 <ST7735_IO_Delay.isra.0>
 80023fa:	463b      	mov	r3, r7
 80023fc:	f10d 0207 	add.w	r2, sp, #7
 8002400:	2128      	movs	r1, #40	; 0x28
 8002402:	4628      	mov	r0, r5
 8002404:	f000 f899 	bl	800253a <st7735_write_reg>
 8002408:	210a      	movs	r1, #10
 800240a:	4404      	add	r4, r0
 800240c:	4630      	mov	r0, r6
 800240e:	f7ff fd19 	bl	8001e44 <ST7735_IO_Delay.isra.0>
 8002412:	463b      	mov	r3, r7
 8002414:	f10d 0207 	add.w	r2, sp, #7
 8002418:	2136      	movs	r1, #54	; 0x36
 800241a:	4628      	mov	r0, r5
 800241c:	f000 f88d 	bl	800253a <st7735_write_reg>
 8002420:	4a0c      	ldr	r2, [pc, #48]	; (8002454 <ST7735_DisplayOff+0x80>)
 8002422:	4b0d      	ldr	r3, [pc, #52]	; (8002458 <ST7735_DisplayOff+0x84>)
 8002424:	4404      	add	r4, r0
 8002426:	7b11      	ldrb	r1, [r2, #12]
 8002428:	6892      	ldr	r2, [r2, #8]
 800242a:	eb03 03c2 	add.w	r3, r3, r2, lsl #3
 800242e:	791b      	ldrb	r3, [r3, #4]
 8002430:	b909      	cbnz	r1, 8002436 <ST7735_DisplayOff+0x62>
 8002432:	f043 0308 	orr.w	r3, r3, #8
 8002436:	2201      	movs	r2, #1
 8002438:	f10d 0107 	add.w	r1, sp, #7
 800243c:	4628      	mov	r0, r5
 800243e:	f88d 3007 	strb.w	r3, [sp, #7]
 8002442:	f000 f881 	bl	8002548 <st7735_send_data>
 8002446:	42c4      	cmn	r4, r0
 8002448:	bf14      	ite	ne
 800244a:	f04f 30ff 	movne.w	r0, #4294967295
 800244e:	2000      	moveq	r0, #0
 8002450:	b003      	add	sp, #12
 8002452:	bdf0      	pop	{r4, r5, r6, r7, pc}
 8002454:	24000154 	.word	0x24000154
 8002458:	0800f63c 	.word	0x0800f63c

0800245c <ST7735_DisplayOn>:
 800245c:	b5f7      	push	{r0, r1, r2, r4, r5, r6, r7, lr}
 800245e:	2700      	movs	r7, #0
 8002460:	f100 0520 	add.w	r5, r0, #32
 8002464:	4606      	mov	r6, r0
 8002466:	f10d 0207 	add.w	r2, sp, #7
 800246a:	463b      	mov	r3, r7
 800246c:	2113      	movs	r1, #19
 800246e:	4628      	mov	r0, r5
 8002470:	f88d 7007 	strb.w	r7, [sp, #7]
 8002474:	f000 f861 	bl	800253a <st7735_write_reg>
 8002478:	210a      	movs	r1, #10
 800247a:	4604      	mov	r4, r0
 800247c:	4630      	mov	r0, r6
 800247e:	f7ff fce1 	bl	8001e44 <ST7735_IO_Delay.isra.0>
 8002482:	463b      	mov	r3, r7
 8002484:	f10d 0207 	add.w	r2, sp, #7
 8002488:	2129      	movs	r1, #41	; 0x29
 800248a:	4628      	mov	r0, r5
 800248c:	f000 f855 	bl	800253a <st7735_write_reg>
 8002490:	210a      	movs	r1, #10
 8002492:	4404      	add	r4, r0
 8002494:	4630      	mov	r0, r6
 8002496:	f7ff fcd5 	bl	8001e44 <ST7735_IO_Delay.isra.0>
 800249a:	463b      	mov	r3, r7
 800249c:	f10d 0207 	add.w	r2, sp, #7
 80024a0:	2136      	movs	r1, #54	; 0x36
 80024a2:	4628      	mov	r0, r5
 80024a4:	f000 f849 	bl	800253a <st7735_write_reg>
 80024a8:	4a0c      	ldr	r2, [pc, #48]	; (80024dc <ST7735_DisplayOn+0x80>)
 80024aa:	4b0d      	ldr	r3, [pc, #52]	; (80024e0 <ST7735_DisplayOn+0x84>)
 80024ac:	4404      	add	r4, r0
 80024ae:	7b11      	ldrb	r1, [r2, #12]
 80024b0:	6892      	ldr	r2, [r2, #8]
 80024b2:	eb03 03c2 	add.w	r3, r3, r2, lsl #3
 80024b6:	791b      	ldrb	r3, [r3, #4]
 80024b8:	b909      	cbnz	r1, 80024be <ST7735_DisplayOn+0x62>
 80024ba:	f043 0308 	orr.w	r3, r3, #8
 80024be:	2201      	movs	r2, #1
 80024c0:	f10d 0107 	add.w	r1, sp, #7
 80024c4:	4628      	mov	r0, r5
 80024c6:	f88d 3007 	strb.w	r3, [sp, #7]
 80024ca:	f000 f83d 	bl	8002548 <st7735_send_data>
 80024ce:	42c4      	cmn	r4, r0
 80024d0:	bf14      	ite	ne
 80024d2:	f04f 30ff 	movne.w	r0, #4294967295
 80024d6:	2000      	moveq	r0, #0
 80024d8:	b003      	add	sp, #12
 80024da:	bdf0      	pop	{r4, r5, r6, r7, pc}
 80024dc:	24000154 	.word	0x24000154
 80024e0:	0800f63c 	.word	0x0800f63c

080024e4 <ST7735_RegisterBusIO>:
 80024e4:	b1d0      	cbz	r0, 800251c <ST7735_RegisterBusIO+0x38>
 80024e6:	684a      	ldr	r2, [r1, #4]
 80024e8:	680b      	ldr	r3, [r1, #0]
 80024ea:	6042      	str	r2, [r0, #4]
 80024ec:	890a      	ldrh	r2, [r1, #8]
 80024ee:	6003      	str	r3, [r0, #0]
 80024f0:	8102      	strh	r2, [r0, #8]
 80024f2:	68ca      	ldr	r2, [r1, #12]
 80024f4:	60c2      	str	r2, [r0, #12]
 80024f6:	690a      	ldr	r2, [r1, #16]
 80024f8:	6102      	str	r2, [r0, #16]
 80024fa:	694a      	ldr	r2, [r1, #20]
 80024fc:	6142      	str	r2, [r0, #20]
 80024fe:	698a      	ldr	r2, [r1, #24]
 8002500:	6182      	str	r2, [r0, #24]
 8002502:	69ca      	ldr	r2, [r1, #28]
 8002504:	61c2      	str	r2, [r0, #28]
 8002506:	4a07      	ldr	r2, [pc, #28]	; (8002524 <ST7735_RegisterBusIO+0x40>)
 8002508:	6242      	str	r2, [r0, #36]	; 0x24
 800250a:	4a07      	ldr	r2, [pc, #28]	; (8002528 <ST7735_RegisterBusIO+0x44>)
 800250c:	6202      	str	r2, [r0, #32]
 800250e:	4a07      	ldr	r2, [pc, #28]	; (800252c <ST7735_RegisterBusIO+0x48>)
 8002510:	6282      	str	r2, [r0, #40]	; 0x28
 8002512:	4a07      	ldr	r2, [pc, #28]	; (8002530 <ST7735_RegisterBusIO+0x4c>)
 8002514:	e9c0 200b 	strd	r2, r0, [r0, #44]	; 0x2c
 8002518:	b103      	cbz	r3, 800251c <ST7735_RegisterBusIO+0x38>
 800251a:	4718      	bx	r3
 800251c:	f04f 30ff 	mov.w	r0, #4294967295
 8002520:	4770      	bx	lr
 8002522:	bf00      	nop
 8002524:	080017a9 	.word	0x080017a9
 8002528:	080017b3 	.word	0x080017b3
 800252c:	080017c7 	.word	0x080017c7
 8002530:	080017d1 	.word	0x080017d1

08002534 <st7735_read_reg>:
 8002534:	6843      	ldr	r3, [r0, #4]
 8002536:	6900      	ldr	r0, [r0, #16]
 8002538:	4718      	bx	r3

0800253a <st7735_write_reg>:
 800253a:	b410      	push	{r4}
 800253c:	6804      	ldr	r4, [r0, #0]
 800253e:	6900      	ldr	r0, [r0, #16]
 8002540:	46a4      	mov	ip, r4
 8002542:	f85d 4b04 	ldr.w	r4, [sp], #4
 8002546:	4760      	bx	ip

08002548 <st7735_send_data>:
 8002548:	6883      	ldr	r3, [r0, #8]
 800254a:	6900      	ldr	r0, [r0, #16]
 800254c:	4718      	bx	r3

0800254e <st7735_recv_data>:
 800254e:	e9d0 3003 	ldrd	r3, r0, [r0, #12]
 8002552:	4718      	bx	r3

08002554 <MX_DCMI_Init>:
 8002554:	b508      	push	{r3, lr}
 8002556:	480c      	ldr	r0, [pc, #48]	; (8002588 <MX_DCMI_Init+0x34>)
 8002558:	2300      	movs	r3, #0
 800255a:	4a0c      	ldr	r2, [pc, #48]	; (800258c <MX_DCMI_Init+0x38>)
 800255c:	6183      	str	r3, [r0, #24]
 800255e:	6303      	str	r3, [r0, #48]	; 0x30
 8002560:	e9c0 2300 	strd	r2, r3, [r0]
 8002564:	2220      	movs	r2, #32
 8002566:	e9c0 3304 	strd	r3, r3, [r0, #16]
 800256a:	e9c0 2302 	strd	r2, r3, [r0, #8]
 800256e:	e9c0 3308 	strd	r3, r3, [r0, #32]
 8002572:	e9c0 330a 	strd	r3, r3, [r0, #40]	; 0x28
 8002576:	f000 fe75 	bl	8003264 <HAL_DCMI_Init>
 800257a:	b118      	cbz	r0, 8002584 <MX_DCMI_Init+0x30>
 800257c:	e8bd 4008 	ldmia.w	sp!, {r3, lr}
 8002580:	f000 bb4c 	b.w	8002c1c <Error_Handler>
 8002584:	bd08      	pop	{r3, pc}
 8002586:	bf00      	nop
 8002588:	24000664 	.word	0x24000664
 800258c:	48020000 	.word	0x48020000

08002590 <HAL_DCMI_MspInit>:
 8002590:	b5f0      	push	{r4, r5, r6, r7, lr}
 8002592:	b08d      	sub	sp, #52	; 0x34
 8002594:	4606      	mov	r6, r0
 8002596:	2214      	movs	r2, #20
 8002598:	2100      	movs	r1, #0
 800259a:	a807      	add	r0, sp, #28
 800259c:	f005 f86a 	bl	8007674 <memset>
 80025a0:	6832      	ldr	r2, [r6, #0]
 80025a2:	4b53      	ldr	r3, [pc, #332]	; (80026f0 <HAL_DCMI_MspInit+0x160>)
 80025a4:	429a      	cmp	r2, r3
 80025a6:	f040 80a1 	bne.w	80026ec <HAL_DCMI_MspInit+0x15c>
 80025aa:	4b52      	ldr	r3, [pc, #328]	; (80026f4 <HAL_DCMI_MspInit+0x164>)
 80025ac:	240d      	movs	r4, #13
 80025ae:	2702      	movs	r7, #2
 80025b0:	a907      	add	r1, sp, #28
 80025b2:	f8d3 20dc 	ldr.w	r2, [r3, #220]	; 0xdc
 80025b6:	2500      	movs	r5, #0
 80025b8:	484f      	ldr	r0, [pc, #316]	; (80026f8 <HAL_DCMI_MspInit+0x168>)
 80025ba:	f042 0201 	orr.w	r2, r2, #1
 80025be:	f8c3 20dc 	str.w	r2, [r3, #220]	; 0xdc
 80025c2:	f8d3 20dc 	ldr.w	r2, [r3, #220]	; 0xdc
 80025c6:	f002 0201 	and.w	r2, r2, #1
 80025ca:	9201      	str	r2, [sp, #4]
 80025cc:	9a01      	ldr	r2, [sp, #4]
 80025ce:	f8d3 20e0 	ldr.w	r2, [r3, #224]	; 0xe0
 80025d2:	f042 0210 	orr.w	r2, r2, #16
 80025d6:	f8c3 20e0 	str.w	r2, [r3, #224]	; 0xe0
 80025da:	f8d3 20e0 	ldr.w	r2, [r3, #224]	; 0xe0
 80025de:	f002 0210 	and.w	r2, r2, #16
 80025e2:	9202      	str	r2, [sp, #8]
 80025e4:	9a02      	ldr	r2, [sp, #8]
 80025e6:	f8d3 20e0 	ldr.w	r2, [r3, #224]	; 0xe0
 80025ea:	f042 0201 	orr.w	r2, r2, #1
 80025ee:	f8c3 20e0 	str.w	r2, [r3, #224]	; 0xe0
 80025f2:	f8d3 20e0 	ldr.w	r2, [r3, #224]	; 0xe0
 80025f6:	f002 0201 	and.w	r2, r2, #1
 80025fa:	9203      	str	r2, [sp, #12]
 80025fc:	9a03      	ldr	r2, [sp, #12]
 80025fe:	f8d3 20e0 	ldr.w	r2, [r3, #224]	; 0xe0
 8002602:	f042 0204 	orr.w	r2, r2, #4
 8002606:	f8c3 20e0 	str.w	r2, [r3, #224]	; 0xe0
 800260a:	f8d3 20e0 	ldr.w	r2, [r3, #224]	; 0xe0
 800260e:	f002 0204 	and.w	r2, r2, #4
 8002612:	9204      	str	r2, [sp, #16]
 8002614:	9a04      	ldr	r2, [sp, #16]
 8002616:	f8d3 20e0 	ldr.w	r2, [r3, #224]	; 0xe0
 800261a:	f042 0208 	orr.w	r2, r2, #8
 800261e:	f8c3 20e0 	str.w	r2, [r3, #224]	; 0xe0
 8002622:	f8d3 20e0 	ldr.w	r2, [r3, #224]	; 0xe0
 8002626:	f002 0208 	and.w	r2, r2, #8
 800262a:	9205      	str	r2, [sp, #20]
 800262c:	9a05      	ldr	r2, [sp, #20]
 800262e:	f8d3 20e0 	ldr.w	r2, [r3, #224]	; 0xe0
 8002632:	f042 0202 	orr.w	r2, r2, #2
 8002636:	f8c3 20e0 	str.w	r2, [r3, #224]	; 0xe0
 800263a:	f8d3 30e0 	ldr.w	r3, [r3, #224]	; 0xe0
 800263e:	f003 0302 	and.w	r3, r3, #2
 8002642:	9306      	str	r3, [sp, #24]
 8002644:	9b06      	ldr	r3, [sp, #24]
 8002646:	2373      	movs	r3, #115	; 0x73
 8002648:	e9cd 3707 	strd	r3, r7, [sp, #28]
 800264c:	940b      	str	r4, [sp, #44]	; 0x2c
 800264e:	f001 ffd5 	bl	80045fc <HAL_GPIO_Init>
 8002652:	2350      	movs	r3, #80	; 0x50
 8002654:	a907      	add	r1, sp, #28
 8002656:	4829      	ldr	r0, [pc, #164]	; (80026fc <HAL_DCMI_MspInit+0x16c>)
 8002658:	940b      	str	r4, [sp, #44]	; 0x2c
 800265a:	e9cd 3707 	strd	r3, r7, [sp, #28]
 800265e:	e9cd 5509 	strd	r5, r5, [sp, #36]	; 0x24
 8002662:	f001 ffcb 	bl	80045fc <HAL_GPIO_Init>
 8002666:	23c0      	movs	r3, #192	; 0xc0
 8002668:	a907      	add	r1, sp, #28
 800266a:	4825      	ldr	r0, [pc, #148]	; (8002700 <HAL_DCMI_MspInit+0x170>)
 800266c:	940b      	str	r4, [sp, #44]	; 0x2c
 800266e:	e9cd 3707 	strd	r3, r7, [sp, #28]
 8002672:	e9cd 5509 	strd	r5, r5, [sp, #36]	; 0x24
 8002676:	f001 ffc1 	bl	80045fc <HAL_GPIO_Init>
 800267a:	2308      	movs	r3, #8
 800267c:	a907      	add	r1, sp, #28
 800267e:	4821      	ldr	r0, [pc, #132]	; (8002704 <HAL_DCMI_MspInit+0x174>)
 8002680:	940b      	str	r4, [sp, #44]	; 0x2c
 8002682:	e9cd 3707 	strd	r3, r7, [sp, #28]
 8002686:	e9cd 5509 	strd	r5, r5, [sp, #36]	; 0x24
 800268a:	f001 ffb7 	bl	80045fc <HAL_GPIO_Init>
 800268e:	2380      	movs	r3, #128	; 0x80
 8002690:	a907      	add	r1, sp, #28
 8002692:	481d      	ldr	r0, [pc, #116]	; (8002708 <HAL_DCMI_MspInit+0x178>)
 8002694:	940b      	str	r4, [sp, #44]	; 0x2c
 8002696:	4c1d      	ldr	r4, [pc, #116]	; (800270c <HAL_DCMI_MspInit+0x17c>)
 8002698:	e9cd 3707 	strd	r3, r7, [sp, #28]
 800269c:	e9cd 5509 	strd	r5, r5, [sp, #36]	; 0x24
 80026a0:	f001 ffac 	bl	80045fc <HAL_GPIO_Init>
 80026a4:	234b      	movs	r3, #75	; 0x4b
 80026a6:	4a1a      	ldr	r2, [pc, #104]	; (8002710 <HAL_DCMI_MspInit+0x180>)
 80026a8:	f44f 6180 	mov.w	r1, #1024	; 0x400
 80026ac:	f44f 4080 	mov.w	r0, #16384	; 0x4000
 80026b0:	e9c4 2300 	strd	r2, r3, [r4]
 80026b4:	f44f 5380 	mov.w	r3, #4096	; 0x1000
 80026b8:	e9c4 1304 	strd	r1, r3, [r4, #16]
 80026bc:	f44f 7380 	mov.w	r3, #256	; 0x100
 80026c0:	e9c4 0306 	strd	r0, r3, [r4, #24]
 80026c4:	4620      	mov	r0, r4
 80026c6:	e9c4 5502 	strd	r5, r5, [r4, #8]
 80026ca:	e9c4 5508 	strd	r5, r5, [r4, #32]
 80026ce:	f001 f871 	bl	80037b4 <HAL_DMA_Init>
 80026d2:	b108      	cbz	r0, 80026d8 <HAL_DCMI_MspInit+0x148>
 80026d4:	f000 faa2 	bl	8002c1c <Error_Handler>
 80026d8:	2200      	movs	r2, #0
 80026da:	204e      	movs	r0, #78	; 0x4e
 80026dc:	64b4      	str	r4, [r6, #72]	; 0x48
 80026de:	4611      	mov	r1, r2
 80026e0:	63a6      	str	r6, [r4, #56]	; 0x38
 80026e2:	f000 fd2d 	bl	8003140 <HAL_NVIC_SetPriority>
 80026e6:	204e      	movs	r0, #78	; 0x4e
 80026e8:	f000 fd5c 	bl	80031a4 <HAL_NVIC_EnableIRQ>
 80026ec:	b00d      	add	sp, #52	; 0x34
 80026ee:	bdf0      	pop	{r4, r5, r6, r7, pc}
 80026f0:	48020000 	.word	0x48020000
 80026f4:	58024400 	.word	0x58024400
 80026f8:	58021000 	.word	0x58021000
 80026fc:	58020000 	.word	0x58020000
 8002700:	58020800 	.word	0x58020800
 8002704:	58020c00 	.word	0x58020c00
 8002708:	58020400 	.word	0x58020400
 800270c:	240006b4 	.word	0x240006b4
 8002710:	40020010 	.word	0x40020010

08002714 <MX_DMA_Init>:
 8002714:	4b0c      	ldr	r3, [pc, #48]	; (8002748 <MX_DMA_Init+0x34>)
 8002716:	b507      	push	{r0, r1, r2, lr}
 8002718:	f8d3 20d8 	ldr.w	r2, [r3, #216]	; 0xd8
 800271c:	200b      	movs	r0, #11
 800271e:	f042 0201 	orr.w	r2, r2, #1
 8002722:	f8c3 20d8 	str.w	r2, [r3, #216]	; 0xd8
 8002726:	2200      	movs	r2, #0
 8002728:	f8d3 30d8 	ldr.w	r3, [r3, #216]	; 0xd8
 800272c:	4611      	mov	r1, r2
 800272e:	f003 0301 	and.w	r3, r3, #1
 8002732:	9301      	str	r3, [sp, #4]
 8002734:	9b01      	ldr	r3, [sp, #4]
 8002736:	f000 fd03 	bl	8003140 <HAL_NVIC_SetPriority>
 800273a:	200b      	movs	r0, #11
 800273c:	b003      	add	sp, #12
 800273e:	f85d eb04 	ldr.w	lr, [sp], #4
 8002742:	f000 bd2f 	b.w	80031a4 <HAL_NVIC_EnableIRQ>
 8002746:	bf00      	nop
 8002748:	58024400 	.word	0x58024400

0800274c <MX_GPIO_Init>:
 800274c:	e92d 43f0 	stmdb	sp!, {r4, r5, r6, r7, r8, r9, lr}
 8002750:	b08d      	sub	sp, #52	; 0x34
 8002752:	2214      	movs	r2, #20
 8002754:	2100      	movs	r1, #0
 8002756:	4e5b      	ldr	r6, [pc, #364]	; (80028c4 <MX_GPIO_Init+0x178>)
 8002758:	a807      	add	r0, sp, #28
 800275a:	2400      	movs	r4, #0
 800275c:	f004 ff8a 	bl	8007674 <memset>
 8002760:	4b59      	ldr	r3, [pc, #356]	; (80028c8 <MX_GPIO_Init+0x17c>)
 8002762:	4630      	mov	r0, r6
 8002764:	2108      	movs	r1, #8
 8002766:	f8d3 20e0 	ldr.w	r2, [r3, #224]	; 0xe0
 800276a:	2503      	movs	r5, #3
 800276c:	f04f 0901 	mov.w	r9, #1
 8002770:	2702      	movs	r7, #2
 8002772:	f042 0210 	orr.w	r2, r2, #16
 8002776:	f8df 8160 	ldr.w	r8, [pc, #352]	; 80028d8 <MX_GPIO_Init+0x18c>
 800277a:	f8c3 20e0 	str.w	r2, [r3, #224]	; 0xe0
 800277e:	f8d3 20e0 	ldr.w	r2, [r3, #224]	; 0xe0
 8002782:	f002 0210 	and.w	r2, r2, #16
 8002786:	9201      	str	r2, [sp, #4]
 8002788:	9a01      	ldr	r2, [sp, #4]
 800278a:	f8d3 20e0 	ldr.w	r2, [r3, #224]	; 0xe0
 800278e:	f042 0204 	orr.w	r2, r2, #4
 8002792:	f8c3 20e0 	str.w	r2, [r3, #224]	; 0xe0
 8002796:	f8d3 20e0 	ldr.w	r2, [r3, #224]	; 0xe0
 800279a:	f002 0204 	and.w	r2, r2, #4
 800279e:	9202      	str	r2, [sp, #8]
 80027a0:	9a02      	ldr	r2, [sp, #8]
 80027a2:	f8d3 20e0 	ldr.w	r2, [r3, #224]	; 0xe0
 80027a6:	f042 0280 	orr.w	r2, r2, #128	; 0x80
 80027aa:	f8c3 20e0 	str.w	r2, [r3, #224]	; 0xe0
 80027ae:	f8d3 20e0 	ldr.w	r2, [r3, #224]	; 0xe0
 80027b2:	f002 0280 	and.w	r2, r2, #128	; 0x80
 80027b6:	9203      	str	r2, [sp, #12]
 80027b8:	9a03      	ldr	r2, [sp, #12]
 80027ba:	f8d3 20e0 	ldr.w	r2, [r3, #224]	; 0xe0
 80027be:	f042 0201 	orr.w	r2, r2, #1
 80027c2:	f8c3 20e0 	str.w	r2, [r3, #224]	; 0xe0
 80027c6:	f8d3 20e0 	ldr.w	r2, [r3, #224]	; 0xe0
 80027ca:	f002 0201 	and.w	r2, r2, #1
 80027ce:	9204      	str	r2, [sp, #16]
 80027d0:	9a04      	ldr	r2, [sp, #16]
 80027d2:	f8d3 20e0 	ldr.w	r2, [r3, #224]	; 0xe0
 80027d6:	f042 0202 	orr.w	r2, r2, #2
 80027da:	f8c3 20e0 	str.w	r2, [r3, #224]	; 0xe0
 80027de:	f8d3 20e0 	ldr.w	r2, [r3, #224]	; 0xe0
 80027e2:	f002 0202 	and.w	r2, r2, #2
 80027e6:	9205      	str	r2, [sp, #20]
 80027e8:	9a05      	ldr	r2, [sp, #20]
 80027ea:	f8d3 20e0 	ldr.w	r2, [r3, #224]	; 0xe0
 80027ee:	f042 0208 	orr.w	r2, r2, #8
 80027f2:	f8c3 20e0 	str.w	r2, [r3, #224]	; 0xe0
 80027f6:	2200      	movs	r2, #0
 80027f8:	f8d3 30e0 	ldr.w	r3, [r3, #224]	; 0xe0
 80027fc:	f003 0308 	and.w	r3, r3, #8
 8002800:	9306      	str	r3, [sp, #24]
 8002802:	9b06      	ldr	r3, [sp, #24]
 8002804:	f001 ffea 	bl	80047dc <HAL_GPIO_WritePin>
 8002808:	2201      	movs	r2, #1
 800280a:	4630      	mov	r0, r6
 800280c:	f44f 5120 	mov.w	r1, #10240	; 0x2800
 8002810:	f001 ffe4 	bl	80047dc <HAL_GPIO_WritePin>
 8002814:	f248 3384 	movw	r3, #33668	; 0x8384
 8002818:	a907      	add	r1, sp, #28
 800281a:	4630      	mov	r0, r6
 800281c:	9409      	str	r4, [sp, #36]	; 0x24
 800281e:	e9cd 3507 	strd	r3, r5, [sp, #28]
 8002822:	f001 feeb 	bl	80045fc <HAL_GPIO_Init>
 8002826:	2308      	movs	r3, #8
 8002828:	a907      	add	r1, sp, #28
 800282a:	4630      	mov	r0, r6
 800282c:	e9cd 3907 	strd	r3, r9, [sp, #28]
 8002830:	e9cd 4409 	strd	r4, r4, [sp, #36]	; 0x24
 8002834:	f001 fee2 	bl	80045fc <HAL_GPIO_Init>
 8002838:	f44f 5300 	mov.w	r3, #8192	; 0x2000
 800283c:	a907      	add	r1, sp, #28
 800283e:	4823      	ldr	r0, [pc, #140]	; (80028cc <MX_GPIO_Init+0x180>)
 8002840:	9709      	str	r7, [sp, #36]	; 0x24
 8002842:	e9cd 3407 	strd	r3, r4, [sp, #28]
 8002846:	f001 fed9 	bl	80045fc <HAL_GPIO_Init>
 800284a:	f641 733f 	movw	r3, #7999	; 0x1f3f
 800284e:	a907      	add	r1, sp, #28
 8002850:	481e      	ldr	r0, [pc, #120]	; (80028cc <MX_GPIO_Init+0x180>)
 8002852:	9409      	str	r4, [sp, #36]	; 0x24
 8002854:	e9cd 3507 	strd	r3, r5, [sp, #28]
 8002858:	f001 fed0 	bl	80045fc <HAL_GPIO_Init>
 800285c:	f649 63af 	movw	r3, #40623	; 0x9eaf
 8002860:	a907      	add	r1, sp, #28
 8002862:	4640      	mov	r0, r8
 8002864:	9409      	str	r4, [sp, #36]	; 0x24
 8002866:	e9cd 3507 	strd	r3, r5, [sp, #28]
 800286a:	f001 fec7 	bl	80045fc <HAL_GPIO_Init>
 800286e:	f64f 437f 	movw	r3, #64639	; 0xfc7f
 8002872:	a907      	add	r1, sp, #28
 8002874:	4816      	ldr	r0, [pc, #88]	; (80028d0 <MX_GPIO_Init+0x184>)
 8002876:	9409      	str	r4, [sp, #36]	; 0x24
 8002878:	e9cd 3507 	strd	r3, r5, [sp, #28]
 800287c:	f001 febe 	bl	80045fc <HAL_GPIO_Init>
 8002880:	f44f 5320 	mov.w	r3, #10240	; 0x2800
 8002884:	a907      	add	r1, sp, #28
 8002886:	4630      	mov	r0, r6
 8002888:	e9cd 3907 	strd	r3, r9, [sp, #28]
 800288c:	e9cd 4509 	strd	r4, r5, [sp, #36]	; 0x24
 8002890:	f001 feb4 	bl	80045fc <HAL_GPIO_Init>
 8002894:	f64f 73f7 	movw	r3, #65527	; 0xfff7
 8002898:	a907      	add	r1, sp, #28
 800289a:	480e      	ldr	r0, [pc, #56]	; (80028d4 <MX_GPIO_Init+0x188>)
 800289c:	9409      	str	r4, [sp, #36]	; 0x24
 800289e:	e9cd 3507 	strd	r3, r5, [sp, #28]
 80028a2:	f001 feab 	bl	80045fc <HAL_GPIO_Init>
 80028a6:	f44f 7380 	mov.w	r3, #256	; 0x100
 80028aa:	a907      	add	r1, sp, #28
 80028ac:	4640      	mov	r0, r8
 80028ae:	940b      	str	r4, [sp, #44]	; 0x2c
 80028b0:	e9cd 3707 	strd	r3, r7, [sp, #28]
 80028b4:	e9cd 4709 	strd	r4, r7, [sp, #36]	; 0x24
 80028b8:	f001 fea0 	bl	80045fc <HAL_GPIO_Init>
 80028bc:	b00d      	add	sp, #52	; 0x34
 80028be:	e8bd 83f0 	ldmia.w	sp!, {r4, r5, r6, r7, r8, r9, pc}
 80028c2:	bf00      	nop
 80028c4:	58021000 	.word	0x58021000
 80028c8:	58024400 	.word	0x58024400
 80028cc:	58020800 	.word	0x58020800
 80028d0:	58020400 	.word	0x58020400
 80028d4:	58020c00 	.word	0x58020c00
 80028d8:	58020000 	.word	0x58020000

080028dc <MX_I2C1_Init>:
 80028dc:	b508      	push	{r3, lr}
 80028de:	4814      	ldr	r0, [pc, #80]	; (8002930 <MX_I2C1_Init+0x54>)
 80028e0:	2201      	movs	r2, #1
 80028e2:	4b14      	ldr	r3, [pc, #80]	; (8002934 <MX_I2C1_Init+0x58>)
 80028e4:	6003      	str	r3, [r0, #0]
 80028e6:	f503 03bf 	add.w	r3, r3, #6258688	; 0x5f8000
 80028ea:	f503 43f4 	add.w	r3, r3, #31232	; 0x7a00
 80028ee:	3373      	adds	r3, #115	; 0x73
 80028f0:	6043      	str	r3, [r0, #4]
 80028f2:	2300      	movs	r3, #0
 80028f4:	e9c0 3202 	strd	r3, r2, [r0, #8]
 80028f8:	e9c0 3304 	strd	r3, r3, [r0, #16]
 80028fc:	e9c0 3306 	strd	r3, r3, [r0, #24]
 8002900:	6203      	str	r3, [r0, #32]
 8002902:	f002 f8ee 	bl	8004ae2 <HAL_I2C_Init>
 8002906:	b108      	cbz	r0, 800290c <MX_I2C1_Init+0x30>
 8002908:	f000 f988 	bl	8002c1c <Error_Handler>
 800290c:	2100      	movs	r1, #0
 800290e:	4808      	ldr	r0, [pc, #32]	; (8002930 <MX_I2C1_Init+0x54>)
 8002910:	f002 fc1e 	bl	8005150 <HAL_I2CEx_ConfigAnalogFilter>
 8002914:	b108      	cbz	r0, 800291a <MX_I2C1_Init+0x3e>
 8002916:	f000 f981 	bl	8002c1c <Error_Handler>
 800291a:	2100      	movs	r1, #0
 800291c:	4804      	ldr	r0, [pc, #16]	; (8002930 <MX_I2C1_Init+0x54>)
 800291e:	f002 fc3d 	bl	800519c <HAL_I2CEx_ConfigDigitalFilter>
 8002922:	b118      	cbz	r0, 800292c <MX_I2C1_Init+0x50>
 8002924:	e8bd 4008 	ldmia.w	sp!, {r3, lr}
 8002928:	f000 b978 	b.w	8002c1c <Error_Handler>
 800292c:	bd08      	pop	{r3, pc}
 800292e:	bf00      	nop
 8002930:	2400072c 	.word	0x2400072c
 8002934:	40005400 	.word	0x40005400

08002938 <HAL_I2C_MspInit>:
 8002938:	b510      	push	{r4, lr}
 800293a:	b0b8      	sub	sp, #224	; 0xe0
 800293c:	4604      	mov	r4, r0
 800293e:	2214      	movs	r2, #20
 8002940:	2100      	movs	r1, #0
 8002942:	a803      	add	r0, sp, #12
 8002944:	f004 fe96 	bl	8007674 <memset>
 8002948:	22c0      	movs	r2, #192	; 0xc0
 800294a:	2100      	movs	r1, #0
 800294c:	a808      	add	r0, sp, #32
 800294e:	f004 fe91 	bl	8007674 <memset>
 8002952:	6822      	ldr	r2, [r4, #0]
 8002954:	4b1b      	ldr	r3, [pc, #108]	; (80029c4 <HAL_I2C_MspInit+0x8c>)
 8002956:	429a      	cmp	r2, r3
 8002958:	d131      	bne.n	80029be <HAL_I2C_MspInit+0x86>
 800295a:	2208      	movs	r2, #8
 800295c:	2300      	movs	r3, #0
 800295e:	a808      	add	r0, sp, #32
 8002960:	e9cd 2308 	strd	r2, r3, [sp, #32]
 8002964:	f003 fa16 	bl	8005d94 <HAL_RCCEx_PeriphCLKConfig>
 8002968:	b108      	cbz	r0, 800296e <HAL_I2C_MspInit+0x36>
 800296a:	f000 f957 	bl	8002c1c <Error_Handler>
 800296e:	4c16      	ldr	r4, [pc, #88]	; (80029c8 <HAL_I2C_MspInit+0x90>)
 8002970:	f44f 7240 	mov.w	r2, #768	; 0x300
 8002974:	2101      	movs	r1, #1
 8002976:	4815      	ldr	r0, [pc, #84]	; (80029cc <HAL_I2C_MspInit+0x94>)
 8002978:	f8d4 30e0 	ldr.w	r3, [r4, #224]	; 0xe0
 800297c:	f043 0302 	orr.w	r3, r3, #2
 8002980:	f8c4 30e0 	str.w	r3, [r4, #224]	; 0xe0
 8002984:	f8d4 30e0 	ldr.w	r3, [r4, #224]	; 0xe0
 8002988:	f003 0302 	and.w	r3, r3, #2
 800298c:	9301      	str	r3, [sp, #4]
 800298e:	9b01      	ldr	r3, [sp, #4]
 8002990:	2312      	movs	r3, #18
 8002992:	e9cd 2303 	strd	r2, r3, [sp, #12]
 8002996:	2300      	movs	r3, #0
 8002998:	e9cd 1305 	strd	r1, r3, [sp, #20]
 800299c:	2304      	movs	r3, #4
 800299e:	a903      	add	r1, sp, #12
 80029a0:	9307      	str	r3, [sp, #28]
 80029a2:	f001 fe2b 	bl	80045fc <HAL_GPIO_Init>
 80029a6:	f8d4 30e8 	ldr.w	r3, [r4, #232]	; 0xe8
 80029aa:	f443 1300 	orr.w	r3, r3, #2097152	; 0x200000
 80029ae:	f8c4 30e8 	str.w	r3, [r4, #232]	; 0xe8
 80029b2:	f8d4 30e8 	ldr.w	r3, [r4, #232]	; 0xe8
 80029b6:	f403 1300 	and.w	r3, r3, #2097152	; 0x200000
 80029ba:	9302      	str	r3, [sp, #8]
 80029bc:	9b02      	ldr	r3, [sp, #8]
 80029be:	b038      	add	sp, #224	; 0xe0
 80029c0:	bd10      	pop	{r4, pc}
 80029c2:	bf00      	nop
 80029c4:	40005400 	.word	0x40005400
 80029c8:	58024400 	.word	0x58024400
 80029cc:	58020400 	.word	0x58020400

080029d0 <SystemClock_Config>:
 80029d0:	b510      	push	{r4, lr}
 80029d2:	b09c      	sub	sp, #112	; 0x70
 80029d4:	224c      	movs	r2, #76	; 0x4c
 80029d6:	2100      	movs	r1, #0
 80029d8:	a809      	add	r0, sp, #36	; 0x24
 80029da:	f004 fe4b 	bl	8007674 <memset>
 80029de:	2220      	movs	r2, #32
 80029e0:	2100      	movs	r1, #0
 80029e2:	a801      	add	r0, sp, #4
 80029e4:	f004 fe46 	bl	8007674 <memset>
 80029e8:	2002      	movs	r0, #2
 80029ea:	f002 fbfd 	bl	80051e8 <HAL_PWREx_ConfigSupply>
 80029ee:	2300      	movs	r3, #0
 80029f0:	9300      	str	r3, [sp, #0]
 80029f2:	4b25      	ldr	r3, [pc, #148]	; (8002a88 <SystemClock_Config+0xb8>)
 80029f4:	6ada      	ldr	r2, [r3, #44]	; 0x2c
 80029f6:	f022 0201 	bic.w	r2, r2, #1
 80029fa:	62da      	str	r2, [r3, #44]	; 0x2c
 80029fc:	6adb      	ldr	r3, [r3, #44]	; 0x2c
 80029fe:	f003 0301 	and.w	r3, r3, #1
 8002a02:	9300      	str	r3, [sp, #0]
 8002a04:	4b21      	ldr	r3, [pc, #132]	; (8002a8c <SystemClock_Config+0xbc>)
 8002a06:	699a      	ldr	r2, [r3, #24]
 8002a08:	f442 4240 	orr.w	r2, r2, #49152	; 0xc000
 8002a0c:	619a      	str	r2, [r3, #24]
 8002a0e:	699a      	ldr	r2, [r3, #24]
 8002a10:	f402 4240 	and.w	r2, r2, #49152	; 0xc000
 8002a14:	9200      	str	r2, [sp, #0]
 8002a16:	9a00      	ldr	r2, [sp, #0]
 8002a18:	699a      	ldr	r2, [r3, #24]
 8002a1a:	0494      	lsls	r4, r2, #18
 8002a1c:	d5fc      	bpl.n	8002a18 <SystemClock_Config+0x48>
 8002a1e:	f44f 3380 	mov.w	r3, #65536	; 0x10000
 8002a22:	2121      	movs	r1, #33	; 0x21
 8002a24:	2220      	movs	r2, #32
 8002a26:	200c      	movs	r0, #12
 8002a28:	2401      	movs	r4, #1
 8002a2a:	e9cd 1309 	strd	r1, r3, [sp, #36]	; 0x24
 8002a2e:	2302      	movs	r3, #2
 8002a30:	940f      	str	r4, [sp, #60]	; 0x3c
 8002a32:	e9cd 3312 	strd	r3, r3, [sp, #72]	; 0x48
 8002a36:	9314      	str	r3, [sp, #80]	; 0x50
 8002a38:	e9cd 2315 	strd	r2, r3, [sp, #84]	; 0x54
 8002a3c:	e9cd 3317 	strd	r3, r3, [sp, #92]	; 0x5c
 8002a40:	2300      	movs	r3, #0
 8002a42:	e9cd 0319 	strd	r0, r3, [sp, #100]	; 0x64
 8002a46:	a809      	add	r0, sp, #36	; 0x24
 8002a48:	931b      	str	r3, [sp, #108]	; 0x6c
 8002a4a:	f002 fbf1 	bl	8005230 <HAL_RCC_OscConfig>
 8002a4e:	b108      	cbz	r0, 8002a54 <SystemClock_Config+0x84>
 8002a50:	b672      	cpsid	i
 8002a52:	e7fe      	b.n	8002a52 <SystemClock_Config+0x82>
 8002a54:	2303      	movs	r3, #3
 8002a56:	223f      	movs	r2, #63	; 0x3f
 8002a58:	9003      	str	r0, [sp, #12]
 8002a5a:	4621      	mov	r1, r4
 8002a5c:	9008      	str	r0, [sp, #32]
 8002a5e:	e9cd 2301 	strd	r2, r3, [sp, #4]
 8002a62:	2308      	movs	r3, #8
 8002a64:	e9cd 0006 	strd	r0, r0, [sp, #24]
 8002a68:	e9cd 3004 	strd	r3, r0, [sp, #16]
 8002a6c:	a801      	add	r0, sp, #4
 8002a6e:	f002 ff7b 	bl	8005968 <HAL_RCC_ClockConfig>
 8002a72:	b108      	cbz	r0, 8002a78 <SystemClock_Config+0xa8>
 8002a74:	b672      	cpsid	i
 8002a76:	e7fe      	b.n	8002a76 <SystemClock_Config+0xa6>
 8002a78:	f44f 1280 	mov.w	r2, #1048576	; 0x100000
 8002a7c:	f04f 7180 	mov.w	r1, #16777216	; 0x1000000
 8002a80:	f002 fe82 	bl	8005788 <HAL_RCC_MCOConfig>
 8002a84:	b01c      	add	sp, #112	; 0x70
 8002a86:	bd10      	pop	{r4, pc}
 8002a88:	58000400 	.word	0x58000400
 8002a8c:	58024800 	.word	0x58024800

08002a90 <main>:
 8002a90:	b580      	push	{r7, lr}
 8002a92:	b088      	sub	sp, #32
 8002a94:	2610      	movs	r6, #16
 8002a96:	4d40      	ldr	r5, [pc, #256]	; (8002b98 <main+0x108>)
 8002a98:	f000 fae0 	bl	800305c <HAL_Init>
 8002a9c:	ac03      	add	r4, sp, #12
 8002a9e:	f7ff ff97 	bl	80029d0 <SystemClock_Config>
 8002aa2:	f7ff fe53 	bl	800274c <MX_GPIO_Init>
 8002aa6:	f8df 8124 	ldr.w	r8, [pc, #292]	; 8002bcc <main+0x13c>
 8002aaa:	f7ff fe33 	bl	8002714 <MX_DMA_Init>
 8002aae:	f8df 9120 	ldr.w	r9, [pc, #288]	; 8002bd0 <main+0x140>
 8002ab2:	f7ff fd4f 	bl	8002554 <MX_DCMI_Init>
 8002ab6:	f8df a11c 	ldr.w	sl, [pc, #284]	; 8002bd4 <main+0x144>
 8002aba:	f7ff ff0f 	bl	80028dc <MX_I2C1_Init>
 8002abe:	f000 f8af 	bl	8002c20 <MX_SPI4_Init>
 8002ac2:	f000 fa1d 	bl	8002f00 <MX_TIM1_Init>
 8002ac6:	f7fe fd6b 	bl	80015a0 <LCD_Test>
 8002aca:	4934      	ldr	r1, [pc, #208]	; (8002b9c <main+0x10c>)
 8002acc:	4620      	mov	r0, r4
 8002ace:	f004 fe05 	bl	80076dc <strcpy>
 8002ad2:	4633      	mov	r3, r6
 8002ad4:	882a      	ldrh	r2, [r5, #0]
 8002ad6:	213a      	movs	r1, #58	; 0x3a
 8002ad8:	2000      	movs	r0, #0
 8002ada:	9600      	str	r6, [sp, #0]
 8002adc:	9401      	str	r4, [sp, #4]
 8002ade:	f7fe fd33 	bl	8001548 <LCD_ShowString>
 8002ae2:	2109      	movs	r1, #9
 8002ae4:	482e      	ldr	r0, [pc, #184]	; (8002ba0 <main+0x110>)
 8002ae6:	f7fd fce5 	bl	80004b4 <Camera_Init_Device>
 8002aea:	2100      	movs	r1, #0
 8002aec:	4b2d      	ldr	r3, [pc, #180]	; (8002ba4 <main+0x114>)
 8002aee:	223a      	movs	r2, #58	; 0x3a
 8002af0:	482d      	ldr	r0, [pc, #180]	; (8002ba8 <main+0x118>)
 8002af2:	e9cd 6100 	strd	r6, r1, [sp]
 8002af6:	6b9e      	ldr	r6, [r3, #56]	; 0x38
 8002af8:	682b      	ldr	r3, [r5, #0]
 8002afa:	47b0      	blx	r6
 8002afc:	f44f 5100 	mov.w	r1, #8192	; 0x2000
 8002b00:	4640      	mov	r0, r8
 8002b02:	f001 fe65 	bl	80047d0 <HAL_GPIO_ReadPin>
 8002b06:	4606      	mov	r6, r0
 8002b08:	b158      	cbz	r0, 8002b22 <main+0x92>
 8002b0a:	4e28      	ldr	r6, [pc, #160]	; (8002bac <main+0x11c>)
 8002b0c:	f44f 53c8 	mov.w	r3, #6400	; 0x1900
 8002b10:	4f27      	ldr	r7, [pc, #156]	; (8002bb0 <main+0x120>)
 8002b12:	2100      	movs	r1, #0
 8002b14:	4a27      	ldr	r2, [pc, #156]	; (8002bb4 <main+0x124>)
 8002b16:	4828      	ldr	r0, [pc, #160]	; (8002bb8 <main+0x128>)
 8002b18:	f000 fbec 	bl	80032f4 <HAL_DCMI_Start_DMA>
 8002b1c:	6833      	ldr	r3, [r6, #0]
 8002b1e:	b9e3      	cbnz	r3, 8002b5a <main+0xca>
 8002b20:	e7fe      	b.n	8002b20 <main+0x90>
 8002b22:	270c      	movs	r7, #12
 8002b24:	f8b9 200e 	ldrh.w	r2, [r9, #14]
 8002b28:	4651      	mov	r1, sl
 8002b2a:	4620      	mov	r0, r4
 8002b2c:	f004 fd82 	bl	8007634 <siprintf>
 8002b30:	882a      	ldrh	r2, [r5, #0]
 8002b32:	2310      	movs	r3, #16
 8002b34:	4630      	mov	r0, r6
 8002b36:	213a      	movs	r1, #58	; 0x3a
 8002b38:	9401      	str	r4, [sp, #4]
 8002b3a:	9700      	str	r7, [sp, #0]
 8002b3c:	f7fe fd04 	bl	8001548 <LCD_ShowString>
 8002b40:	491e      	ldr	r1, [pc, #120]	; (8002bbc <main+0x12c>)
 8002b42:	4620      	mov	r0, r4
 8002b44:	f004 fdca 	bl	80076dc <strcpy>
 8002b48:	2310      	movs	r3, #16
 8002b4a:	882a      	ldrh	r2, [r5, #0]
 8002b4c:	213a      	movs	r1, #58	; 0x3a
 8002b4e:	4630      	mov	r0, r6
 8002b50:	e9cd 7400 	strd	r7, r4, [sp]
 8002b54:	f7fe fcf8 	bl	8001548 <LCD_ShowString>
 8002b58:	e7d0      	b.n	8002afc <main+0x6c>
 8002b5a:	2200      	movs	r2, #0
 8002b5c:	2350      	movs	r3, #80	; 0x50
 8002b5e:	4812      	ldr	r0, [pc, #72]	; (8002ba8 <main+0x118>)
 8002b60:	6032      	str	r2, [r6, #0]
 8002b62:	4611      	mov	r1, r2
 8002b64:	9301      	str	r3, [sp, #4]
 8002b66:	682b      	ldr	r3, [r5, #0]
 8002b68:	9300      	str	r3, [sp, #0]
 8002b6a:	463b      	mov	r3, r7
 8002b6c:	f7ff f8be 	bl	8001cec <ST7735_FillRGBRect>
 8002b70:	4b13      	ldr	r3, [pc, #76]	; (8002bc0 <main+0x130>)
 8002b72:	4914      	ldr	r1, [pc, #80]	; (8002bc4 <main+0x134>)
 8002b74:	4620      	mov	r0, r4
 8002b76:	681a      	ldr	r2, [r3, #0]
 8002b78:	f004 fd5c 	bl	8007634 <siprintf>
 8002b7c:	2105      	movs	r1, #5
 8002b7e:	230c      	movs	r3, #12
 8002b80:	223c      	movs	r2, #60	; 0x3c
 8002b82:	4608      	mov	r0, r1
 8002b84:	9401      	str	r4, [sp, #4]
 8002b86:	9300      	str	r3, [sp, #0]
 8002b88:	2310      	movs	r3, #16
 8002b8a:	f7fe fcdd 	bl	8001548 <LCD_ShowString>
 8002b8e:	2108      	movs	r1, #8
 8002b90:	480d      	ldr	r0, [pc, #52]	; (8002bc8 <main+0x138>)
 8002b92:	f001 fe28 	bl	80047e6 <HAL_GPIO_TogglePin>
 8002b96:	e7c1      	b.n	8002b1c <main+0x8c>
 8002b98:	24000154 	.word	0x24000154
 8002b9c:	0800f65c 	.word	0x0800f65c
 8002ba0:	2400072c 	.word	0x2400072c
 8002ba4:	24000028 	.word	0x24000028
 8002ba8:	24000118 	.word	0x24000118
 8002bac:	24000784 	.word	0x24000784
 8002bb0:	2400208c 	.word	0x2400208c
 8002bb4:	2400078c 	.word	0x2400078c
 8002bb8:	24000664 	.word	0x24000664
 8002bbc:	0800f67f 	.word	0x0800f67f
 8002bc0:	24000780 	.word	0x24000780
 8002bc4:	0800f693 	.word	0x0800f693
 8002bc8:	58021000 	.word	0x58021000
 8002bcc:	58020800 	.word	0x58020800
 8002bd0:	240000f0 	.word	0x240000f0
 8002bd4:	0800f66d 	.word	0x0800f66d

08002bd8 <HAL_DCMI_FrameEventCallback>:
 8002bd8:	b538      	push	{r3, r4, r5, lr}
 8002bda:	4d0c      	ldr	r5, [pc, #48]	; (8002c0c <HAL_DCMI_FrameEventCallback+0x34>)
 8002bdc:	f000 fa78 	bl	80030d0 <HAL_GetTick>
 8002be0:	4c0b      	ldr	r4, [pc, #44]	; (8002c10 <HAL_DCMI_FrameEventCallback+0x38>)
 8002be2:	682b      	ldr	r3, [r5, #0]
 8002be4:	1ac0      	subs	r0, r0, r3
 8002be6:	f5b0 7f7a 	cmp.w	r0, #1000	; 0x3e8
 8002bea:	d307      	bcc.n	8002bfc <HAL_DCMI_FrameEventCallback+0x24>
 8002bec:	f000 fa70 	bl	80030d0 <HAL_GetTick>
 8002bf0:	6822      	ldr	r2, [r4, #0]
 8002bf2:	4b08      	ldr	r3, [pc, #32]	; (8002c14 <HAL_DCMI_FrameEventCallback+0x3c>)
 8002bf4:	6028      	str	r0, [r5, #0]
 8002bf6:	601a      	str	r2, [r3, #0]
 8002bf8:	2300      	movs	r3, #0
 8002bfa:	6023      	str	r3, [r4, #0]
 8002bfc:	6823      	ldr	r3, [r4, #0]
 8002bfe:	2201      	movs	r2, #1
 8002c00:	3301      	adds	r3, #1
 8002c02:	6023      	str	r3, [r4, #0]
 8002c04:	4b04      	ldr	r3, [pc, #16]	; (8002c18 <HAL_DCMI_FrameEventCallback+0x40>)
 8002c06:	601a      	str	r2, [r3, #0]
 8002c08:	bd38      	pop	{r3, r4, r5, pc}
 8002c0a:	bf00      	nop
 8002c0c:	24006b8c 	.word	0x24006b8c
 8002c10:	24000788 	.word	0x24000788
 8002c14:	24000780 	.word	0x24000780
 8002c18:	24000784 	.word	0x24000784

08002c1c <Error_Handler>:
 8002c1c:	b672      	cpsid	i
 8002c1e:	e7fe      	b.n	8002c1e <Error_Handler+0x2>

08002c20 <MX_SPI4_Init>:
 8002c20:	b508      	push	{r3, lr}
 8002c22:	4816      	ldr	r0, [pc, #88]	; (8002c7c <MX_SPI4_Init+0x5c>)
 8002c24:	f44f 0380 	mov.w	r3, #4194304	; 0x400000
 8002c28:	4a15      	ldr	r2, [pc, #84]	; (8002c80 <MX_SPI4_Init+0x60>)
 8002c2a:	f44f 21c0 	mov.w	r1, #393216	; 0x60000
 8002c2e:	f04f 6c80 	mov.w	ip, #67108864	; 0x4000000
 8002c32:	e9c0 2300 	strd	r2, r3, [r0]
 8002c36:	2307      	movs	r3, #7
 8002c38:	f04f 5200 	mov.w	r2, #536870912	; 0x20000000
 8002c3c:	e9c0 1302 	strd	r1, r3, [r0, #8]
 8002c40:	e9c0 c206 	strd	ip, r2, [r0, #24]
 8002c44:	2300      	movs	r3, #0
 8002c46:	f04f 4280 	mov.w	r2, #1073741824	; 0x40000000
 8002c4a:	e9c0 3304 	strd	r3, r3, [r0, #16]
 8002c4e:	e9c0 3308 	strd	r3, r3, [r0, #32]
 8002c52:	e9c0 330a 	strd	r3, r3, [r0, #40]	; 0x28
 8002c56:	e9c0 230d 	strd	r2, r3, [r0, #52]	; 0x34
 8002c5a:	e9c0 330f 	strd	r3, r3, [r0, #60]	; 0x3c
 8002c5e:	e9c0 3311 	strd	r3, r3, [r0, #68]	; 0x44
 8002c62:	e9c0 3313 	strd	r3, r3, [r0, #76]	; 0x4c
 8002c66:	e9c0 3315 	strd	r3, r3, [r0, #84]	; 0x54
 8002c6a:	f003 fdfd 	bl	8006868 <HAL_SPI_Init>
 8002c6e:	b118      	cbz	r0, 8002c78 <MX_SPI4_Init+0x58>
 8002c70:	e8bd 4008 	ldmia.w	sp!, {r3, lr}
 8002c74:	f7ff bfd2 	b.w	8002c1c <Error_Handler>
 8002c78:	bd08      	pop	{r3, pc}
 8002c7a:	bf00      	nop
 8002c7c:	24006b90 	.word	0x24006b90
 8002c80:	40013400 	.word	0x40013400

08002c84 <HAL_SPI_MspInit>:
 8002c84:	b510      	push	{r4, lr}
 8002c86:	b0b8      	sub	sp, #224	; 0xe0
 8002c88:	4604      	mov	r4, r0
 8002c8a:	2214      	movs	r2, #20
 8002c8c:	2100      	movs	r1, #0
 8002c8e:	a803      	add	r0, sp, #12
 8002c90:	f004 fcf0 	bl	8007674 <memset>
 8002c94:	22c0      	movs	r2, #192	; 0xc0
 8002c96:	2100      	movs	r1, #0
 8002c98:	a808      	add	r0, sp, #32
 8002c9a:	f004 fceb 	bl	8007674 <memset>
 8002c9e:	6822      	ldr	r2, [r4, #0]
 8002ca0:	4b1b      	ldr	r3, [pc, #108]	; (8002d10 <HAL_SPI_MspInit+0x8c>)
 8002ca2:	429a      	cmp	r2, r3
 8002ca4:	d131      	bne.n	8002d0a <HAL_SPI_MspInit+0x86>
 8002ca6:	f44f 5200 	mov.w	r2, #8192	; 0x2000
 8002caa:	2300      	movs	r3, #0
 8002cac:	a808      	add	r0, sp, #32
 8002cae:	e9cd 2308 	strd	r2, r3, [sp, #32]
 8002cb2:	f003 f86f 	bl	8005d94 <HAL_RCCEx_PeriphCLKConfig>
 8002cb6:	b108      	cbz	r0, 8002cbc <HAL_SPI_MspInit+0x38>
 8002cb8:	f7ff ffb0 	bl	8002c1c <Error_Handler>
 8002cbc:	4b15      	ldr	r3, [pc, #84]	; (8002d14 <HAL_SPI_MspInit+0x90>)
 8002cbe:	a903      	add	r1, sp, #12
 8002cc0:	4815      	ldr	r0, [pc, #84]	; (8002d18 <HAL_SPI_MspInit+0x94>)
 8002cc2:	f8d3 20f0 	ldr.w	r2, [r3, #240]	; 0xf0
 8002cc6:	f442 5200 	orr.w	r2, r2, #8192	; 0x2000
 8002cca:	f8c3 20f0 	str.w	r2, [r3, #240]	; 0xf0
 8002cce:	f8d3 20f0 	ldr.w	r2, [r3, #240]	; 0xf0
 8002cd2:	f402 5200 	and.w	r2, r2, #8192	; 0x2000
 8002cd6:	9201      	str	r2, [sp, #4]
 8002cd8:	9a01      	ldr	r2, [sp, #4]
 8002cda:	f8d3 20e0 	ldr.w	r2, [r3, #224]	; 0xe0
 8002cde:	f042 0210 	orr.w	r2, r2, #16
 8002ce2:	f8c3 20e0 	str.w	r2, [r3, #224]	; 0xe0
 8002ce6:	f44f 42a0 	mov.w	r2, #20480	; 0x5000
 8002cea:	f8d3 30e0 	ldr.w	r3, [r3, #224]	; 0xe0
 8002cee:	f003 0310 	and.w	r3, r3, #16
 8002cf2:	9302      	str	r3, [sp, #8]
 8002cf4:	9b02      	ldr	r3, [sp, #8]
 8002cf6:	2302      	movs	r3, #2
 8002cf8:	e9cd 2303 	strd	r2, r3, [sp, #12]
 8002cfc:	2200      	movs	r2, #0
 8002cfe:	e9cd 2305 	strd	r2, r3, [sp, #20]
 8002d02:	2305      	movs	r3, #5
 8002d04:	9307      	str	r3, [sp, #28]
 8002d06:	f001 fc79 	bl	80045fc <HAL_GPIO_Init>
 8002d0a:	b038      	add	sp, #224	; 0xe0
 8002d0c:	bd10      	pop	{r4, pc}
 8002d0e:	bf00      	nop
 8002d10:	40013400 	.word	0x40013400
 8002d14:	58024400 	.word	0x58024400
 8002d18:	58021000 	.word	0x58021000

08002d1c <HAL_MspInit>:
 8002d1c:	4b07      	ldr	r3, [pc, #28]	; (8002d3c <HAL_MspInit+0x20>)
 8002d1e:	b082      	sub	sp, #8
 8002d20:	f8d3 20f4 	ldr.w	r2, [r3, #244]	; 0xf4
 8002d24:	f042 0202 	orr.w	r2, r2, #2
 8002d28:	f8c3 20f4 	str.w	r2, [r3, #244]	; 0xf4
 8002d2c:	f8d3 30f4 	ldr.w	r3, [r3, #244]	; 0xf4
 8002d30:	f003 0302 	and.w	r3, r3, #2
 8002d34:	9301      	str	r3, [sp, #4]
 8002d36:	9b01      	ldr	r3, [sp, #4]
 8002d38:	b002      	add	sp, #8
 8002d3a:	4770      	bx	lr
 8002d3c:	58024400 	.word	0x58024400

08002d40 <NMI_Handler>:
 8002d40:	e7fe      	b.n	8002d40 <NMI_Handler>

08002d42 <HardFault_Handler>:
 8002d42:	e7fe      	b.n	8002d42 <HardFault_Handler>

08002d44 <MemManage_Handler>:
 8002d44:	e7fe      	b.n	8002d44 <MemManage_Handler>

08002d46 <BusFault_Handler>:
 8002d46:	e7fe      	b.n	8002d46 <BusFault_Handler>

08002d48 <UsageFault_Handler>:
 8002d48:	e7fe      	b.n	8002d48 <UsageFault_Handler>

08002d4a <SVC_Handler>:
 8002d4a:	4770      	bx	lr

08002d4c <DebugMon_Handler>:
 8002d4c:	4770      	bx	lr

08002d4e <PendSV_Handler>:
 8002d4e:	4770      	bx	lr

08002d50 <SysTick_Handler>:
 8002d50:	f000 b9b2 	b.w	80030b8 <HAL_IncTick>

08002d54 <DMA1_Stream0_IRQHandler>:
 8002d54:	4801      	ldr	r0, [pc, #4]	; (8002d5c <DMA1_Stream0_IRQHandler+0x8>)
 8002d56:	f001 b877 	b.w	8003e48 <HAL_DMA_IRQHandler>
 8002d5a:	bf00      	nop
 8002d5c:	240006b4 	.word	0x240006b4

08002d60 <DCMI_IRQHandler>:
 8002d60:	4801      	ldr	r0, [pc, #4]	; (8002d68 <DCMI_IRQHandler+0x8>)
 8002d62:	f000 bb4b 	b.w	80033fc <HAL_DCMI_IRQHandler>
 8002d66:	bf00      	nop
 8002d68:	24000664 	.word	0x24000664

08002d6c <TIM16_IRQHandler>:
 8002d6c:	4801      	ldr	r0, [pc, #4]	; (8002d74 <TIM16_IRQHandler+0x8>)
 8002d6e:	f004 b955 	b.w	800701c <HAL_TIM_IRQHandler>
 8002d72:	bf00      	nop
 8002d74:	24006c68 	.word	0x24006c68

08002d78 <_sbrk>:
 8002d78:	4a0b      	ldr	r2, [pc, #44]	; (8002da8 <_sbrk+0x30>)
 8002d7a:	4603      	mov	r3, r0
 8002d7c:	6811      	ldr	r1, [r2, #0]
 8002d7e:	b510      	push	{r4, lr}
 8002d80:	b909      	cbnz	r1, 8002d86 <_sbrk+0xe>
 8002d82:	490a      	ldr	r1, [pc, #40]	; (8002dac <_sbrk+0x34>)
 8002d84:	6011      	str	r1, [r2, #0]
 8002d86:	6810      	ldr	r0, [r2, #0]
 8002d88:	4909      	ldr	r1, [pc, #36]	; (8002db0 <_sbrk+0x38>)
 8002d8a:	4c0a      	ldr	r4, [pc, #40]	; (8002db4 <_sbrk+0x3c>)
 8002d8c:	4403      	add	r3, r0
 8002d8e:	1b09      	subs	r1, r1, r4
 8002d90:	428b      	cmp	r3, r1
 8002d92:	d906      	bls.n	8002da2 <_sbrk+0x2a>
 8002d94:	f004 fc76 	bl	8007684 <__errno>
 8002d98:	230c      	movs	r3, #12
 8002d9a:	6003      	str	r3, [r0, #0]
 8002d9c:	f04f 30ff 	mov.w	r0, #4294967295
 8002da0:	bd10      	pop	{r4, pc}
 8002da2:	6013      	str	r3, [r2, #0]
 8002da4:	e7fc      	b.n	8002da0 <_sbrk+0x28>
 8002da6:	bf00      	nop
 8002da8:	24006c18 	.word	0x24006c18
 8002dac:	24006e00 	.word	0x24006e00
 8002db0:	24080000 	.word	0x24080000
 8002db4:	00000400 	.word	0x00000400

08002db8 <SystemInit>:
 8002db8:	4a25      	ldr	r2, [pc, #148]	; (8002e50 <SystemInit+0x98>)
 8002dba:	f8d2 3088 	ldr.w	r3, [r2, #136]	; 0x88
 8002dbe:	f443 0370 	orr.w	r3, r3, #15728640	; 0xf00000
 8002dc2:	f8c2 3088 	str.w	r3, [r2, #136]	; 0x88
 8002dc6:	4a23      	ldr	r2, [pc, #140]	; (8002e54 <SystemInit+0x9c>)
 8002dc8:	6813      	ldr	r3, [r2, #0]
 8002dca:	f003 030f 	and.w	r3, r3, #15
 8002dce:	2b06      	cmp	r3, #6
 8002dd0:	d805      	bhi.n	8002dde <SystemInit+0x26>
 8002dd2:	6813      	ldr	r3, [r2, #0]
 8002dd4:	f023 030f 	bic.w	r3, r3, #15
 8002dd8:	f043 0307 	orr.w	r3, r3, #7
 8002ddc:	6013      	str	r3, [r2, #0]
 8002dde:	4b1e      	ldr	r3, [pc, #120]	; (8002e58 <SystemInit+0xa0>)
 8002de0:	681a      	ldr	r2, [r3, #0]
 8002de2:	f042 0201 	orr.w	r2, r2, #1
 8002de6:	601a      	str	r2, [r3, #0]
 8002de8:	2200      	movs	r2, #0
 8002dea:	611a      	str	r2, [r3, #16]
 8002dec:	4a1b      	ldr	r2, [pc, #108]	; (8002e5c <SystemInit+0xa4>)
 8002dee:	6819      	ldr	r1, [r3, #0]
 8002df0:	400a      	ands	r2, r1
 8002df2:	4918      	ldr	r1, [pc, #96]	; (8002e54 <SystemInit+0x9c>)
 8002df4:	601a      	str	r2, [r3, #0]
 8002df6:	680a      	ldr	r2, [r1, #0]
 8002df8:	0712      	lsls	r2, r2, #28
 8002dfa:	d505      	bpl.n	8002e08 <SystemInit+0x50>
 8002dfc:	680a      	ldr	r2, [r1, #0]
 8002dfe:	f022 020f 	bic.w	r2, r2, #15
 8002e02:	f042 0207 	orr.w	r2, r2, #7
 8002e06:	600a      	str	r2, [r1, #0]
 8002e08:	2200      	movs	r2, #0
 8002e0a:	4915      	ldr	r1, [pc, #84]	; (8002e60 <SystemInit+0xa8>)
 8002e0c:	619a      	str	r2, [r3, #24]
 8002e0e:	61da      	str	r2, [r3, #28]
 8002e10:	621a      	str	r2, [r3, #32]
 8002e12:	6299      	str	r1, [r3, #40]	; 0x28
 8002e14:	4913      	ldr	r1, [pc, #76]	; (8002e64 <SystemInit+0xac>)
 8002e16:	62d9      	str	r1, [r3, #44]	; 0x2c
 8002e18:	4913      	ldr	r1, [pc, #76]	; (8002e68 <SystemInit+0xb0>)
 8002e1a:	6319      	str	r1, [r3, #48]	; 0x30
 8002e1c:	635a      	str	r2, [r3, #52]	; 0x34
 8002e1e:	6399      	str	r1, [r3, #56]	; 0x38
 8002e20:	63da      	str	r2, [r3, #60]	; 0x3c
 8002e22:	6419      	str	r1, [r3, #64]	; 0x40
 8002e24:	645a      	str	r2, [r3, #68]	; 0x44
 8002e26:	6819      	ldr	r1, [r3, #0]
 8002e28:	f421 2180 	bic.w	r1, r1, #262144	; 0x40000
 8002e2c:	6019      	str	r1, [r3, #0]
 8002e2e:	661a      	str	r2, [r3, #96]	; 0x60
 8002e30:	4b0e      	ldr	r3, [pc, #56]	; (8002e6c <SystemInit+0xb4>)
 8002e32:	681b      	ldr	r3, [r3, #0]
 8002e34:	0c1b      	lsrs	r3, r3, #16
 8002e36:	041b      	lsls	r3, r3, #16
 8002e38:	f1b3 5f00 	cmp.w	r3, #536870912	; 0x20000000
 8002e3c:	d203      	bcs.n	8002e46 <SystemInit+0x8e>
 8002e3e:	4b0c      	ldr	r3, [pc, #48]	; (8002e70 <SystemInit+0xb8>)
 8002e40:	2201      	movs	r2, #1
 8002e42:	f8c3 2108 	str.w	r2, [r3, #264]	; 0x108
 8002e46:	4b0b      	ldr	r3, [pc, #44]	; (8002e74 <SystemInit+0xbc>)
 8002e48:	f243 02d2 	movw	r2, #12498	; 0x30d2
 8002e4c:	601a      	str	r2, [r3, #0]
 8002e4e:	4770      	bx	lr
 8002e50:	e000ed00 	.word	0xe000ed00
 8002e54:	52002000 	.word	0x52002000
 8002e58:	58024400 	.word	0x58024400
 8002e5c:	eaf6ed7f 	.word	0xeaf6ed7f
 8002e60:	02020200 	.word	0x02020200
 8002e64:	01ff0000 	.word	0x01ff0000
 8002e68:	01010280 	.word	0x01010280
 8002e6c:	5c001000 	.word	0x5c001000
 8002e70:	51008000 	.word	0x51008000
 8002e74:	52004000 	.word	0x52004000

08002e78 <HAL_TIM_PWM_MspInit>:
 8002e78:	6802      	ldr	r2, [r0, #0]
 8002e7a:	b082      	sub	sp, #8
 8002e7c:	4b08      	ldr	r3, [pc, #32]	; (8002ea0 <HAL_TIM_PWM_MspInit+0x28>)
 8002e7e:	429a      	cmp	r2, r3
 8002e80:	d10c      	bne.n	8002e9c <HAL_TIM_PWM_MspInit+0x24>
 8002e82:	4b08      	ldr	r3, [pc, #32]	; (8002ea4 <HAL_TIM_PWM_MspInit+0x2c>)
 8002e84:	f8d3 20f0 	ldr.w	r2, [r3, #240]	; 0xf0
 8002e88:	f042 0201 	orr.w	r2, r2, #1
 8002e8c:	f8c3 20f0 	str.w	r2, [r3, #240]	; 0xf0
 8002e90:	f8d3 30f0 	ldr.w	r3, [r3, #240]	; 0xf0
 8002e94:	f003 0301 	and.w	r3, r3, #1
 8002e98:	9301      	str	r3, [sp, #4]
 8002e9a:	9b01      	ldr	r3, [sp, #4]
 8002e9c:	b002      	add	sp, #8
 8002e9e:	4770      	bx	lr
 8002ea0:	40010000 	.word	0x40010000
 8002ea4:	58024400 	.word	0x58024400

08002ea8 <HAL_TIM_MspPostInit>:
 8002ea8:	b510      	push	{r4, lr}
 8002eaa:	b086      	sub	sp, #24
 8002eac:	4604      	mov	r4, r0
 8002eae:	2214      	movs	r2, #20
 8002eb0:	2100      	movs	r1, #0
 8002eb2:	a801      	add	r0, sp, #4
 8002eb4:	f004 fbde 	bl	8007674 <memset>
 8002eb8:	6822      	ldr	r2, [r4, #0]
 8002eba:	4b0e      	ldr	r3, [pc, #56]	; (8002ef4 <HAL_TIM_MspPostInit+0x4c>)
 8002ebc:	429a      	cmp	r2, r3
 8002ebe:	d117      	bne.n	8002ef0 <HAL_TIM_MspPostInit+0x48>
 8002ec0:	4b0d      	ldr	r3, [pc, #52]	; (8002ef8 <HAL_TIM_MspPostInit+0x50>)
 8002ec2:	a901      	add	r1, sp, #4
 8002ec4:	480d      	ldr	r0, [pc, #52]	; (8002efc <HAL_TIM_MspPostInit+0x54>)
 8002ec6:	f8d3 20e0 	ldr.w	r2, [r3, #224]	; 0xe0
 8002eca:	f042 0210 	orr.w	r2, r2, #16
 8002ece:	f8c3 20e0 	str.w	r2, [r3, #224]	; 0xe0
 8002ed2:	f44f 6280 	mov.w	r2, #1024	; 0x400
 8002ed6:	f8d3 30e0 	ldr.w	r3, [r3, #224]	; 0xe0
 8002eda:	f003 0310 	and.w	r3, r3, #16
 8002ede:	9300      	str	r3, [sp, #0]
 8002ee0:	9b00      	ldr	r3, [sp, #0]
 8002ee2:	2302      	movs	r3, #2
 8002ee4:	e9cd 2301 	strd	r2, r3, [sp, #4]
 8002ee8:	2301      	movs	r3, #1
 8002eea:	9305      	str	r3, [sp, #20]
 8002eec:	f001 fb86 	bl	80045fc <HAL_GPIO_Init>
 8002ef0:	b006      	add	sp, #24
 8002ef2:	bd10      	pop	{r4, pc}
 8002ef4:	40010000 	.word	0x40010000
 8002ef8:	58024400 	.word	0x58024400
 8002efc:	58021000 	.word	0x58021000

08002f00 <MX_TIM1_Init>:
 8002f00:	b510      	push	{r4, lr}
 8002f02:	2400      	movs	r4, #0
 8002f04:	b096      	sub	sp, #88	; 0x58
 8002f06:	221c      	movs	r2, #28
 8002f08:	4621      	mov	r1, r4
 8002f0a:	a804      	add	r0, sp, #16
 8002f0c:	9403      	str	r4, [sp, #12]
 8002f0e:	e9cd 4401 	strd	r4, r4, [sp, #4]
 8002f12:	f004 fbaf 	bl	8007674 <memset>
 8002f16:	222c      	movs	r2, #44	; 0x2c
 8002f18:	4621      	mov	r1, r4
 8002f1a:	eb0d 0002 	add.w	r0, sp, r2
 8002f1e:	f004 fba9 	bl	8007674 <memset>
 8002f22:	4824      	ldr	r0, [pc, #144]	; (8002fb4 <MX_TIM1_Init+0xb4>)
 8002f24:	230b      	movs	r3, #11
 8002f26:	4a24      	ldr	r2, [pc, #144]	; (8002fb8 <MX_TIM1_Init+0xb8>)
 8002f28:	6084      	str	r4, [r0, #8]
 8002f2a:	e9c0 2300 	strd	r2, r3, [r0]
 8002f2e:	f240 33e7 	movw	r3, #999	; 0x3e7
 8002f32:	e9c0 4405 	strd	r4, r4, [r0, #20]
 8002f36:	e9c0 3403 	strd	r3, r4, [r0, #12]
 8002f3a:	f004 f985 	bl	8007248 <HAL_TIM_PWM_Init>
 8002f3e:	b108      	cbz	r0, 8002f44 <MX_TIM1_Init+0x44>
 8002f40:	f7ff fe6c 	bl	8002c1c <Error_Handler>
 8002f44:	a901      	add	r1, sp, #4
 8002f46:	481b      	ldr	r0, [pc, #108]	; (8002fb4 <MX_TIM1_Init+0xb4>)
 8002f48:	9403      	str	r4, [sp, #12]
 8002f4a:	e9cd 4401 	strd	r4, r4, [sp, #4]
 8002f4e:	f004 fadf 	bl	8007510 <HAL_TIMEx_MasterConfigSynchronization>
 8002f52:	b108      	cbz	r0, 8002f58 <MX_TIM1_Init+0x58>
 8002f54:	f7ff fe62 	bl	8002c1c <Error_Handler>
 8002f58:	2400      	movs	r4, #0
 8002f5a:	2360      	movs	r3, #96	; 0x60
 8002f5c:	2204      	movs	r2, #4
 8002f5e:	a904      	add	r1, sp, #16
 8002f60:	4814      	ldr	r0, [pc, #80]	; (8002fb4 <MX_TIM1_Init+0xb4>)
 8002f62:	9406      	str	r4, [sp, #24]
 8002f64:	e9cd 3404 	strd	r3, r4, [sp, #16]
 8002f68:	2308      	movs	r3, #8
 8002f6a:	e9cd 4409 	strd	r4, r4, [sp, #36]	; 0x24
 8002f6e:	e9cd 3407 	strd	r3, r4, [sp, #28]
 8002f72:	f004 f9df 	bl	8007334 <HAL_TIM_PWM_ConfigChannel>
 8002f76:	b108      	cbz	r0, 8002f7c <MX_TIM1_Init+0x7c>
 8002f78:	f7ff fe50 	bl	8002c1c <Error_Handler>
 8002f7c:	f44f 5300 	mov.w	r3, #8192	; 0x2000
 8002f80:	a90b      	add	r1, sp, #44	; 0x2c
 8002f82:	480c      	ldr	r0, [pc, #48]	; (8002fb4 <MX_TIM1_Init+0xb4>)
 8002f84:	940f      	str	r4, [sp, #60]	; 0x3c
 8002f86:	9412      	str	r4, [sp, #72]	; 0x48
 8002f88:	9415      	str	r4, [sp, #84]	; 0x54
 8002f8a:	e9cd 3410 	strd	r3, r4, [sp, #64]	; 0x40
 8002f8e:	f04f 7300 	mov.w	r3, #33554432	; 0x2000000
 8002f92:	e9cd 440b 	strd	r4, r4, [sp, #44]	; 0x2c
 8002f96:	e9cd 440d 	strd	r4, r4, [sp, #52]	; 0x34
 8002f9a:	e9cd 3413 	strd	r3, r4, [sp, #76]	; 0x4c
 8002f9e:	f004 fb03 	bl	80075a8 <HAL_TIMEx_ConfigBreakDeadTime>
 8002fa2:	b108      	cbz	r0, 8002fa8 <MX_TIM1_Init+0xa8>
 8002fa4:	f7ff fe3a 	bl	8002c1c <Error_Handler>
 8002fa8:	4802      	ldr	r0, [pc, #8]	; (8002fb4 <MX_TIM1_Init+0xb4>)
 8002faa:	f7ff ff7d 	bl	8002ea8 <HAL_TIM_MspPostInit>
 8002fae:	b016      	add	sp, #88	; 0x58
 8002fb0:	bd10      	pop	{r4, pc}
 8002fb2:	bf00      	nop
 8002fb4:	24006c1c 	.word	0x24006c1c
 8002fb8:	40010000 	.word	0x40010000

08002fbc <Reset_Handler>:
 8002fbc:	f8df d034 	ldr.w	sp, [pc, #52]	; 8002ff4 <LoopFillZerobss+0xe>
 8002fc0:	f7ff fefa 	bl	8002db8 <SystemInit>
 8002fc4:	480c      	ldr	r0, [pc, #48]	; (8002ff8 <LoopFillZerobss+0x12>)
 8002fc6:	490d      	ldr	r1, [pc, #52]	; (8002ffc <LoopFillZerobss+0x16>)
 8002fc8:	4a0d      	ldr	r2, [pc, #52]	; (8003000 <LoopFillZerobss+0x1a>)
 8002fca:	2300      	movs	r3, #0
 8002fcc:	e002      	b.n	8002fd4 <LoopCopyDataInit>

08002fce <CopyDataInit>:
 8002fce:	58d4      	ldr	r4, [r2, r3]
 8002fd0:	50c4      	str	r4, [r0, r3]
 8002fd2:	3304      	adds	r3, #4

08002fd4 <LoopCopyDataInit>:
 8002fd4:	18c4      	adds	r4, r0, r3
 8002fd6:	428c      	cmp	r4, r1
 8002fd8:	d3f9      	bcc.n	8002fce <CopyDataInit>
 8002fda:	4a0a      	ldr	r2, [pc, #40]	; (8003004 <LoopFillZerobss+0x1e>)
 8002fdc:	4c0a      	ldr	r4, [pc, #40]	; (8003008 <LoopFillZerobss+0x22>)
 8002fde:	2300      	movs	r3, #0
 8002fe0:	e001      	b.n	8002fe6 <LoopFillZerobss>

08002fe2 <FillZerobss>:
 8002fe2:	6013      	str	r3, [r2, #0]
 8002fe4:	3204      	adds	r2, #4

08002fe6 <LoopFillZerobss>:
 8002fe6:	42a2      	cmp	r2, r4
 8002fe8:	d3fb      	bcc.n	8002fe2 <FillZerobss>
 8002fea:	f004 fb51 	bl	8007690 <__libc_init_array>
 8002fee:	f7ff fd4f 	bl	8002a90 <main>
 8002ff2:	4770      	bx	lr
 8002ff4:	24080000 	.word	0x24080000
 8002ff8:	24000000 	.word	0x24000000
 8002ffc:	240000d4 	.word	0x240000d4
 8003000:	0800f6ec 	.word	0x0800f6ec
 8003004:	240000d4 	.word	0x240000d4
 8003008:	24006e00 	.word	0x24006e00

0800300c <ADC3_IRQHandler>:
 800300c:	e7fe      	b.n	800300c <ADC3_IRQHandler>
	...

08003010 <HAL_InitTick>:
 8003010:	b538      	push	{r3, r4, r5, lr}
 8003012:	4b0f      	ldr	r3, [pc, #60]	; (8003050 <HAL_InitTick+0x40>)
 8003014:	4605      	mov	r5, r0
 8003016:	781a      	ldrb	r2, [r3, #0]
 8003018:	b90a      	cbnz	r2, 800301e <HAL_InitTick+0xe>
 800301a:	2001      	movs	r0, #1
 800301c:	bd38      	pop	{r3, r4, r5, pc}
 800301e:	f44f 737a 	mov.w	r3, #1000	; 0x3e8
 8003022:	fbb3 f3f2 	udiv	r3, r3, r2
 8003026:	4a0b      	ldr	r2, [pc, #44]	; (8003054 <HAL_InitTick+0x44>)
 8003028:	6810      	ldr	r0, [r2, #0]
 800302a:	fbb0 f0f3 	udiv	r0, r0, r3
 800302e:	f000 f8c7 	bl	80031c0 <HAL_SYSTICK_Config>
 8003032:	4604      	mov	r4, r0
 8003034:	2800      	cmp	r0, #0
 8003036:	d1f0      	bne.n	800301a <HAL_InitTick+0xa>
 8003038:	2d0f      	cmp	r5, #15
 800303a:	d8ee      	bhi.n	800301a <HAL_InitTick+0xa>
 800303c:	4602      	mov	r2, r0
 800303e:	4629      	mov	r1, r5
 8003040:	f04f 30ff 	mov.w	r0, #4294967295
 8003044:	f000 f87c 	bl	8003140 <HAL_NVIC_SetPriority>
 8003048:	4b03      	ldr	r3, [pc, #12]	; (8003058 <HAL_InitTick+0x48>)
 800304a:	4620      	mov	r0, r4
 800304c:	601d      	str	r5, [r3, #0]
 800304e:	e7e5      	b.n	800301c <HAL_InitTick+0xc>
 8003050:	2400007c 	.word	0x2400007c
 8003054:	24000074 	.word	0x24000074
 8003058:	24000080 	.word	0x24000080

0800305c <HAL_Init>:
 800305c:	b510      	push	{r4, lr}
 800305e:	2003      	movs	r0, #3
 8003060:	f000 f85c 	bl	800311c <HAL_NVIC_SetPriorityGrouping>
 8003064:	f002 fbde 	bl	8005824 <HAL_RCC_GetSysClockFreq>
 8003068:	490f      	ldr	r1, [pc, #60]	; (80030a8 <HAL_Init+0x4c>)
 800306a:	4a10      	ldr	r2, [pc, #64]	; (80030ac <HAL_Init+0x50>)
 800306c:	698b      	ldr	r3, [r1, #24]
 800306e:	f3c3 2303 	ubfx	r3, r3, #8, #4
 8003072:	5cd3      	ldrb	r3, [r2, r3]
 8003074:	f003 031f 	and.w	r3, r3, #31
 8003078:	40d8      	lsrs	r0, r3
 800307a:	698b      	ldr	r3, [r1, #24]
 800307c:	f003 030f 	and.w	r3, r3, #15
 8003080:	5cd3      	ldrb	r3, [r2, r3]
 8003082:	4a0b      	ldr	r2, [pc, #44]	; (80030b0 <HAL_Init+0x54>)
 8003084:	f003 031f 	and.w	r3, r3, #31
 8003088:	fa20 f303 	lsr.w	r3, r0, r3
 800308c:	6013      	str	r3, [r2, #0]
 800308e:	4b09      	ldr	r3, [pc, #36]	; (80030b4 <HAL_Init+0x58>)
 8003090:	6018      	str	r0, [r3, #0]
 8003092:	2000      	movs	r0, #0
 8003094:	f7ff ffbc 	bl	8003010 <HAL_InitTick>
 8003098:	4604      	mov	r4, r0
 800309a:	b918      	cbnz	r0, 80030a4 <HAL_Init+0x48>
 800309c:	f7ff fe3e 	bl	8002d1c <HAL_MspInit>
 80030a0:	4620      	mov	r0, r4
 80030a2:	bd10      	pop	{r4, pc}
 80030a4:	2401      	movs	r4, #1
 80030a6:	e7fb      	b.n	80030a0 <HAL_Init+0x44>
 80030a8:	58024400 	.word	0x58024400
 80030ac:	0800f699 	.word	0x0800f699
 80030b0:	24000078 	.word	0x24000078
 80030b4:	24000074 	.word	0x24000074

080030b8 <HAL_IncTick>:
 80030b8:	4a03      	ldr	r2, [pc, #12]	; (80030c8 <HAL_IncTick+0x10>)
 80030ba:	4b04      	ldr	r3, [pc, #16]	; (80030cc <HAL_IncTick+0x14>)
 80030bc:	6811      	ldr	r1, [r2, #0]
 80030be:	781b      	ldrb	r3, [r3, #0]
 80030c0:	440b      	add	r3, r1
 80030c2:	6013      	str	r3, [r2, #0]
 80030c4:	4770      	bx	lr
 80030c6:	bf00      	nop
 80030c8:	24006cb4 	.word	0x24006cb4
 80030cc:	2400007c 	.word	0x2400007c

080030d0 <HAL_GetTick>:
 80030d0:	4b01      	ldr	r3, [pc, #4]	; (80030d8 <HAL_GetTick+0x8>)
 80030d2:	6818      	ldr	r0, [r3, #0]
 80030d4:	4770      	bx	lr
 80030d6:	bf00      	nop
 80030d8:	24006cb4 	.word	0x24006cb4

080030dc <HAL_Delay>:
 80030dc:	b538      	push	{r3, r4, r5, lr}
 80030de:	4604      	mov	r4, r0
 80030e0:	f7ff fff6 	bl	80030d0 <HAL_GetTick>
 80030e4:	4605      	mov	r5, r0
 80030e6:	1c63      	adds	r3, r4, #1
 80030e8:	bf1e      	ittt	ne
 80030ea:	4b04      	ldrne	r3, [pc, #16]	; (80030fc <HAL_Delay+0x20>)
 80030ec:	781b      	ldrbne	r3, [r3, #0]
 80030ee:	18e4      	addne	r4, r4, r3
 80030f0:	f7ff ffee 	bl	80030d0 <HAL_GetTick>
 80030f4:	1b43      	subs	r3, r0, r5
 80030f6:	42a3      	cmp	r3, r4
 80030f8:	d3fa      	bcc.n	80030f0 <HAL_Delay+0x14>
 80030fa:	bd38      	pop	{r3, r4, r5, pc}
 80030fc:	2400007c 	.word	0x2400007c

08003100 <HAL_GetREVID>:
 8003100:	4b01      	ldr	r3, [pc, #4]	; (8003108 <HAL_GetREVID+0x8>)
 8003102:	6818      	ldr	r0, [r3, #0]
 8003104:	0c00      	lsrs	r0, r0, #16
 8003106:	4770      	bx	lr
 8003108:	5c001000 	.word	0x5c001000

0800310c <HAL_GetDEVID>:
 800310c:	4b02      	ldr	r3, [pc, #8]	; (8003118 <HAL_GetDEVID+0xc>)
 800310e:	6818      	ldr	r0, [r3, #0]
 8003110:	f3c0 000b 	ubfx	r0, r0, #0, #12
 8003114:	4770      	bx	lr
 8003116:	bf00      	nop
 8003118:	5c001000 	.word	0x5c001000

0800311c <HAL_NVIC_SetPriorityGrouping>:
 800311c:	4907      	ldr	r1, [pc, #28]	; (800313c <HAL_NVIC_SetPriorityGrouping+0x20>)
 800311e:	0203      	lsls	r3, r0, #8
 8003120:	68ca      	ldr	r2, [r1, #12]
 8003122:	f403 63e0 	and.w	r3, r3, #1792	; 0x700
 8003126:	f422 62e0 	bic.w	r2, r2, #1792	; 0x700
 800312a:	0412      	lsls	r2, r2, #16
 800312c:	0c12      	lsrs	r2, r2, #16
 800312e:	4313      	orrs	r3, r2
 8003130:	f043 63bf 	orr.w	r3, r3, #100139008	; 0x5f80000
 8003134:	f443 3300 	orr.w	r3, r3, #131072	; 0x20000
 8003138:	60cb      	str	r3, [r1, #12]
 800313a:	4770      	bx	lr
 800313c:	e000ed00 	.word	0xe000ed00

08003140 <HAL_NVIC_SetPriority>:
 8003140:	4b16      	ldr	r3, [pc, #88]	; (800319c <HAL_NVIC_SetPriority+0x5c>)
 8003142:	b530      	push	{r4, r5, lr}
 8003144:	68dc      	ldr	r4, [r3, #12]
 8003146:	f3c4 2402 	ubfx	r4, r4, #8, #3
 800314a:	f1c4 0307 	rsb	r3, r4, #7
 800314e:	1d25      	adds	r5, r4, #4
 8003150:	2b04      	cmp	r3, #4
 8003152:	bf28      	it	cs
 8003154:	2304      	movcs	r3, #4
 8003156:	2d06      	cmp	r5, #6
 8003158:	f04f 35ff 	mov.w	r5, #4294967295
 800315c:	bf8c      	ite	hi
 800315e:	3c03      	subhi	r4, #3
 8003160:	2400      	movls	r4, #0
 8003162:	fa05 f303 	lsl.w	r3, r5, r3
 8003166:	2800      	cmp	r0, #0
 8003168:	fa05 f504 	lsl.w	r5, r5, r4
 800316c:	ea21 0303 	bic.w	r3, r1, r3
 8003170:	ea22 0205 	bic.w	r2, r2, r5
 8003174:	fa03 f304 	lsl.w	r3, r3, r4
 8003178:	ea43 0302 	orr.w	r3, r3, r2
 800317c:	ea4f 1303 	mov.w	r3, r3, lsl #4
 8003180:	b2db      	uxtb	r3, r3
 8003182:	db06      	blt.n	8003192 <HAL_NVIC_SetPriority+0x52>
 8003184:	f100 4060 	add.w	r0, r0, #3758096384	; 0xe0000000
 8003188:	f500 4061 	add.w	r0, r0, #57600	; 0xe100
 800318c:	f880 3300 	strb.w	r3, [r0, #768]	; 0x300
 8003190:	bd30      	pop	{r4, r5, pc}
 8003192:	f000 000f 	and.w	r0, r0, #15
 8003196:	4a02      	ldr	r2, [pc, #8]	; (80031a0 <HAL_NVIC_SetPriority+0x60>)
 8003198:	5413      	strb	r3, [r2, r0]
 800319a:	e7f9      	b.n	8003190 <HAL_NVIC_SetPriority+0x50>
 800319c:	e000ed00 	.word	0xe000ed00
 80031a0:	e000ed14 	.word	0xe000ed14

080031a4 <HAL_NVIC_EnableIRQ>:
 80031a4:	2800      	cmp	r0, #0
 80031a6:	db07      	blt.n	80031b8 <HAL_NVIC_EnableIRQ+0x14>
 80031a8:	2301      	movs	r3, #1
 80031aa:	0941      	lsrs	r1, r0, #5
 80031ac:	f000 001f 	and.w	r0, r0, #31
 80031b0:	4a02      	ldr	r2, [pc, #8]	; (80031bc <HAL_NVIC_EnableIRQ+0x18>)
 80031b2:	4083      	lsls	r3, r0
 80031b4:	f842 3021 	str.w	r3, [r2, r1, lsl #2]
 80031b8:	4770      	bx	lr
 80031ba:	bf00      	nop
 80031bc:	e000e100 	.word	0xe000e100

080031c0 <HAL_SYSTICK_Config>:
 80031c0:	3801      	subs	r0, #1
 80031c2:	f1b0 7f80 	cmp.w	r0, #16777216	; 0x1000000
 80031c6:	d20b      	bcs.n	80031e0 <HAL_SYSTICK_Config+0x20>
 80031c8:	f04f 23e0 	mov.w	r3, #3758153728	; 0xe000e000
 80031cc:	4a05      	ldr	r2, [pc, #20]	; (80031e4 <HAL_SYSTICK_Config+0x24>)
 80031ce:	21f0      	movs	r1, #240	; 0xf0
 80031d0:	6158      	str	r0, [r3, #20]
 80031d2:	2000      	movs	r0, #0
 80031d4:	f882 1023 	strb.w	r1, [r2, #35]	; 0x23
 80031d8:	2207      	movs	r2, #7
 80031da:	6198      	str	r0, [r3, #24]
 80031dc:	611a      	str	r2, [r3, #16]
 80031de:	4770      	bx	lr
 80031e0:	2001      	movs	r0, #1
 80031e2:	4770      	bx	lr
 80031e4:	e000ed00 	.word	0xe000ed00

080031e8 <DCMI_DMAXferCplt>:
 80031e8:	b510      	push	{r4, lr}
 80031ea:	6b84      	ldr	r4, [r0, #56]	; 0x38
 80031ec:	6ca0      	ldr	r0, [r4, #72]	; 0x48
 80031ee:	6ba2      	ldr	r2, [r4, #56]	; 0x38
 80031f0:	6803      	ldr	r3, [r0, #0]
 80031f2:	b332      	cbz	r2, 8003242 <DCMI_DMAXferCplt+0x5a>
 80031f4:	6819      	ldr	r1, [r3, #0]
 80031f6:	6ba2      	ldr	r2, [r4, #56]	; 0x38
 80031f8:	f012 0201 	ands.w	r2, r2, #1
 80031fc:	d11a      	bne.n	8003234 <DCMI_DMAXferCplt+0x4c>
 80031fe:	0309      	lsls	r1, r1, #12
 8003200:	d518      	bpl.n	8003234 <DCMI_DMAXferCplt+0x4c>
 8003202:	68db      	ldr	r3, [r3, #12]
 8003204:	6be1      	ldr	r1, [r4, #60]	; 0x3c
 8003206:	eb03 01c1 	add.w	r1, r3, r1, lsl #3
 800320a:	f001 f9cb 	bl	80045a4 <HAL_DMAEx_ChangeMemory>
 800320e:	6ba3      	ldr	r3, [r4, #56]	; 0x38
 8003210:	3b01      	subs	r3, #1
 8003212:	63a3      	str	r3, [r4, #56]	; 0x38
 8003214:	6ba2      	ldr	r2, [r4, #56]	; 0x38
 8003216:	6c23      	ldr	r3, [r4, #64]	; 0x40
 8003218:	429a      	cmp	r2, r3
 800321a:	d10a      	bne.n	8003232 <DCMI_DMAXferCplt+0x4a>
 800321c:	6823      	ldr	r3, [r4, #0]
 800321e:	68da      	ldr	r2, [r3, #12]
 8003220:	f042 0201 	orr.w	r2, r2, #1
 8003224:	60da      	str	r2, [r3, #12]
 8003226:	681b      	ldr	r3, [r3, #0]
 8003228:	079b      	lsls	r3, r3, #30
 800322a:	d502      	bpl.n	8003232 <DCMI_DMAXferCplt+0x4a>
 800322c:	2301      	movs	r3, #1
 800322e:	f884 3035 	strb.w	r3, [r4, #53]	; 0x35
 8003232:	bd10      	pop	{r4, pc}
 8003234:	681a      	ldr	r2, [r3, #0]
 8003236:	0312      	lsls	r2, r2, #12
 8003238:	d4ec      	bmi.n	8003214 <DCMI_DMAXferCplt+0x2c>
 800323a:	691b      	ldr	r3, [r3, #16]
 800323c:	2201      	movs	r2, #1
 800323e:	6be1      	ldr	r1, [r4, #60]	; 0x3c
 8003240:	e7e1      	b.n	8003206 <DCMI_DMAXferCplt+0x1e>
 8003242:	681a      	ldr	r2, [r3, #0]
 8003244:	6c21      	ldr	r1, [r4, #64]	; 0x40
 8003246:	0310      	lsls	r0, r2, #12
 8003248:	d502      	bpl.n	8003250 <DCMI_DMAXferCplt+0x68>
 800324a:	6c62      	ldr	r2, [r4, #68]	; 0x44
 800324c:	60da      	str	r2, [r3, #12]
 800324e:	e7e1      	b.n	8003214 <DCMI_DMAXferCplt+0x2c>
 8003250:	681a      	ldr	r2, [r3, #0]
 8003252:	0312      	lsls	r2, r2, #12
 8003254:	d4de      	bmi.n	8003214 <DCMI_DMAXferCplt+0x2c>
 8003256:	6be0      	ldr	r0, [r4, #60]	; 0x3c
 8003258:	6c62      	ldr	r2, [r4, #68]	; 0x44
 800325a:	eb02 0280 	add.w	r2, r2, r0, lsl #2
 800325e:	611a      	str	r2, [r3, #16]
 8003260:	63a1      	str	r1, [r4, #56]	; 0x38
 8003262:	e7d7      	b.n	8003214 <DCMI_DMAXferCplt+0x2c>

08003264 <HAL_DCMI_Init>:
 8003264:	b538      	push	{r3, r4, r5, lr}
 8003266:	4604      	mov	r4, r0
 8003268:	2800      	cmp	r0, #0
 800326a:	d03f      	beq.n	80032ec <HAL_DCMI_Init+0x88>
 800326c:	f890 3035 	ldrb.w	r3, [r0, #53]	; 0x35
 8003270:	b90b      	cbnz	r3, 8003276 <HAL_DCMI_Init+0x12>
 8003272:	f7ff f98d 	bl	8002590 <HAL_DCMI_MspInit>
 8003276:	2302      	movs	r3, #2
 8003278:	f884 3035 	strb.w	r3, [r4, #53]	; 0x35
 800327c:	69a3      	ldr	r3, [r4, #24]
 800327e:	b10b      	cbz	r3, 8003284 <HAL_DCMI_Init+0x20>
 8003280:	2200      	movs	r2, #0
 8003282:	6262      	str	r2, [r4, #36]	; 0x24
 8003284:	6822      	ldr	r2, [r4, #0]
 8003286:	491a      	ldr	r1, [pc, #104]	; (80032f0 <HAL_DCMI_Init+0x8c>)
 8003288:	6810      	ldr	r0, [r2, #0]
 800328a:	6965      	ldr	r5, [r4, #20]
 800328c:	4001      	ands	r1, r0
 800328e:	6011      	str	r1, [r2, #0]
 8003290:	6861      	ldr	r1, [r4, #4]
 8003292:	6810      	ldr	r0, [r2, #0]
 8003294:	430b      	orrs	r3, r1
 8003296:	2910      	cmp	r1, #16
 8003298:	ea43 0305 	orr.w	r3, r3, r5
 800329c:	68e5      	ldr	r5, [r4, #12]
 800329e:	ea43 0305 	orr.w	r3, r3, r5
 80032a2:	6925      	ldr	r5, [r4, #16]
 80032a4:	ea43 0305 	orr.w	r3, r3, r5
 80032a8:	68a5      	ldr	r5, [r4, #8]
 80032aa:	ea43 0305 	orr.w	r3, r3, r5
 80032ae:	6a25      	ldr	r5, [r4, #32]
 80032b0:	ea43 0305 	orr.w	r3, r3, r5
 80032b4:	6a65      	ldr	r5, [r4, #36]	; 0x24
 80032b6:	ea43 0305 	orr.w	r3, r3, r5
 80032ba:	6aa5      	ldr	r5, [r4, #40]	; 0x28
 80032bc:	ea43 0305 	orr.w	r3, r3, r5
 80032c0:	6ae5      	ldr	r5, [r4, #44]	; 0x2c
 80032c2:	ea43 0305 	orr.w	r3, r3, r5
 80032c6:	6b25      	ldr	r5, [r4, #48]	; 0x30
 80032c8:	ea43 0305 	orr.w	r3, r3, r5
 80032cc:	ea43 0300 	orr.w	r3, r3, r0
 80032d0:	6013      	str	r3, [r2, #0]
 80032d2:	d101      	bne.n	80032d8 <HAL_DCMI_Init+0x74>
 80032d4:	69e3      	ldr	r3, [r4, #28]
 80032d6:	6193      	str	r3, [r2, #24]
 80032d8:	68d3      	ldr	r3, [r2, #12]
 80032da:	2000      	movs	r0, #0
 80032dc:	f043 031e 	orr.w	r3, r3, #30
 80032e0:	60d3      	str	r3, [r2, #12]
 80032e2:	2301      	movs	r3, #1
 80032e4:	64e0      	str	r0, [r4, #76]	; 0x4c
 80032e6:	f884 3035 	strb.w	r3, [r4, #53]	; 0x35
 80032ea:	bd38      	pop	{r3, r4, r5, pc}
 80032ec:	2001      	movs	r0, #1
 80032ee:	e7fc      	b.n	80032ea <HAL_DCMI_Init+0x86>
 80032f0:	ffe0f007 	.word	0xffe0f007

080032f4 <HAL_DCMI_Start_DMA>:
 80032f4:	b5f7      	push	{r0, r1, r2, r4, r5, r6, r7, lr}
 80032f6:	4604      	mov	r4, r0
 80032f8:	f890 0034 	ldrb.w	r0, [r0, #52]	; 0x34
 80032fc:	4616      	mov	r6, r2
 80032fe:	2801      	cmp	r0, #1
 8003300:	f04f 0002 	mov.w	r0, #2
 8003304:	d02f      	beq.n	8003366 <HAL_DCMI_Start_DMA+0x72>
 8003306:	f884 0035 	strb.w	r0, [r4, #53]	; 0x35
 800330a:	2701      	movs	r7, #1
 800330c:	6820      	ldr	r0, [r4, #0]
 800330e:	f5b3 3f80 	cmp.w	r3, #65536	; 0x10000
 8003312:	f884 7034 	strb.w	r7, [r4, #52]	; 0x34
 8003316:	6805      	ldr	r5, [r0, #0]
 8003318:	f8df e0b4 	ldr.w	lr, [pc, #180]	; 80033d0 <HAL_DCMI_Start_DMA+0xdc>
 800331c:	f445 4580 	orr.w	r5, r5, #16384	; 0x4000
 8003320:	6005      	str	r5, [r0, #0]
 8003322:	6805      	ldr	r5, [r0, #0]
 8003324:	f025 0502 	bic.w	r5, r5, #2
 8003328:	6005      	str	r5, [r0, #0]
 800332a:	6805      	ldr	r5, [r0, #0]
 800332c:	ea45 0501 	orr.w	r5, r5, r1
 8003330:	4601      	mov	r1, r0
 8003332:	6ca0      	ldr	r0, [r4, #72]	; 0x48
 8003334:	f841 5b28 	str.w	r5, [r1], #40
 8003338:	4d24      	ldr	r5, [pc, #144]	; (80033cc <HAL_DCMI_Start_DMA+0xd8>)
 800333a:	f8c0 e03c 	str.w	lr, [r0, #60]	; 0x3c
 800333e:	64c5      	str	r5, [r0, #76]	; 0x4c
 8003340:	f04f 0500 	mov.w	r5, #0
 8003344:	6505      	str	r5, [r0, #80]	; 0x50
 8003346:	63a5      	str	r5, [r4, #56]	; 0x38
 8003348:	6425      	str	r5, [r4, #64]	; 0x40
 800334a:	63e5      	str	r5, [r4, #60]	; 0x3c
 800334c:	6465      	str	r5, [r4, #68]	; 0x44
 800334e:	d20c      	bcs.n	800336a <HAL_DCMI_Start_DMA+0x76>
 8003350:	f000 fbd0 	bl	8003af4 <HAL_DMA_Start_IT>
 8003354:	2800      	cmp	r0, #0
 8003356:	d02f      	beq.n	80033b8 <HAL_DCMI_Start_DMA+0xc4>
 8003358:	2340      	movs	r3, #64	; 0x40
 800335a:	4638      	mov	r0, r7
 800335c:	f884 5034 	strb.w	r5, [r4, #52]	; 0x34
 8003360:	64e3      	str	r3, [r4, #76]	; 0x4c
 8003362:	f884 7035 	strb.w	r7, [r4, #53]	; 0x35
 8003366:	b003      	add	sp, #12
 8003368:	bdf0      	pop	{r4, r5, r6, r7, pc}
 800336a:	f8c0 e044 	str.w	lr, [r0, #68]	; 0x44
 800336e:	63a7      	str	r7, [r4, #56]	; 0x38
 8003370:	6462      	str	r2, [r4, #68]	; 0x44
 8003372:	63e3      	str	r3, [r4, #60]	; 0x3c
 8003374:	6be3      	ldr	r3, [r4, #60]	; 0x3c
 8003376:	f5b3 3f80 	cmp.w	r3, #65536	; 0x10000
 800337a:	d216      	bcs.n	80033aa <HAL_DCMI_Start_DMA+0xb6>
 800337c:	6ba3      	ldr	r3, [r4, #56]	; 0x38
 800337e:	3b02      	subs	r3, #2
 8003380:	63a3      	str	r3, [r4, #56]	; 0x38
 8003382:	6ba3      	ldr	r3, [r4, #56]	; 0x38
 8003384:	6423      	str	r3, [r4, #64]	; 0x40
 8003386:	6be3      	ldr	r3, [r4, #60]	; 0x3c
 8003388:	6be2      	ldr	r2, [r4, #60]	; 0x3c
 800338a:	eb06 0383 	add.w	r3, r6, r3, lsl #2
 800338e:	9200      	str	r2, [sp, #0]
 8003390:	4632      	mov	r2, r6
 8003392:	f000 ff57 	bl	8004244 <HAL_DMAEx_MultiBufferStart_IT>
 8003396:	b178      	cbz	r0, 80033b8 <HAL_DCMI_Start_DMA+0xc4>
 8003398:	2340      	movs	r3, #64	; 0x40
 800339a:	2001      	movs	r0, #1
 800339c:	64e3      	str	r3, [r4, #76]	; 0x4c
 800339e:	2300      	movs	r3, #0
 80033a0:	f884 0035 	strb.w	r0, [r4, #53]	; 0x35
 80033a4:	f884 3034 	strb.w	r3, [r4, #52]	; 0x34
 80033a8:	e7dd      	b.n	8003366 <HAL_DCMI_Start_DMA+0x72>
 80033aa:	6be3      	ldr	r3, [r4, #60]	; 0x3c
 80033ac:	085b      	lsrs	r3, r3, #1
 80033ae:	63e3      	str	r3, [r4, #60]	; 0x3c
 80033b0:	6ba3      	ldr	r3, [r4, #56]	; 0x38
 80033b2:	005b      	lsls	r3, r3, #1
 80033b4:	63a3      	str	r3, [r4, #56]	; 0x38
 80033b6:	e7dd      	b.n	8003374 <HAL_DCMI_Start_DMA+0x80>
 80033b8:	6822      	ldr	r2, [r4, #0]
 80033ba:	2000      	movs	r0, #0
 80033bc:	6813      	ldr	r3, [r2, #0]
 80033be:	f043 0301 	orr.w	r3, r3, #1
 80033c2:	6013      	str	r3, [r2, #0]
 80033c4:	f884 0034 	strb.w	r0, [r4, #52]	; 0x34
 80033c8:	e7cd      	b.n	8003366 <HAL_DCMI_Start_DMA+0x72>
 80033ca:	bf00      	nop
 80033cc:	080033d7 	.word	0x080033d7
 80033d0:	080031e9 	.word	0x080031e9

080033d4 <HAL_DCMI_ErrorCallback>:
 80033d4:	4770      	bx	lr

080033d6 <DCMI_DMAError>:
 80033d6:	6b80      	ldr	r0, [r0, #56]	; 0x38
 80033d8:	b508      	push	{r3, lr}
 80033da:	6c83      	ldr	r3, [r0, #72]	; 0x48
 80033dc:	6d5b      	ldr	r3, [r3, #84]	; 0x54
 80033de:	2b02      	cmp	r3, #2
 80033e0:	d006      	beq.n	80033f0 <DCMI_DMAError+0x1a>
 80033e2:	2301      	movs	r3, #1
 80033e4:	f880 3035 	strb.w	r3, [r0, #53]	; 0x35
 80033e8:	6cc3      	ldr	r3, [r0, #76]	; 0x4c
 80033ea:	f043 0340 	orr.w	r3, r3, #64	; 0x40
 80033ee:	64c3      	str	r3, [r0, #76]	; 0x4c
 80033f0:	f7ff fff0 	bl	80033d4 <HAL_DCMI_ErrorCallback>
 80033f4:	bd08      	pop	{r3, pc}

080033f6 <HAL_DCMI_LineEventCallback>:
 80033f6:	4770      	bx	lr

080033f8 <HAL_DCMI_VsyncEventCallback>:
 80033f8:	4770      	bx	lr
	...

080033fc <HAL_DCMI_IRQHandler>:
 80033fc:	b538      	push	{r3, r4, r5, lr}
 80033fe:	6803      	ldr	r3, [r0, #0]
 8003400:	4604      	mov	r4, r0
 8003402:	691d      	ldr	r5, [r3, #16]
 8003404:	0769      	lsls	r1, r5, #29
 8003406:	d50c      	bpl.n	8003422 <HAL_DCMI_IRQHandler+0x26>
 8003408:	2204      	movs	r2, #4
 800340a:	615a      	str	r2, [r3, #20]
 800340c:	6cc3      	ldr	r3, [r0, #76]	; 0x4c
 800340e:	f043 0302 	orr.w	r3, r3, #2
 8003412:	64c3      	str	r3, [r0, #76]	; 0x4c
 8003414:	4b1d      	ldr	r3, [pc, #116]	; (800348c <HAL_DCMI_IRQHandler+0x90>)
 8003416:	f880 2035 	strb.w	r2, [r0, #53]	; 0x35
 800341a:	6c80      	ldr	r0, [r0, #72]	; 0x48
 800341c:	6503      	str	r3, [r0, #80]	; 0x50
 800341e:	f000 fc83 	bl	8003d28 <HAL_DMA_Abort_IT>
 8003422:	07aa      	lsls	r2, r5, #30
 8003424:	d50e      	bpl.n	8003444 <HAL_DCMI_IRQHandler+0x48>
 8003426:	6823      	ldr	r3, [r4, #0]
 8003428:	2202      	movs	r2, #2
 800342a:	6ca0      	ldr	r0, [r4, #72]	; 0x48
 800342c:	615a      	str	r2, [r3, #20]
 800342e:	6ce3      	ldr	r3, [r4, #76]	; 0x4c
 8003430:	f043 0301 	orr.w	r3, r3, #1
 8003434:	64e3      	str	r3, [r4, #76]	; 0x4c
 8003436:	2304      	movs	r3, #4
 8003438:	f884 3035 	strb.w	r3, [r4, #53]	; 0x35
 800343c:	4b13      	ldr	r3, [pc, #76]	; (800348c <HAL_DCMI_IRQHandler+0x90>)
 800343e:	6503      	str	r3, [r0, #80]	; 0x50
 8003440:	f000 fc72 	bl	8003d28 <HAL_DMA_Abort_IT>
 8003444:	06eb      	lsls	r3, r5, #27
 8003446:	d505      	bpl.n	8003454 <HAL_DCMI_IRQHandler+0x58>
 8003448:	6823      	ldr	r3, [r4, #0]
 800344a:	2210      	movs	r2, #16
 800344c:	4620      	mov	r0, r4
 800344e:	615a      	str	r2, [r3, #20]
 8003450:	f7ff ffd1 	bl	80033f6 <HAL_DCMI_LineEventCallback>
 8003454:	0728      	lsls	r0, r5, #28
 8003456:	d505      	bpl.n	8003464 <HAL_DCMI_IRQHandler+0x68>
 8003458:	6823      	ldr	r3, [r4, #0]
 800345a:	2208      	movs	r2, #8
 800345c:	4620      	mov	r0, r4
 800345e:	615a      	str	r2, [r3, #20]
 8003460:	f7ff ffca 	bl	80033f8 <HAL_DCMI_VsyncEventCallback>
 8003464:	07e9      	lsls	r1, r5, #31
 8003466:	d510      	bpl.n	800348a <HAL_DCMI_IRQHandler+0x8e>
 8003468:	6823      	ldr	r3, [r4, #0]
 800346a:	681a      	ldr	r2, [r3, #0]
 800346c:	0792      	lsls	r2, r2, #30
 800346e:	d503      	bpl.n	8003478 <HAL_DCMI_IRQHandler+0x7c>
 8003470:	68da      	ldr	r2, [r3, #12]
 8003472:	f022 021e 	bic.w	r2, r2, #30
 8003476:	60da      	str	r2, [r3, #12]
 8003478:	68da      	ldr	r2, [r3, #12]
 800347a:	4620      	mov	r0, r4
 800347c:	f022 0201 	bic.w	r2, r2, #1
 8003480:	60da      	str	r2, [r3, #12]
 8003482:	2201      	movs	r2, #1
 8003484:	615a      	str	r2, [r3, #20]
 8003486:	f7ff fba7 	bl	8002bd8 <HAL_DCMI_FrameEventCallback>
 800348a:	bd38      	pop	{r3, r4, r5, pc}
 800348c:	080033d7 	.word	0x080033d7

08003490 <DMA_SetConfig>:
 8003490:	b5f0      	push	{r4, r5, r6, r7, lr}
 8003492:	f8df c17c 	ldr.w	ip, [pc, #380]	; 8003610 <DMA_SetConfig+0x180>
 8003496:	6804      	ldr	r4, [r0, #0]
 8003498:	6d87      	ldr	r7, [r0, #88]	; 0x58
 800349a:	4564      	cmp	r4, ip
 800349c:	d045      	beq.n	800352a <DMA_SetConfig+0x9a>
 800349e:	4d59      	ldr	r5, [pc, #356]	; (8003604 <DMA_SetConfig+0x174>)
 80034a0:	42ac      	cmp	r4, r5
 80034a2:	d042      	beq.n	800352a <DMA_SetConfig+0x9a>
 80034a4:	3518      	adds	r5, #24
 80034a6:	42ac      	cmp	r4, r5
 80034a8:	d03f      	beq.n	800352a <DMA_SetConfig+0x9a>
 80034aa:	3518      	adds	r5, #24
 80034ac:	42ac      	cmp	r4, r5
 80034ae:	d03c      	beq.n	800352a <DMA_SetConfig+0x9a>
 80034b0:	3518      	adds	r5, #24
 80034b2:	42ac      	cmp	r4, r5
 80034b4:	d039      	beq.n	800352a <DMA_SetConfig+0x9a>
 80034b6:	3518      	adds	r5, #24
 80034b8:	42ac      	cmp	r4, r5
 80034ba:	d036      	beq.n	800352a <DMA_SetConfig+0x9a>
 80034bc:	3518      	adds	r5, #24
 80034be:	42ac      	cmp	r4, r5
 80034c0:	d033      	beq.n	800352a <DMA_SetConfig+0x9a>
 80034c2:	3518      	adds	r5, #24
 80034c4:	42ac      	cmp	r4, r5
 80034c6:	d030      	beq.n	800352a <DMA_SetConfig+0x9a>
 80034c8:	f505 7556 	add.w	r5, r5, #856	; 0x358
 80034cc:	42ac      	cmp	r4, r5
 80034ce:	d02c      	beq.n	800352a <DMA_SetConfig+0x9a>
 80034d0:	3518      	adds	r5, #24
 80034d2:	42ac      	cmp	r4, r5
 80034d4:	d029      	beq.n	800352a <DMA_SetConfig+0x9a>
 80034d6:	3518      	adds	r5, #24
 80034d8:	42ac      	cmp	r4, r5
 80034da:	d026      	beq.n	800352a <DMA_SetConfig+0x9a>
 80034dc:	3518      	adds	r5, #24
 80034de:	42ac      	cmp	r4, r5
 80034e0:	d023      	beq.n	800352a <DMA_SetConfig+0x9a>
 80034e2:	3518      	adds	r5, #24
 80034e4:	42ac      	cmp	r4, r5
 80034e6:	d020      	beq.n	800352a <DMA_SetConfig+0x9a>
 80034e8:	3518      	adds	r5, #24
 80034ea:	42ac      	cmp	r4, r5
 80034ec:	d01d      	beq.n	800352a <DMA_SetConfig+0x9a>
 80034ee:	3518      	adds	r5, #24
 80034f0:	42ac      	cmp	r4, r5
 80034f2:	d01a      	beq.n	800352a <DMA_SetConfig+0x9a>
 80034f4:	3518      	adds	r5, #24
 80034f6:	42ac      	cmp	r4, r5
 80034f8:	d017      	beq.n	800352a <DMA_SetConfig+0x9a>
 80034fa:	4d43      	ldr	r5, [pc, #268]	; (8003608 <DMA_SetConfig+0x178>)
 80034fc:	42ac      	cmp	r4, r5
 80034fe:	d014      	beq.n	800352a <DMA_SetConfig+0x9a>
 8003500:	3514      	adds	r5, #20
 8003502:	42ac      	cmp	r4, r5
 8003504:	d011      	beq.n	800352a <DMA_SetConfig+0x9a>
 8003506:	3514      	adds	r5, #20
 8003508:	42ac      	cmp	r4, r5
 800350a:	d00e      	beq.n	800352a <DMA_SetConfig+0x9a>
 800350c:	3514      	adds	r5, #20
 800350e:	42ac      	cmp	r4, r5
 8003510:	d00b      	beq.n	800352a <DMA_SetConfig+0x9a>
 8003512:	3514      	adds	r5, #20
 8003514:	42ac      	cmp	r4, r5
 8003516:	d008      	beq.n	800352a <DMA_SetConfig+0x9a>
 8003518:	3514      	adds	r5, #20
 800351a:	42ac      	cmp	r4, r5
 800351c:	d005      	beq.n	800352a <DMA_SetConfig+0x9a>
 800351e:	3514      	adds	r5, #20
 8003520:	42ac      	cmp	r4, r5
 8003522:	d002      	beq.n	800352a <DMA_SetConfig+0x9a>
 8003524:	3514      	adds	r5, #20
 8003526:	42ac      	cmp	r4, r5
 8003528:	d167      	bne.n	80035fa <DMA_SetConfig+0x16a>
 800352a:	e9d0 5619 	ldrd	r5, r6, [r0, #100]	; 0x64
 800352e:	606e      	str	r6, [r5, #4]
 8003530:	6ec5      	ldr	r5, [r0, #108]	; 0x6c
 8003532:	b115      	cbz	r5, 800353a <DMA_SetConfig+0xaa>
 8003534:	e9d0 561c 	ldrd	r5, r6, [r0, #112]	; 0x70
 8003538:	606e      	str	r6, [r5, #4]
 800353a:	4564      	cmp	r4, ip
 800353c:	d037      	beq.n	80035ae <DMA_SetConfig+0x11e>
 800353e:	4d31      	ldr	r5, [pc, #196]	; (8003604 <DMA_SetConfig+0x174>)
 8003540:	42ac      	cmp	r4, r5
 8003542:	d034      	beq.n	80035ae <DMA_SetConfig+0x11e>
 8003544:	3518      	adds	r5, #24
 8003546:	42ac      	cmp	r4, r5
 8003548:	d031      	beq.n	80035ae <DMA_SetConfig+0x11e>
 800354a:	3518      	adds	r5, #24
 800354c:	42ac      	cmp	r4, r5
 800354e:	d02e      	beq.n	80035ae <DMA_SetConfig+0x11e>
 8003550:	3518      	adds	r5, #24
 8003552:	42ac      	cmp	r4, r5
 8003554:	d02b      	beq.n	80035ae <DMA_SetConfig+0x11e>
 8003556:	3518      	adds	r5, #24
 8003558:	42ac      	cmp	r4, r5
 800355a:	d028      	beq.n	80035ae <DMA_SetConfig+0x11e>
 800355c:	3518      	adds	r5, #24
 800355e:	42ac      	cmp	r4, r5
 8003560:	d025      	beq.n	80035ae <DMA_SetConfig+0x11e>
 8003562:	3518      	adds	r5, #24
 8003564:	42ac      	cmp	r4, r5
 8003566:	d022      	beq.n	80035ae <DMA_SetConfig+0x11e>
 8003568:	f505 7556 	add.w	r5, r5, #856	; 0x358
 800356c:	42ac      	cmp	r4, r5
 800356e:	d01e      	beq.n	80035ae <DMA_SetConfig+0x11e>
 8003570:	3518      	adds	r5, #24
 8003572:	42ac      	cmp	r4, r5
 8003574:	d01b      	beq.n	80035ae <DMA_SetConfig+0x11e>
 8003576:	3518      	adds	r5, #24
 8003578:	42ac      	cmp	r4, r5
 800357a:	d018      	beq.n	80035ae <DMA_SetConfig+0x11e>
 800357c:	3518      	adds	r5, #24
 800357e:	42ac      	cmp	r4, r5
 8003580:	d015      	beq.n	80035ae <DMA_SetConfig+0x11e>
 8003582:	3518      	adds	r5, #24
 8003584:	42ac      	cmp	r4, r5
 8003586:	d012      	beq.n	80035ae <DMA_SetConfig+0x11e>
 8003588:	3518      	adds	r5, #24
 800358a:	42ac      	cmp	r4, r5
 800358c:	d00f      	beq.n	80035ae <DMA_SetConfig+0x11e>
 800358e:	3518      	adds	r5, #24
 8003590:	42ac      	cmp	r4, r5
 8003592:	d00c      	beq.n	80035ae <DMA_SetConfig+0x11e>
 8003594:	3518      	adds	r5, #24
 8003596:	42ac      	cmp	r4, r5
 8003598:	d009      	beq.n	80035ae <DMA_SetConfig+0x11e>
 800359a:	4d1b      	ldr	r5, [pc, #108]	; (8003608 <DMA_SetConfig+0x178>)
 800359c:	42ac      	cmp	r4, r5
 800359e:	d117      	bne.n	80035d0 <DMA_SetConfig+0x140>
 80035a0:	6dc5      	ldr	r5, [r0, #92]	; 0x5c
 80035a2:	f005 061f 	and.w	r6, r5, #31
 80035a6:	2501      	movs	r5, #1
 80035a8:	40b5      	lsls	r5, r6
 80035aa:	607d      	str	r5, [r7, #4]
 80035ac:	e009      	b.n	80035c2 <DMA_SetConfig+0x132>
 80035ae:	6dc5      	ldr	r5, [r0, #92]	; 0x5c
 80035b0:	f005 061f 	and.w	r6, r5, #31
 80035b4:	253f      	movs	r5, #63	; 0x3f
 80035b6:	40b5      	lsls	r5, r6
 80035b8:	60bd      	str	r5, [r7, #8]
 80035ba:	6825      	ldr	r5, [r4, #0]
 80035bc:	f425 2580 	bic.w	r5, r5, #262144	; 0x40000
 80035c0:	6025      	str	r5, [r4, #0]
 80035c2:	6063      	str	r3, [r4, #4]
 80035c4:	6883      	ldr	r3, [r0, #8]
 80035c6:	2b40      	cmp	r3, #64	; 0x40
 80035c8:	d118      	bne.n	80035fc <DMA_SetConfig+0x16c>
 80035ca:	60a2      	str	r2, [r4, #8]
 80035cc:	60e1      	str	r1, [r4, #12]
 80035ce:	e014      	b.n	80035fa <DMA_SetConfig+0x16a>
 80035d0:	4d0e      	ldr	r5, [pc, #56]	; (800360c <DMA_SetConfig+0x17c>)
 80035d2:	42ac      	cmp	r4, r5
 80035d4:	d0e4      	beq.n	80035a0 <DMA_SetConfig+0x110>
 80035d6:	3514      	adds	r5, #20
 80035d8:	42ac      	cmp	r4, r5
 80035da:	d0e1      	beq.n	80035a0 <DMA_SetConfig+0x110>
 80035dc:	3514      	adds	r5, #20
 80035de:	42ac      	cmp	r4, r5
 80035e0:	d0de      	beq.n	80035a0 <DMA_SetConfig+0x110>
 80035e2:	3514      	adds	r5, #20
 80035e4:	42ac      	cmp	r4, r5
 80035e6:	d0db      	beq.n	80035a0 <DMA_SetConfig+0x110>
 80035e8:	3514      	adds	r5, #20
 80035ea:	42ac      	cmp	r4, r5
 80035ec:	d0d8      	beq.n	80035a0 <DMA_SetConfig+0x110>
 80035ee:	3514      	adds	r5, #20
 80035f0:	42ac      	cmp	r4, r5
 80035f2:	d0d5      	beq.n	80035a0 <DMA_SetConfig+0x110>
 80035f4:	3514      	adds	r5, #20
 80035f6:	42ac      	cmp	r4, r5
 80035f8:	d0d2      	beq.n	80035a0 <DMA_SetConfig+0x110>
 80035fa:	bdf0      	pop	{r4, r5, r6, r7, pc}
 80035fc:	60a1      	str	r1, [r4, #8]
 80035fe:	60e2      	str	r2, [r4, #12]
 8003600:	e7fb      	b.n	80035fa <DMA_SetConfig+0x16a>
 8003602:	bf00      	nop
 8003604:	40020028 	.word	0x40020028
 8003608:	58025408 	.word	0x58025408
 800360c:	5802541c 	.word	0x5802541c
 8003610:	40020010 	.word	0x40020010

08003614 <DMA_CalcBaseAndBitshift>:
 8003614:	6803      	ldr	r3, [r0, #0]
 8003616:	4a23      	ldr	r2, [pc, #140]	; (80036a4 <DMA_CalcBaseAndBitshift+0x90>)
 8003618:	4293      	cmp	r3, r2
 800361a:	b510      	push	{r4, lr}
 800361c:	d032      	beq.n	8003684 <DMA_CalcBaseAndBitshift+0x70>
 800361e:	3218      	adds	r2, #24
 8003620:	4293      	cmp	r3, r2
 8003622:	d02f      	beq.n	8003684 <DMA_CalcBaseAndBitshift+0x70>
 8003624:	3218      	adds	r2, #24
 8003626:	4293      	cmp	r3, r2
 8003628:	d02c      	beq.n	8003684 <DMA_CalcBaseAndBitshift+0x70>
 800362a:	3218      	adds	r2, #24
 800362c:	4293      	cmp	r3, r2
 800362e:	d029      	beq.n	8003684 <DMA_CalcBaseAndBitshift+0x70>
 8003630:	3218      	adds	r2, #24
 8003632:	4293      	cmp	r3, r2
 8003634:	d026      	beq.n	8003684 <DMA_CalcBaseAndBitshift+0x70>
 8003636:	3218      	adds	r2, #24
 8003638:	4293      	cmp	r3, r2
 800363a:	d023      	beq.n	8003684 <DMA_CalcBaseAndBitshift+0x70>
 800363c:	3218      	adds	r2, #24
 800363e:	4293      	cmp	r3, r2
 8003640:	d020      	beq.n	8003684 <DMA_CalcBaseAndBitshift+0x70>
 8003642:	3218      	adds	r2, #24
 8003644:	4293      	cmp	r3, r2
 8003646:	d01d      	beq.n	8003684 <DMA_CalcBaseAndBitshift+0x70>
 8003648:	f502 7256 	add.w	r2, r2, #856	; 0x358
 800364c:	4293      	cmp	r3, r2
 800364e:	d019      	beq.n	8003684 <DMA_CalcBaseAndBitshift+0x70>
 8003650:	3218      	adds	r2, #24
 8003652:	4293      	cmp	r3, r2
 8003654:	d016      	beq.n	8003684 <DMA_CalcBaseAndBitshift+0x70>
 8003656:	3218      	adds	r2, #24
 8003658:	4293      	cmp	r3, r2
 800365a:	d013      	beq.n	8003684 <DMA_CalcBaseAndBitshift+0x70>
 800365c:	3218      	adds	r2, #24
 800365e:	4293      	cmp	r3, r2
 8003660:	d010      	beq.n	8003684 <DMA_CalcBaseAndBitshift+0x70>
 8003662:	3218      	adds	r2, #24
 8003664:	4293      	cmp	r3, r2
 8003666:	d00d      	beq.n	8003684 <DMA_CalcBaseAndBitshift+0x70>
 8003668:	3218      	adds	r2, #24
 800366a:	4293      	cmp	r3, r2
 800366c:	d00a      	beq.n	8003684 <DMA_CalcBaseAndBitshift+0x70>
 800366e:	3218      	adds	r2, #24
 8003670:	4293      	cmp	r3, r2
 8003672:	d007      	beq.n	8003684 <DMA_CalcBaseAndBitshift+0x70>
 8003674:	3218      	adds	r2, #24
 8003676:	4293      	cmp	r3, r2
 8003678:	d004      	beq.n	8003684 <DMA_CalcBaseAndBitshift+0x70>
 800367a:	f023 03ff 	bic.w	r3, r3, #255	; 0xff
 800367e:	6583      	str	r3, [r0, #88]	; 0x58
 8003680:	4618      	mov	r0, r3
 8003682:	bd10      	pop	{r4, pc}
 8003684:	b2da      	uxtb	r2, r3
 8003686:	2118      	movs	r1, #24
 8003688:	4c07      	ldr	r4, [pc, #28]	; (80036a8 <DMA_CalcBaseAndBitshift+0x94>)
 800368a:	f423 737f 	bic.w	r3, r3, #1020	; 0x3fc
 800368e:	3a10      	subs	r2, #16
 8003690:	f023 0303 	bic.w	r3, r3, #3
 8003694:	2a5f      	cmp	r2, #95	; 0x5f
 8003696:	fbb2 f1f1 	udiv	r1, r2, r1
 800369a:	5c61      	ldrb	r1, [r4, r1]
 800369c:	bf88      	it	hi
 800369e:	3304      	addhi	r3, #4
 80036a0:	65c1      	str	r1, [r0, #92]	; 0x5c
 80036a2:	e7ec      	b.n	800367e <DMA_CalcBaseAndBitshift+0x6a>
 80036a4:	40020010 	.word	0x40020010
 80036a8:	0800f6a9 	.word	0x0800f6a9

080036ac <DMA_CalcDMAMUXChannelBaseAndMask>:
 80036ac:	6802      	ldr	r2, [r0, #0]
 80036ae:	4921      	ldr	r1, [pc, #132]	; (8003734 <DMA_CalcDMAMUXChannelBaseAndMask+0x88>)
 80036b0:	b2d3      	uxtb	r3, r2
 80036b2:	428a      	cmp	r2, r1
 80036b4:	d028      	beq.n	8003708 <DMA_CalcDMAMUXChannelBaseAndMask+0x5c>
 80036b6:	3114      	adds	r1, #20
 80036b8:	428a      	cmp	r2, r1
 80036ba:	d025      	beq.n	8003708 <DMA_CalcDMAMUXChannelBaseAndMask+0x5c>
 80036bc:	3114      	adds	r1, #20
 80036be:	428a      	cmp	r2, r1
 80036c0:	d022      	beq.n	8003708 <DMA_CalcDMAMUXChannelBaseAndMask+0x5c>
 80036c2:	3114      	adds	r1, #20
 80036c4:	428a      	cmp	r2, r1
 80036c6:	d01f      	beq.n	8003708 <DMA_CalcDMAMUXChannelBaseAndMask+0x5c>
 80036c8:	3114      	adds	r1, #20
 80036ca:	428a      	cmp	r2, r1
 80036cc:	d01c      	beq.n	8003708 <DMA_CalcDMAMUXChannelBaseAndMask+0x5c>
 80036ce:	3114      	adds	r1, #20
 80036d0:	428a      	cmp	r2, r1
 80036d2:	d019      	beq.n	8003708 <DMA_CalcDMAMUXChannelBaseAndMask+0x5c>
 80036d4:	3114      	adds	r1, #20
 80036d6:	428a      	cmp	r2, r1
 80036d8:	d016      	beq.n	8003708 <DMA_CalcDMAMUXChannelBaseAndMask+0x5c>
 80036da:	3114      	adds	r1, #20
 80036dc:	428a      	cmp	r2, r1
 80036de:	d013      	beq.n	8003708 <DMA_CalcDMAMUXChannelBaseAndMask+0x5c>
 80036e0:	2118      	movs	r1, #24
 80036e2:	3b10      	subs	r3, #16
 80036e4:	fbb3 f3f1 	udiv	r3, r3, r1
 80036e8:	4913      	ldr	r1, [pc, #76]	; (8003738 <DMA_CalcDMAMUXChannelBaseAndMask+0x8c>)
 80036ea:	4411      	add	r1, r2
 80036ec:	29a8      	cmp	r1, #168	; 0xa8
 80036ee:	d91e      	bls.n	800372e <DMA_CalcDMAMUXChannelBaseAndMask+0x82>
 80036f0:	f103 5280 	add.w	r2, r3, #268435456	; 0x10000000
 80036f4:	2101      	movs	r1, #1
 80036f6:	f003 031f 	and.w	r3, r3, #31
 80036fa:	f502 4202 	add.w	r2, r2, #33280	; 0x8200
 80036fe:	fa01 f303 	lsl.w	r3, r1, r3
 8003702:	490e      	ldr	r1, [pc, #56]	; (800373c <DMA_CalcDMAMUXChannelBaseAndMask+0x90>)
 8003704:	0092      	lsls	r2, r2, #2
 8003706:	e00e      	b.n	8003726 <DMA_CalcDMAMUXChannelBaseAndMask+0x7a>
 8003708:	2214      	movs	r2, #20
 800370a:	3b08      	subs	r3, #8
 800370c:	2101      	movs	r1, #1
 800370e:	fbb3 f3f2 	udiv	r3, r3, r2
 8003712:	f103 52b0 	add.w	r2, r3, #369098752	; 0x16000000
 8003716:	f003 031f 	and.w	r3, r3, #31
 800371a:	f502 4216 	add.w	r2, r2, #38400	; 0x9600
 800371e:	fa01 f303 	lsl.w	r3, r1, r3
 8003722:	4907      	ldr	r1, [pc, #28]	; (8003740 <DMA_CalcDMAMUXChannelBaseAndMask+0x94>)
 8003724:	0092      	lsls	r2, r2, #2
 8003726:	6683      	str	r3, [r0, #104]	; 0x68
 8003728:	e9c0 2118 	strd	r2, r1, [r0, #96]	; 0x60
 800372c:	4770      	bx	lr
 800372e:	3308      	adds	r3, #8
 8003730:	e7de      	b.n	80036f0 <DMA_CalcDMAMUXChannelBaseAndMask+0x44>
 8003732:	bf00      	nop
 8003734:	58025408 	.word	0x58025408
 8003738:	bffdfbf0 	.word	0xbffdfbf0
 800373c:	40020880 	.word	0x40020880
 8003740:	58025880 	.word	0x58025880

08003744 <DMA_CalcDMAMUXRequestGenBaseAndMask>:
 8003744:	7902      	ldrb	r2, [r0, #4]
 8003746:	1e51      	subs	r1, r2, #1
 8003748:	2907      	cmp	r1, #7
 800374a:	b510      	push	{r4, lr}
 800374c:	d821      	bhi.n	8003792 <DMA_CalcDMAMUXRequestGenBaseAndMask+0x4e>
 800374e:	6803      	ldr	r3, [r0, #0]
 8003750:	4c13      	ldr	r4, [pc, #76]	; (80037a0 <DMA_CalcDMAMUXRequestGenBaseAndMask+0x5c>)
 8003752:	42a3      	cmp	r3, r4
 8003754:	d01e      	beq.n	8003794 <DMA_CalcDMAMUXRequestGenBaseAndMask+0x50>
 8003756:	3414      	adds	r4, #20
 8003758:	42a3      	cmp	r3, r4
 800375a:	d01b      	beq.n	8003794 <DMA_CalcDMAMUXRequestGenBaseAndMask+0x50>
 800375c:	3414      	adds	r4, #20
 800375e:	42a3      	cmp	r3, r4
 8003760:	d018      	beq.n	8003794 <DMA_CalcDMAMUXRequestGenBaseAndMask+0x50>
 8003762:	3414      	adds	r4, #20
 8003764:	42a3      	cmp	r3, r4
 8003766:	d015      	beq.n	8003794 <DMA_CalcDMAMUXRequestGenBaseAndMask+0x50>
 8003768:	3414      	adds	r4, #20
 800376a:	42a3      	cmp	r3, r4
 800376c:	d012      	beq.n	8003794 <DMA_CalcDMAMUXRequestGenBaseAndMask+0x50>
 800376e:	3414      	adds	r4, #20
 8003770:	42a3      	cmp	r3, r4
 8003772:	d00f      	beq.n	8003794 <DMA_CalcDMAMUXRequestGenBaseAndMask+0x50>
 8003774:	3414      	adds	r4, #20
 8003776:	42a3      	cmp	r3, r4
 8003778:	d00c      	beq.n	8003794 <DMA_CalcDMAMUXRequestGenBaseAndMask+0x50>
 800377a:	3414      	adds	r4, #20
 800377c:	42a3      	cmp	r3, r4
 800377e:	d009      	beq.n	8003794 <DMA_CalcDMAMUXRequestGenBaseAndMask+0x50>
 8003780:	4b08      	ldr	r3, [pc, #32]	; (80037a4 <DMA_CalcDMAMUXRequestGenBaseAndMask+0x60>)
 8003782:	4413      	add	r3, r2
 8003784:	4a08      	ldr	r2, [pc, #32]	; (80037a8 <DMA_CalcDMAMUXRequestGenBaseAndMask+0x64>)
 8003786:	009b      	lsls	r3, r3, #2
 8003788:	e9c0 321b 	strd	r3, r2, [r0, #108]	; 0x6c
 800378c:	2301      	movs	r3, #1
 800378e:	408b      	lsls	r3, r1
 8003790:	6743      	str	r3, [r0, #116]	; 0x74
 8003792:	bd10      	pop	{r4, pc}
 8003794:	4b05      	ldr	r3, [pc, #20]	; (80037ac <DMA_CalcDMAMUXRequestGenBaseAndMask+0x68>)
 8003796:	4413      	add	r3, r2
 8003798:	4a05      	ldr	r2, [pc, #20]	; (80037b0 <DMA_CalcDMAMUXRequestGenBaseAndMask+0x6c>)
 800379a:	009b      	lsls	r3, r3, #2
 800379c:	e7f4      	b.n	8003788 <DMA_CalcDMAMUXRequestGenBaseAndMask+0x44>
 800379e:	bf00      	nop
 80037a0:	58025408 	.word	0x58025408
 80037a4:	1000823f 	.word	0x1000823f
 80037a8:	40020940 	.word	0x40020940
 80037ac:	1600963f 	.word	0x1600963f
 80037b0:	58025940 	.word	0x58025940

080037b4 <HAL_DMA_Init>:
 80037b4:	b5f8      	push	{r3, r4, r5, r6, r7, lr}
 80037b6:	4604      	mov	r4, r0
 80037b8:	f7ff fc8a 	bl	80030d0 <HAL_GetTick>
 80037bc:	4606      	mov	r6, r0
 80037be:	2c00      	cmp	r4, #0
 80037c0:	f000 80cc 	beq.w	800395c <HAL_DMA_Init+0x1a8>
 80037c4:	6823      	ldr	r3, [r4, #0]
 80037c6:	4d73      	ldr	r5, [pc, #460]	; (8003994 <HAL_DMA_Init+0x1e0>)
 80037c8:	42ab      	cmp	r3, r5
 80037ca:	d06a      	beq.n	80038a2 <HAL_DMA_Init+0xee>
 80037cc:	4a72      	ldr	r2, [pc, #456]	; (8003998 <HAL_DMA_Init+0x1e4>)
 80037ce:	4293      	cmp	r3, r2
 80037d0:	d067      	beq.n	80038a2 <HAL_DMA_Init+0xee>
 80037d2:	3218      	adds	r2, #24
 80037d4:	4293      	cmp	r3, r2
 80037d6:	d064      	beq.n	80038a2 <HAL_DMA_Init+0xee>
 80037d8:	3218      	adds	r2, #24
 80037da:	4293      	cmp	r3, r2
 80037dc:	d061      	beq.n	80038a2 <HAL_DMA_Init+0xee>
 80037de:	3218      	adds	r2, #24
 80037e0:	4293      	cmp	r3, r2
 80037e2:	d05e      	beq.n	80038a2 <HAL_DMA_Init+0xee>
 80037e4:	3218      	adds	r2, #24
 80037e6:	4293      	cmp	r3, r2
 80037e8:	d05b      	beq.n	80038a2 <HAL_DMA_Init+0xee>
 80037ea:	3218      	adds	r2, #24
 80037ec:	4293      	cmp	r3, r2
 80037ee:	d058      	beq.n	80038a2 <HAL_DMA_Init+0xee>
 80037f0:	3218      	adds	r2, #24
 80037f2:	4293      	cmp	r3, r2
 80037f4:	d055      	beq.n	80038a2 <HAL_DMA_Init+0xee>
 80037f6:	f502 7256 	add.w	r2, r2, #856	; 0x358
 80037fa:	4293      	cmp	r3, r2
 80037fc:	d051      	beq.n	80038a2 <HAL_DMA_Init+0xee>
 80037fe:	3218      	adds	r2, #24
 8003800:	4293      	cmp	r3, r2
 8003802:	d04e      	beq.n	80038a2 <HAL_DMA_Init+0xee>
 8003804:	3218      	adds	r2, #24
 8003806:	4293      	cmp	r3, r2
 8003808:	d04b      	beq.n	80038a2 <HAL_DMA_Init+0xee>
 800380a:	3218      	adds	r2, #24
 800380c:	4293      	cmp	r3, r2
 800380e:	d048      	beq.n	80038a2 <HAL_DMA_Init+0xee>
 8003810:	3218      	adds	r2, #24
 8003812:	4293      	cmp	r3, r2
 8003814:	d045      	beq.n	80038a2 <HAL_DMA_Init+0xee>
 8003816:	3218      	adds	r2, #24
 8003818:	4293      	cmp	r3, r2
 800381a:	d042      	beq.n	80038a2 <HAL_DMA_Init+0xee>
 800381c:	3218      	adds	r2, #24
 800381e:	4293      	cmp	r3, r2
 8003820:	d03f      	beq.n	80038a2 <HAL_DMA_Init+0xee>
 8003822:	3218      	adds	r2, #24
 8003824:	4293      	cmp	r3, r2
 8003826:	d03c      	beq.n	80038a2 <HAL_DMA_Init+0xee>
 8003828:	4a5c      	ldr	r2, [pc, #368]	; (800399c <HAL_DMA_Init+0x1e8>)
 800382a:	4293      	cmp	r3, r2
 800382c:	f040 8137 	bne.w	8003a9e <HAL_DMA_Init+0x2ea>
 8003830:	2202      	movs	r2, #2
 8003832:	68a1      	ldr	r1, [r4, #8]
 8003834:	f884 2035 	strb.w	r2, [r4, #53]	; 0x35
 8003838:	2200      	movs	r2, #0
 800383a:	2940      	cmp	r1, #64	; 0x40
 800383c:	f884 2034 	strb.w	r2, [r4, #52]	; 0x34
 8003840:	6818      	ldr	r0, [r3, #0]
 8003842:	f420 30ff 	bic.w	r0, r0, #130560	; 0x1fe00
 8003846:	f420 70f8 	bic.w	r0, r0, #496	; 0x1f0
 800384a:	f000 8146 	beq.w	8003ada <HAL_DMA_Init+0x326>
 800384e:	f1a1 0280 	sub.w	r2, r1, #128	; 0x80
 8003852:	4251      	negs	r1, r2
 8003854:	4151      	adcs	r1, r2
 8003856:	0389      	lsls	r1, r1, #14
 8003858:	e9d4 6203 	ldrd	r6, r2, [r4, #12]
 800385c:	08d2      	lsrs	r2, r2, #3
 800385e:	ea42 02d6 	orr.w	r2, r2, r6, lsr #3
 8003862:	6966      	ldr	r6, [r4, #20]
 8003864:	ea42 02d6 	orr.w	r2, r2, r6, lsr #3
 8003868:	69a6      	ldr	r6, [r4, #24]
 800386a:	ea42 02d6 	orr.w	r2, r2, r6, lsr #3
 800386e:	69e6      	ldr	r6, [r4, #28]
 8003870:	ea42 02d6 	orr.w	r2, r2, r6, lsr #3
 8003874:	6a26      	ldr	r6, [r4, #32]
 8003876:	ea42 1216 	orr.w	r2, r2, r6, lsr #4
 800387a:	4302      	orrs	r2, r0
 800387c:	4620      	mov	r0, r4
 800387e:	4311      	orrs	r1, r2
 8003880:	4a47      	ldr	r2, [pc, #284]	; (80039a0 <HAL_DMA_Init+0x1ec>)
 8003882:	6019      	str	r1, [r3, #0]
 8003884:	441a      	add	r2, r3
 8003886:	2314      	movs	r3, #20
 8003888:	fbb2 f2f3 	udiv	r2, r2, r3
 800388c:	0092      	lsls	r2, r2, #2
 800388e:	65e2      	str	r2, [r4, #92]	; 0x5c
 8003890:	f7ff fec0 	bl	8003614 <DMA_CalcBaseAndBitshift>
 8003894:	6de3      	ldr	r3, [r4, #92]	; 0x5c
 8003896:	f003 021f 	and.w	r2, r3, #31
 800389a:	2301      	movs	r3, #1
 800389c:	4093      	lsls	r3, r2
 800389e:	6043      	str	r3, [r0, #4]
 80038a0:	e094      	b.n	80039cc <HAL_DMA_Init+0x218>
 80038a2:	2202      	movs	r2, #2
 80038a4:	f884 2035 	strb.w	r2, [r4, #53]	; 0x35
 80038a8:	2200      	movs	r2, #0
 80038aa:	f884 2034 	strb.w	r2, [r4, #52]	; 0x34
 80038ae:	681a      	ldr	r2, [r3, #0]
 80038b0:	f022 0201 	bic.w	r2, r2, #1
 80038b4:	601a      	str	r2, [r3, #0]
 80038b6:	6822      	ldr	r2, [r4, #0]
 80038b8:	6813      	ldr	r3, [r2, #0]
 80038ba:	07df      	lsls	r7, r3, #31
 80038bc:	d444      	bmi.n	8003948 <HAL_DMA_Init+0x194>
 80038be:	6813      	ldr	r3, [r2, #0]
 80038c0:	4838      	ldr	r0, [pc, #224]	; (80039a4 <HAL_DMA_Init+0x1f0>)
 80038c2:	69a1      	ldr	r1, [r4, #24]
 80038c4:	4018      	ands	r0, r3
 80038c6:	e9d4 3602 	ldrd	r3, r6, [r4, #8]
 80038ca:	4333      	orrs	r3, r6
 80038cc:	6926      	ldr	r6, [r4, #16]
 80038ce:	4333      	orrs	r3, r6
 80038d0:	6966      	ldr	r6, [r4, #20]
 80038d2:	4333      	orrs	r3, r6
 80038d4:	69e6      	ldr	r6, [r4, #28]
 80038d6:	430b      	orrs	r3, r1
 80038d8:	4333      	orrs	r3, r6
 80038da:	6a26      	ldr	r6, [r4, #32]
 80038dc:	4333      	orrs	r3, r6
 80038de:	6a66      	ldr	r6, [r4, #36]	; 0x24
 80038e0:	2e04      	cmp	r6, #4
 80038e2:	ea43 0300 	orr.w	r3, r3, r0
 80038e6:	bf02      	ittt	eq
 80038e8:	e9d4 070b 	ldrdeq	r0, r7, [r4, #44]	; 0x2c
 80038ec:	4338      	orreq	r0, r7
 80038ee:	4303      	orreq	r3, r0
 80038f0:	482d      	ldr	r0, [pc, #180]	; (80039a8 <HAL_DMA_Init+0x1f4>)
 80038f2:	6800      	ldr	r0, [r0, #0]
 80038f4:	0c00      	lsrs	r0, r0, #16
 80038f6:	0400      	lsls	r0, r0, #16
 80038f8:	f1b0 5f00 	cmp.w	r0, #536870912	; 0x20000000
 80038fc:	d30e      	bcc.n	800391c <HAL_DMA_Init+0x168>
 80038fe:	6860      	ldr	r0, [r4, #4]
 8003900:	f1a0 0729 	sub.w	r7, r0, #41	; 0x29
 8003904:	2f05      	cmp	r7, #5
 8003906:	d907      	bls.n	8003918 <HAL_DMA_Init+0x164>
 8003908:	383f      	subs	r0, #63	; 0x3f
 800390a:	2813      	cmp	r0, #19
 800390c:	d806      	bhi.n	800391c <HAL_DMA_Init+0x168>
 800390e:	4f27      	ldr	r7, [pc, #156]	; (80039ac <HAL_DMA_Init+0x1f8>)
 8003910:	fa27 f000 	lsr.w	r0, r7, r0
 8003914:	07c0      	lsls	r0, r0, #31
 8003916:	d501      	bpl.n	800391c <HAL_DMA_Init+0x168>
 8003918:	f443 1380 	orr.w	r3, r3, #1048576	; 0x100000
 800391c:	6013      	str	r3, [r2, #0]
 800391e:	2e04      	cmp	r6, #4
 8003920:	6953      	ldr	r3, [r2, #20]
 8003922:	f023 0307 	bic.w	r3, r3, #7
 8003926:	ea43 0306 	orr.w	r3, r3, r6
 800392a:	d145      	bne.n	80039b8 <HAL_DMA_Init+0x204>
 800392c:	6aa0      	ldr	r0, [r4, #40]	; 0x28
 800392e:	6ae6      	ldr	r6, [r4, #44]	; 0x2c
 8003930:	4303      	orrs	r3, r0
 8003932:	2e00      	cmp	r6, #0
 8003934:	d040      	beq.n	80039b8 <HAL_DMA_Init+0x204>
 8003936:	b999      	cbnz	r1, 8003960 <HAL_DMA_Init+0x1ac>
 8003938:	2801      	cmp	r0, #1
 800393a:	d021      	beq.n	8003980 <HAL_DMA_Init+0x1cc>
 800393c:	f030 0102 	bics.w	r1, r0, #2
 8003940:	d13a      	bne.n	80039b8 <HAL_DMA_Init+0x204>
 8003942:	01f1      	lsls	r1, r6, #7
 8003944:	d538      	bpl.n	80039b8 <HAL_DMA_Init+0x204>
 8003946:	e01e      	b.n	8003986 <HAL_DMA_Init+0x1d2>
 8003948:	f7ff fbc2 	bl	80030d0 <HAL_GetTick>
 800394c:	1b80      	subs	r0, r0, r6
 800394e:	2805      	cmp	r0, #5
 8003950:	d9b1      	bls.n	80038b6 <HAL_DMA_Init+0x102>
 8003952:	2320      	movs	r3, #32
 8003954:	6563      	str	r3, [r4, #84]	; 0x54
 8003956:	2303      	movs	r3, #3
 8003958:	f884 3035 	strb.w	r3, [r4, #53]	; 0x35
 800395c:	2001      	movs	r0, #1
 800395e:	e017      	b.n	8003990 <HAL_DMA_Init+0x1dc>
 8003960:	f5b1 5f00 	cmp.w	r1, #8192	; 0x2000
 8003964:	d124      	bne.n	80039b0 <HAL_DMA_Init+0x1fc>
 8003966:	2803      	cmp	r0, #3
 8003968:	d826      	bhi.n	80039b8 <HAL_DMA_Init+0x204>
 800396a:	a101      	add	r1, pc, #4	; (adr r1, 8003970 <HAL_DMA_Init+0x1bc>)
 800396c:	f851 f020 	ldr.w	pc, [r1, r0, lsl #2]
 8003970:	08003987 	.word	0x08003987
 8003974:	08003943 	.word	0x08003943
 8003978:	08003987 	.word	0x08003987
 800397c:	08003981 	.word	0x08003981
 8003980:	f1b6 7fc0 	cmp.w	r6, #25165824	; 0x1800000
 8003984:	d118      	bne.n	80039b8 <HAL_DMA_Init+0x204>
 8003986:	2340      	movs	r3, #64	; 0x40
 8003988:	2001      	movs	r0, #1
 800398a:	6563      	str	r3, [r4, #84]	; 0x54
 800398c:	f884 0035 	strb.w	r0, [r4, #53]	; 0x35
 8003990:	bdf8      	pop	{r3, r4, r5, r6, r7, pc}
 8003992:	bf00      	nop
 8003994:	40020010 	.word	0x40020010
 8003998:	40020028 	.word	0x40020028
 800399c:	58025408 	.word	0x58025408
 80039a0:	a7fdabf8 	.word	0xa7fdabf8
 80039a4:	fe10803f 	.word	0xfe10803f
 80039a8:	5c001000 	.word	0x5c001000
 80039ac:	000f030f 	.word	0x000f030f
 80039b0:	2802      	cmp	r0, #2
 80039b2:	d9e8      	bls.n	8003986 <HAL_DMA_Init+0x1d2>
 80039b4:	2803      	cmp	r0, #3
 80039b6:	d0c4      	beq.n	8003942 <HAL_DMA_Init+0x18e>
 80039b8:	6153      	str	r3, [r2, #20]
 80039ba:	4620      	mov	r0, r4
 80039bc:	f7ff fe2a 	bl	8003614 <DMA_CalcBaseAndBitshift>
 80039c0:	6de3      	ldr	r3, [r4, #92]	; 0x5c
 80039c2:	f003 021f 	and.w	r2, r3, #31
 80039c6:	233f      	movs	r3, #63	; 0x3f
 80039c8:	4093      	lsls	r3, r2
 80039ca:	6083      	str	r3, [r0, #8]
 80039cc:	6823      	ldr	r3, [r4, #0]
 80039ce:	42ab      	cmp	r3, r5
 80039d0:	d045      	beq.n	8003a5e <HAL_DMA_Init+0x2aa>
 80039d2:	4a45      	ldr	r2, [pc, #276]	; (8003ae8 <HAL_DMA_Init+0x334>)
 80039d4:	4293      	cmp	r3, r2
 80039d6:	d042      	beq.n	8003a5e <HAL_DMA_Init+0x2aa>
 80039d8:	3218      	adds	r2, #24
 80039da:	4293      	cmp	r3, r2
 80039dc:	d03f      	beq.n	8003a5e <HAL_DMA_Init+0x2aa>
 80039de:	3218      	adds	r2, #24
 80039e0:	4293      	cmp	r3, r2
 80039e2:	d03c      	beq.n	8003a5e <HAL_DMA_Init+0x2aa>
 80039e4:	3218      	adds	r2, #24
 80039e6:	4293      	cmp	r3, r2
 80039e8:	d039      	beq.n	8003a5e <HAL_DMA_Init+0x2aa>
 80039ea:	3218      	adds	r2, #24
 80039ec:	4293      	cmp	r3, r2
 80039ee:	d036      	beq.n	8003a5e <HAL_DMA_Init+0x2aa>
 80039f0:	3218      	adds	r2, #24
 80039f2:	4293      	cmp	r3, r2
 80039f4:	d033      	beq.n	8003a5e <HAL_DMA_Init+0x2aa>
 80039f6:	3218      	adds	r2, #24
 80039f8:	4293      	cmp	r3, r2
 80039fa:	d030      	beq.n	8003a5e <HAL_DMA_Init+0x2aa>
 80039fc:	f502 7256 	add.w	r2, r2, #856	; 0x358
 8003a00:	4293      	cmp	r3, r2
 8003a02:	d02c      	beq.n	8003a5e <HAL_DMA_Init+0x2aa>
 8003a04:	3218      	adds	r2, #24
 8003a06:	4293      	cmp	r3, r2
 8003a08:	d029      	beq.n	8003a5e <HAL_DMA_Init+0x2aa>
 8003a0a:	3218      	adds	r2, #24
 8003a0c:	4293      	cmp	r3, r2
 8003a0e:	d026      	beq.n	8003a5e <HAL_DMA_Init+0x2aa>
 8003a10:	3218      	adds	r2, #24
 8003a12:	4293      	cmp	r3, r2
 8003a14:	d023      	beq.n	8003a5e <HAL_DMA_Init+0x2aa>
 8003a16:	3218      	adds	r2, #24
 8003a18:	4293      	cmp	r3, r2
 8003a1a:	d020      	beq.n	8003a5e <HAL_DMA_Init+0x2aa>
 8003a1c:	3218      	adds	r2, #24
 8003a1e:	4293      	cmp	r3, r2
 8003a20:	d01d      	beq.n	8003a5e <HAL_DMA_Init+0x2aa>
 8003a22:	3218      	adds	r2, #24
 8003a24:	4293      	cmp	r3, r2
 8003a26:	d01a      	beq.n	8003a5e <HAL_DMA_Init+0x2aa>
 8003a28:	3218      	adds	r2, #24
 8003a2a:	4293      	cmp	r3, r2
 8003a2c:	d017      	beq.n	8003a5e <HAL_DMA_Init+0x2aa>
 8003a2e:	4a2f      	ldr	r2, [pc, #188]	; (8003aec <HAL_DMA_Init+0x338>)
 8003a30:	4293      	cmp	r3, r2
 8003a32:	d014      	beq.n	8003a5e <HAL_DMA_Init+0x2aa>
 8003a34:	3214      	adds	r2, #20
 8003a36:	4293      	cmp	r3, r2
 8003a38:	d011      	beq.n	8003a5e <HAL_DMA_Init+0x2aa>
 8003a3a:	3214      	adds	r2, #20
 8003a3c:	4293      	cmp	r3, r2
 8003a3e:	d00e      	beq.n	8003a5e <HAL_DMA_Init+0x2aa>
 8003a40:	3214      	adds	r2, #20
 8003a42:	4293      	cmp	r3, r2
 8003a44:	d00b      	beq.n	8003a5e <HAL_DMA_Init+0x2aa>
 8003a46:	3214      	adds	r2, #20
 8003a48:	4293      	cmp	r3, r2
 8003a4a:	d008      	beq.n	8003a5e <HAL_DMA_Init+0x2aa>
 8003a4c:	3214      	adds	r2, #20
 8003a4e:	4293      	cmp	r3, r2
 8003a50:	d005      	beq.n	8003a5e <HAL_DMA_Init+0x2aa>
 8003a52:	3214      	adds	r2, #20
 8003a54:	4293      	cmp	r3, r2
 8003a56:	d002      	beq.n	8003a5e <HAL_DMA_Init+0x2aa>
 8003a58:	3214      	adds	r2, #20
 8003a5a:	4293      	cmp	r3, r2
 8003a5c:	d119      	bne.n	8003a92 <HAL_DMA_Init+0x2de>
 8003a5e:	4620      	mov	r0, r4
 8003a60:	2500      	movs	r5, #0
 8003a62:	f7ff fe23 	bl	80036ac <DMA_CalcDMAMUXChannelBaseAndMask>
 8003a66:	68a3      	ldr	r3, [r4, #8]
 8003a68:	6e22      	ldr	r2, [r4, #96]	; 0x60
 8003a6a:	2b80      	cmp	r3, #128	; 0x80
 8003a6c:	bf04      	itt	eq
 8003a6e:	2300      	moveq	r3, #0
 8003a70:	6063      	streq	r3, [r4, #4]
 8003a72:	6863      	ldr	r3, [r4, #4]
 8003a74:	b2d9      	uxtb	r1, r3
 8003a76:	3b01      	subs	r3, #1
 8003a78:	6011      	str	r1, [r2, #0]
 8003a7a:	2b07      	cmp	r3, #7
 8003a7c:	e9d4 2119 	ldrd	r2, r1, [r4, #100]	; 0x64
 8003a80:	6051      	str	r1, [r2, #4]
 8003a82:	d82c      	bhi.n	8003ade <HAL_DMA_Init+0x32a>
 8003a84:	f7ff fe5e 	bl	8003744 <DMA_CalcDMAMUXRequestGenBaseAndMask>
 8003a88:	6ee3      	ldr	r3, [r4, #108]	; 0x6c
 8003a8a:	601d      	str	r5, [r3, #0]
 8003a8c:	e9d4 321c 	ldrd	r3, r2, [r4, #112]	; 0x70
 8003a90:	605a      	str	r2, [r3, #4]
 8003a92:	2000      	movs	r0, #0
 8003a94:	2301      	movs	r3, #1
 8003a96:	6560      	str	r0, [r4, #84]	; 0x54
 8003a98:	f884 3035 	strb.w	r3, [r4, #53]	; 0x35
 8003a9c:	e778      	b.n	8003990 <HAL_DMA_Init+0x1dc>
 8003a9e:	4a14      	ldr	r2, [pc, #80]	; (8003af0 <HAL_DMA_Init+0x33c>)
 8003aa0:	4293      	cmp	r3, r2
 8003aa2:	f43f aec5 	beq.w	8003830 <HAL_DMA_Init+0x7c>
 8003aa6:	3214      	adds	r2, #20
 8003aa8:	4293      	cmp	r3, r2
 8003aaa:	f43f aec1 	beq.w	8003830 <HAL_DMA_Init+0x7c>
 8003aae:	3214      	adds	r2, #20
 8003ab0:	4293      	cmp	r3, r2
 8003ab2:	f43f aebd 	beq.w	8003830 <HAL_DMA_Init+0x7c>
 8003ab6:	3214      	adds	r2, #20
 8003ab8:	4293      	cmp	r3, r2
 8003aba:	f43f aeb9 	beq.w	8003830 <HAL_DMA_Init+0x7c>
 8003abe:	3214      	adds	r2, #20
 8003ac0:	4293      	cmp	r3, r2
 8003ac2:	f43f aeb5 	beq.w	8003830 <HAL_DMA_Init+0x7c>
 8003ac6:	3214      	adds	r2, #20
 8003ac8:	4293      	cmp	r3, r2
 8003aca:	f43f aeb1 	beq.w	8003830 <HAL_DMA_Init+0x7c>
 8003ace:	3214      	adds	r2, #20
 8003ad0:	4293      	cmp	r3, r2
 8003ad2:	f43f aead 	beq.w	8003830 <HAL_DMA_Init+0x7c>
 8003ad6:	2340      	movs	r3, #64	; 0x40
 8003ad8:	e73c      	b.n	8003954 <HAL_DMA_Init+0x1a0>
 8003ada:	2110      	movs	r1, #16
 8003adc:	e6bc      	b.n	8003858 <HAL_DMA_Init+0xa4>
 8003ade:	e9c4 551b 	strd	r5, r5, [r4, #108]	; 0x6c
 8003ae2:	6765      	str	r5, [r4, #116]	; 0x74
 8003ae4:	e7d5      	b.n	8003a92 <HAL_DMA_Init+0x2de>
 8003ae6:	bf00      	nop
 8003ae8:	40020028 	.word	0x40020028
 8003aec:	58025408 	.word	0x58025408
 8003af0:	5802541c 	.word	0x5802541c

08003af4 <HAL_DMA_Start_IT>:
 8003af4:	b570      	push	{r4, r5, r6, lr}
 8003af6:	2800      	cmp	r0, #0
 8003af8:	f000 810a 	beq.w	8003d10 <HAL_DMA_Start_IT+0x21c>
 8003afc:	f890 4034 	ldrb.w	r4, [r0, #52]	; 0x34
 8003b00:	2c01      	cmp	r4, #1
 8003b02:	f000 8107 	beq.w	8003d14 <HAL_DMA_Start_IT+0x220>
 8003b06:	2401      	movs	r4, #1
 8003b08:	f890 5035 	ldrb.w	r5, [r0, #53]	; 0x35
 8003b0c:	42a5      	cmp	r5, r4
 8003b0e:	f880 4034 	strb.w	r4, [r0, #52]	; 0x34
 8003b12:	f04f 0500 	mov.w	r5, #0
 8003b16:	f040 80f6 	bne.w	8003d06 <HAL_DMA_Start_IT+0x212>
 8003b1a:	2402      	movs	r4, #2
 8003b1c:	f880 4035 	strb.w	r4, [r0, #53]	; 0x35
 8003b20:	6804      	ldr	r4, [r0, #0]
 8003b22:	6545      	str	r5, [r0, #84]	; 0x54
 8003b24:	4d7c      	ldr	r5, [pc, #496]	; (8003d18 <HAL_DMA_Start_IT+0x224>)
 8003b26:	42ac      	cmp	r4, r5
 8003b28:	d01e      	beq.n	8003b68 <HAL_DMA_Start_IT+0x74>
 8003b2a:	4e7c      	ldr	r6, [pc, #496]	; (8003d1c <HAL_DMA_Start_IT+0x228>)
 8003b2c:	42b4      	cmp	r4, r6
 8003b2e:	d01b      	beq.n	8003b68 <HAL_DMA_Start_IT+0x74>
 8003b30:	3618      	adds	r6, #24
 8003b32:	42b4      	cmp	r4, r6
 8003b34:	d018      	beq.n	8003b68 <HAL_DMA_Start_IT+0x74>
 8003b36:	3618      	adds	r6, #24
 8003b38:	42b4      	cmp	r4, r6
 8003b3a:	d015      	beq.n	8003b68 <HAL_DMA_Start_IT+0x74>
 8003b3c:	3618      	adds	r6, #24
 8003b3e:	42b4      	cmp	r4, r6
 8003b40:	d012      	beq.n	8003b68 <HAL_DMA_Start_IT+0x74>
 8003b42:	3618      	adds	r6, #24
 8003b44:	42b4      	cmp	r4, r6
 8003b46:	d00f      	beq.n	8003b68 <HAL_DMA_Start_IT+0x74>
 8003b48:	3618      	adds	r6, #24
 8003b4a:	42b4      	cmp	r4, r6
 8003b4c:	d00c      	beq.n	8003b68 <HAL_DMA_Start_IT+0x74>
 8003b4e:	3618      	adds	r6, #24
 8003b50:	42b4      	cmp	r4, r6
 8003b52:	d009      	beq.n	8003b68 <HAL_DMA_Start_IT+0x74>
 8003b54:	f506 7656 	add.w	r6, r6, #856	; 0x358
 8003b58:	42b4      	cmp	r4, r6
 8003b5a:	d005      	beq.n	8003b68 <HAL_DMA_Start_IT+0x74>
 8003b5c:	3618      	adds	r6, #24
 8003b5e:	42b4      	cmp	r4, r6
 8003b60:	d002      	beq.n	8003b68 <HAL_DMA_Start_IT+0x74>
 8003b62:	3618      	adds	r6, #24
 8003b64:	42b4      	cmp	r4, r6
 8003b66:	d0ff      	beq.n	8003b68 <HAL_DMA_Start_IT+0x74>
 8003b68:	6826      	ldr	r6, [r4, #0]
 8003b6a:	f026 0601 	bic.w	r6, r6, #1
 8003b6e:	6026      	str	r6, [r4, #0]
 8003b70:	f7ff fc8e 	bl	8003490 <DMA_SetConfig>
 8003b74:	42ac      	cmp	r4, r5
 8003b76:	6c02      	ldr	r2, [r0, #64]	; 0x40
 8003b78:	d053      	beq.n	8003c22 <HAL_DMA_Start_IT+0x12e>
 8003b7a:	4b68      	ldr	r3, [pc, #416]	; (8003d1c <HAL_DMA_Start_IT+0x228>)
 8003b7c:	429c      	cmp	r4, r3
 8003b7e:	d050      	beq.n	8003c22 <HAL_DMA_Start_IT+0x12e>
 8003b80:	3318      	adds	r3, #24
 8003b82:	429c      	cmp	r4, r3
 8003b84:	d04d      	beq.n	8003c22 <HAL_DMA_Start_IT+0x12e>
 8003b86:	3318      	adds	r3, #24
 8003b88:	429c      	cmp	r4, r3
 8003b8a:	d04a      	beq.n	8003c22 <HAL_DMA_Start_IT+0x12e>
 8003b8c:	3318      	adds	r3, #24
 8003b8e:	429c      	cmp	r4, r3
 8003b90:	d047      	beq.n	8003c22 <HAL_DMA_Start_IT+0x12e>
 8003b92:	3318      	adds	r3, #24
 8003b94:	429c      	cmp	r4, r3
 8003b96:	d044      	beq.n	8003c22 <HAL_DMA_Start_IT+0x12e>
 8003b98:	3318      	adds	r3, #24
 8003b9a:	429c      	cmp	r4, r3
 8003b9c:	d041      	beq.n	8003c22 <HAL_DMA_Start_IT+0x12e>
 8003b9e:	3318      	adds	r3, #24
 8003ba0:	429c      	cmp	r4, r3
 8003ba2:	d03e      	beq.n	8003c22 <HAL_DMA_Start_IT+0x12e>
 8003ba4:	f503 7356 	add.w	r3, r3, #856	; 0x358
 8003ba8:	429c      	cmp	r4, r3
 8003baa:	d03a      	beq.n	8003c22 <HAL_DMA_Start_IT+0x12e>
 8003bac:	3318      	adds	r3, #24
 8003bae:	429c      	cmp	r4, r3
 8003bb0:	d037      	beq.n	8003c22 <HAL_DMA_Start_IT+0x12e>
 8003bb2:	3318      	adds	r3, #24
 8003bb4:	429c      	cmp	r4, r3
 8003bb6:	d034      	beq.n	8003c22 <HAL_DMA_Start_IT+0x12e>
 8003bb8:	3318      	adds	r3, #24
 8003bba:	429c      	cmp	r4, r3
 8003bbc:	d031      	beq.n	8003c22 <HAL_DMA_Start_IT+0x12e>
 8003bbe:	3318      	adds	r3, #24
 8003bc0:	429c      	cmp	r4, r3
 8003bc2:	d02e      	beq.n	8003c22 <HAL_DMA_Start_IT+0x12e>
 8003bc4:	3318      	adds	r3, #24
 8003bc6:	429c      	cmp	r4, r3
 8003bc8:	d02b      	beq.n	8003c22 <HAL_DMA_Start_IT+0x12e>
 8003bca:	3318      	adds	r3, #24
 8003bcc:	429c      	cmp	r4, r3
 8003bce:	d028      	beq.n	8003c22 <HAL_DMA_Start_IT+0x12e>
 8003bd0:	3318      	adds	r3, #24
 8003bd2:	429c      	cmp	r4, r3
 8003bd4:	d025      	beq.n	8003c22 <HAL_DMA_Start_IT+0x12e>
 8003bd6:	6823      	ldr	r3, [r4, #0]
 8003bd8:	f023 030e 	bic.w	r3, r3, #14
 8003bdc:	f043 030a 	orr.w	r3, r3, #10
 8003be0:	6023      	str	r3, [r4, #0]
 8003be2:	2a00      	cmp	r2, #0
 8003be4:	d156      	bne.n	8003c94 <HAL_DMA_Start_IT+0x1a0>
 8003be6:	4b4e      	ldr	r3, [pc, #312]	; (8003d20 <HAL_DMA_Start_IT+0x22c>)
 8003be8:	429c      	cmp	r4, r3
 8003bea:	d027      	beq.n	8003c3c <HAL_DMA_Start_IT+0x148>
 8003bec:	4b4d      	ldr	r3, [pc, #308]	; (8003d24 <HAL_DMA_Start_IT+0x230>)
 8003bee:	429c      	cmp	r4, r3
 8003bf0:	d024      	beq.n	8003c3c <HAL_DMA_Start_IT+0x148>
 8003bf2:	3314      	adds	r3, #20
 8003bf4:	429c      	cmp	r4, r3
 8003bf6:	d021      	beq.n	8003c3c <HAL_DMA_Start_IT+0x148>
 8003bf8:	3314      	adds	r3, #20
 8003bfa:	429c      	cmp	r4, r3
 8003bfc:	d01e      	beq.n	8003c3c <HAL_DMA_Start_IT+0x148>
 8003bfe:	3314      	adds	r3, #20
 8003c00:	429c      	cmp	r4, r3
 8003c02:	d01b      	beq.n	8003c3c <HAL_DMA_Start_IT+0x148>
 8003c04:	3314      	adds	r3, #20
 8003c06:	429c      	cmp	r4, r3
 8003c08:	d018      	beq.n	8003c3c <HAL_DMA_Start_IT+0x148>
 8003c0a:	3314      	adds	r3, #20
 8003c0c:	429c      	cmp	r4, r3
 8003c0e:	d015      	beq.n	8003c3c <HAL_DMA_Start_IT+0x148>
 8003c10:	3314      	adds	r3, #20
 8003c12:	429c      	cmp	r4, r3
 8003c14:	d012      	beq.n	8003c3c <HAL_DMA_Start_IT+0x148>
 8003c16:	6823      	ldr	r3, [r4, #0]
 8003c18:	2000      	movs	r0, #0
 8003c1a:	f043 0301 	orr.w	r3, r3, #1
 8003c1e:	6023      	str	r3, [r4, #0]
 8003c20:	bd70      	pop	{r4, r5, r6, pc}
 8003c22:	6823      	ldr	r3, [r4, #0]
 8003c24:	f023 031e 	bic.w	r3, r3, #30
 8003c28:	f043 0316 	orr.w	r3, r3, #22
 8003c2c:	6023      	str	r3, [r4, #0]
 8003c2e:	b11a      	cbz	r2, 8003c38 <HAL_DMA_Start_IT+0x144>
 8003c30:	6823      	ldr	r3, [r4, #0]
 8003c32:	f043 0308 	orr.w	r3, r3, #8
 8003c36:	6023      	str	r3, [r4, #0]
 8003c38:	42ac      	cmp	r4, r5
 8003c3a:	d130      	bne.n	8003c9e <HAL_DMA_Start_IT+0x1aa>
 8003c3c:	6e03      	ldr	r3, [r0, #96]	; 0x60
 8003c3e:	681a      	ldr	r2, [r3, #0]
 8003c40:	03d2      	lsls	r2, r2, #15
 8003c42:	d45b      	bmi.n	8003cfc <HAL_DMA_Start_IT+0x208>
 8003c44:	6ec3      	ldr	r3, [r0, #108]	; 0x6c
 8003c46:	b11b      	cbz	r3, 8003c50 <HAL_DMA_Start_IT+0x15c>
 8003c48:	681a      	ldr	r2, [r3, #0]
 8003c4a:	f442 7280 	orr.w	r2, r2, #256	; 0x100
 8003c4e:	601a      	str	r2, [r3, #0]
 8003c50:	42ac      	cmp	r4, r5
 8003c52:	d0e0      	beq.n	8003c16 <HAL_DMA_Start_IT+0x122>
 8003c54:	4b31      	ldr	r3, [pc, #196]	; (8003d1c <HAL_DMA_Start_IT+0x228>)
 8003c56:	429c      	cmp	r4, r3
 8003c58:	d0dd      	beq.n	8003c16 <HAL_DMA_Start_IT+0x122>
 8003c5a:	3318      	adds	r3, #24
 8003c5c:	429c      	cmp	r4, r3
 8003c5e:	d0da      	beq.n	8003c16 <HAL_DMA_Start_IT+0x122>
 8003c60:	3318      	adds	r3, #24
 8003c62:	429c      	cmp	r4, r3
 8003c64:	d0d7      	beq.n	8003c16 <HAL_DMA_Start_IT+0x122>
 8003c66:	3318      	adds	r3, #24
 8003c68:	429c      	cmp	r4, r3
 8003c6a:	d0d4      	beq.n	8003c16 <HAL_DMA_Start_IT+0x122>
 8003c6c:	3318      	adds	r3, #24
 8003c6e:	429c      	cmp	r4, r3
 8003c70:	d0d1      	beq.n	8003c16 <HAL_DMA_Start_IT+0x122>
 8003c72:	3318      	adds	r3, #24
 8003c74:	429c      	cmp	r4, r3
 8003c76:	d0ce      	beq.n	8003c16 <HAL_DMA_Start_IT+0x122>
 8003c78:	3318      	adds	r3, #24
 8003c7a:	429c      	cmp	r4, r3
 8003c7c:	d0cb      	beq.n	8003c16 <HAL_DMA_Start_IT+0x122>
 8003c7e:	f503 7356 	add.w	r3, r3, #856	; 0x358
 8003c82:	429c      	cmp	r4, r3
 8003c84:	d0c7      	beq.n	8003c16 <HAL_DMA_Start_IT+0x122>
 8003c86:	3318      	adds	r3, #24
 8003c88:	429c      	cmp	r4, r3
 8003c8a:	d0c4      	beq.n	8003c16 <HAL_DMA_Start_IT+0x122>
 8003c8c:	3318      	adds	r3, #24
 8003c8e:	429c      	cmp	r4, r3
 8003c90:	d0c1      	beq.n	8003c16 <HAL_DMA_Start_IT+0x122>
 8003c92:	e7c0      	b.n	8003c16 <HAL_DMA_Start_IT+0x122>
 8003c94:	6823      	ldr	r3, [r4, #0]
 8003c96:	f043 0304 	orr.w	r3, r3, #4
 8003c9a:	6023      	str	r3, [r4, #0]
 8003c9c:	e7a3      	b.n	8003be6 <HAL_DMA_Start_IT+0xf2>
 8003c9e:	4b1f      	ldr	r3, [pc, #124]	; (8003d1c <HAL_DMA_Start_IT+0x228>)
 8003ca0:	429c      	cmp	r4, r3
 8003ca2:	d0cb      	beq.n	8003c3c <HAL_DMA_Start_IT+0x148>
 8003ca4:	3318      	adds	r3, #24
 8003ca6:	429c      	cmp	r4, r3
 8003ca8:	d0c8      	beq.n	8003c3c <HAL_DMA_Start_IT+0x148>
 8003caa:	3318      	adds	r3, #24
 8003cac:	429c      	cmp	r4, r3
 8003cae:	d0c5      	beq.n	8003c3c <HAL_DMA_Start_IT+0x148>
 8003cb0:	3318      	adds	r3, #24
 8003cb2:	429c      	cmp	r4, r3
 8003cb4:	d0c2      	beq.n	8003c3c <HAL_DMA_Start_IT+0x148>
 8003cb6:	3318      	adds	r3, #24
 8003cb8:	429c      	cmp	r4, r3
 8003cba:	d0bf      	beq.n	8003c3c <HAL_DMA_Start_IT+0x148>
 8003cbc:	3318      	adds	r3, #24
 8003cbe:	429c      	cmp	r4, r3
 8003cc0:	d0bc      	beq.n	8003c3c <HAL_DMA_Start_IT+0x148>
 8003cc2:	3318      	adds	r3, #24
 8003cc4:	429c      	cmp	r4, r3
 8003cc6:	d0b9      	beq.n	8003c3c <HAL_DMA_Start_IT+0x148>
 8003cc8:	f503 7356 	add.w	r3, r3, #856	; 0x358
 8003ccc:	429c      	cmp	r4, r3
 8003cce:	d0b5      	beq.n	8003c3c <HAL_DMA_Start_IT+0x148>
 8003cd0:	3318      	adds	r3, #24
 8003cd2:	429c      	cmp	r4, r3
 8003cd4:	d0b2      	beq.n	8003c3c <HAL_DMA_Start_IT+0x148>
 8003cd6:	3318      	adds	r3, #24
 8003cd8:	429c      	cmp	r4, r3
 8003cda:	d0af      	beq.n	8003c3c <HAL_DMA_Start_IT+0x148>
 8003cdc:	3318      	adds	r3, #24
 8003cde:	429c      	cmp	r4, r3
 8003ce0:	d0ac      	beq.n	8003c3c <HAL_DMA_Start_IT+0x148>
 8003ce2:	3318      	adds	r3, #24
 8003ce4:	429c      	cmp	r4, r3
 8003ce6:	d0a9      	beq.n	8003c3c <HAL_DMA_Start_IT+0x148>
 8003ce8:	3318      	adds	r3, #24
 8003cea:	429c      	cmp	r4, r3
 8003cec:	d0a6      	beq.n	8003c3c <HAL_DMA_Start_IT+0x148>
 8003cee:	3318      	adds	r3, #24
 8003cf0:	429c      	cmp	r4, r3
 8003cf2:	d0a3      	beq.n	8003c3c <HAL_DMA_Start_IT+0x148>
 8003cf4:	3318      	adds	r3, #24
 8003cf6:	429c      	cmp	r4, r3
 8003cf8:	d0a0      	beq.n	8003c3c <HAL_DMA_Start_IT+0x148>
 8003cfa:	e774      	b.n	8003be6 <HAL_DMA_Start_IT+0xf2>
 8003cfc:	681a      	ldr	r2, [r3, #0]
 8003cfe:	f442 7280 	orr.w	r2, r2, #256	; 0x100
 8003d02:	601a      	str	r2, [r3, #0]
 8003d04:	e79e      	b.n	8003c44 <HAL_DMA_Start_IT+0x150>
 8003d06:	f44f 6300 	mov.w	r3, #2048	; 0x800
 8003d0a:	f880 5034 	strb.w	r5, [r0, #52]	; 0x34
 8003d0e:	6543      	str	r3, [r0, #84]	; 0x54
 8003d10:	2001      	movs	r0, #1
 8003d12:	e785      	b.n	8003c20 <HAL_DMA_Start_IT+0x12c>
 8003d14:	2002      	movs	r0, #2
 8003d16:	e783      	b.n	8003c20 <HAL_DMA_Start_IT+0x12c>
 8003d18:	40020010 	.word	0x40020010
 8003d1c:	40020028 	.word	0x40020028
 8003d20:	58025408 	.word	0x58025408
 8003d24:	5802541c 	.word	0x5802541c

08003d28 <HAL_DMA_Abort_IT>:
 8003d28:	b510      	push	{r4, lr}
 8003d2a:	b128      	cbz	r0, 8003d38 <HAL_DMA_Abort_IT+0x10>
 8003d2c:	f890 3035 	ldrb.w	r3, [r0, #53]	; 0x35
 8003d30:	2b02      	cmp	r3, #2
 8003d32:	d003      	beq.n	8003d3c <HAL_DMA_Abort_IT+0x14>
 8003d34:	2380      	movs	r3, #128	; 0x80
 8003d36:	6543      	str	r3, [r0, #84]	; 0x54
 8003d38:	2001      	movs	r0, #1
 8003d3a:	e05d      	b.n	8003df8 <HAL_DMA_Abort_IT+0xd0>
 8003d3c:	6803      	ldr	r3, [r0, #0]
 8003d3e:	4a3f      	ldr	r2, [pc, #252]	; (8003e3c <HAL_DMA_Abort_IT+0x114>)
 8003d40:	4293      	cmp	r3, r2
 8003d42:	d051      	beq.n	8003de8 <HAL_DMA_Abort_IT+0xc0>
 8003d44:	3218      	adds	r2, #24
 8003d46:	4293      	cmp	r3, r2
 8003d48:	d04e      	beq.n	8003de8 <HAL_DMA_Abort_IT+0xc0>
 8003d4a:	3218      	adds	r2, #24
 8003d4c:	4293      	cmp	r3, r2
 8003d4e:	d04b      	beq.n	8003de8 <HAL_DMA_Abort_IT+0xc0>
 8003d50:	3218      	adds	r2, #24
 8003d52:	4293      	cmp	r3, r2
 8003d54:	d048      	beq.n	8003de8 <HAL_DMA_Abort_IT+0xc0>
 8003d56:	3218      	adds	r2, #24
 8003d58:	4293      	cmp	r3, r2
 8003d5a:	d045      	beq.n	8003de8 <HAL_DMA_Abort_IT+0xc0>
 8003d5c:	3218      	adds	r2, #24
 8003d5e:	4293      	cmp	r3, r2
 8003d60:	d042      	beq.n	8003de8 <HAL_DMA_Abort_IT+0xc0>
 8003d62:	3218      	adds	r2, #24
 8003d64:	4293      	cmp	r3, r2
 8003d66:	d03f      	beq.n	8003de8 <HAL_DMA_Abort_IT+0xc0>
 8003d68:	3218      	adds	r2, #24
 8003d6a:	4293      	cmp	r3, r2
 8003d6c:	d03c      	beq.n	8003de8 <HAL_DMA_Abort_IT+0xc0>
 8003d6e:	f502 7256 	add.w	r2, r2, #856	; 0x358
 8003d72:	4293      	cmp	r3, r2
 8003d74:	d038      	beq.n	8003de8 <HAL_DMA_Abort_IT+0xc0>
 8003d76:	3218      	adds	r2, #24
 8003d78:	4293      	cmp	r3, r2
 8003d7a:	d035      	beq.n	8003de8 <HAL_DMA_Abort_IT+0xc0>
 8003d7c:	3218      	adds	r2, #24
 8003d7e:	4293      	cmp	r3, r2
 8003d80:	d032      	beq.n	8003de8 <HAL_DMA_Abort_IT+0xc0>
 8003d82:	3218      	adds	r2, #24
 8003d84:	4293      	cmp	r3, r2
 8003d86:	d02f      	beq.n	8003de8 <HAL_DMA_Abort_IT+0xc0>
 8003d88:	3218      	adds	r2, #24
 8003d8a:	4293      	cmp	r3, r2
 8003d8c:	d02c      	beq.n	8003de8 <HAL_DMA_Abort_IT+0xc0>
 8003d8e:	3218      	adds	r2, #24
 8003d90:	4293      	cmp	r3, r2
 8003d92:	d029      	beq.n	8003de8 <HAL_DMA_Abort_IT+0xc0>
 8003d94:	3218      	adds	r2, #24
 8003d96:	4293      	cmp	r3, r2
 8003d98:	d026      	beq.n	8003de8 <HAL_DMA_Abort_IT+0xc0>
 8003d9a:	3218      	adds	r2, #24
 8003d9c:	4293      	cmp	r3, r2
 8003d9e:	d023      	beq.n	8003de8 <HAL_DMA_Abort_IT+0xc0>
 8003da0:	681a      	ldr	r2, [r3, #0]
 8003da2:	f022 020e 	bic.w	r2, r2, #14
 8003da6:	601a      	str	r2, [r3, #0]
 8003da8:	681a      	ldr	r2, [r3, #0]
 8003daa:	f022 0201 	bic.w	r2, r2, #1
 8003dae:	601a      	str	r2, [r3, #0]
 8003db0:	4a23      	ldr	r2, [pc, #140]	; (8003e40 <HAL_DMA_Abort_IT+0x118>)
 8003db2:	4293      	cmp	r3, r2
 8003db4:	d121      	bne.n	8003dfa <HAL_DMA_Abort_IT+0xd2>
 8003db6:	6e02      	ldr	r2, [r0, #96]	; 0x60
 8003db8:	6813      	ldr	r3, [r2, #0]
 8003dba:	f423 7380 	bic.w	r3, r3, #256	; 0x100
 8003dbe:	6013      	str	r3, [r2, #0]
 8003dc0:	e9d0 1316 	ldrd	r1, r3, [r0, #88]	; 0x58
 8003dc4:	f003 021f 	and.w	r2, r3, #31
 8003dc8:	2301      	movs	r3, #1
 8003dca:	4093      	lsls	r3, r2
 8003dcc:	604b      	str	r3, [r1, #4]
 8003dce:	e9d0 3219 	ldrd	r3, r2, [r0, #100]	; 0x64
 8003dd2:	605a      	str	r2, [r3, #4]
 8003dd4:	6ec3      	ldr	r3, [r0, #108]	; 0x6c
 8003dd6:	b32b      	cbz	r3, 8003e24 <HAL_DMA_Abort_IT+0xfc>
 8003dd8:	681a      	ldr	r2, [r3, #0]
 8003dda:	f422 7280 	bic.w	r2, r2, #256	; 0x100
 8003dde:	601a      	str	r2, [r3, #0]
 8003de0:	e9d0 321c 	ldrd	r3, r2, [r0, #112]	; 0x70
 8003de4:	605a      	str	r2, [r3, #4]
 8003de6:	e01d      	b.n	8003e24 <HAL_DMA_Abort_IT+0xfc>
 8003de8:	2204      	movs	r2, #4
 8003dea:	f880 2035 	strb.w	r2, [r0, #53]	; 0x35
 8003dee:	681a      	ldr	r2, [r3, #0]
 8003df0:	f022 0201 	bic.w	r2, r2, #1
 8003df4:	601a      	str	r2, [r3, #0]
 8003df6:	2000      	movs	r0, #0
 8003df8:	bd10      	pop	{r4, pc}
 8003dfa:	4a12      	ldr	r2, [pc, #72]	; (8003e44 <HAL_DMA_Abort_IT+0x11c>)
 8003dfc:	4293      	cmp	r3, r2
 8003dfe:	d0da      	beq.n	8003db6 <HAL_DMA_Abort_IT+0x8e>
 8003e00:	3214      	adds	r2, #20
 8003e02:	4293      	cmp	r3, r2
 8003e04:	d0d7      	beq.n	8003db6 <HAL_DMA_Abort_IT+0x8e>
 8003e06:	3214      	adds	r2, #20
 8003e08:	4293      	cmp	r3, r2
 8003e0a:	d0d4      	beq.n	8003db6 <HAL_DMA_Abort_IT+0x8e>
 8003e0c:	3214      	adds	r2, #20
 8003e0e:	4293      	cmp	r3, r2
 8003e10:	d0d1      	beq.n	8003db6 <HAL_DMA_Abort_IT+0x8e>
 8003e12:	3214      	adds	r2, #20
 8003e14:	4293      	cmp	r3, r2
 8003e16:	d0ce      	beq.n	8003db6 <HAL_DMA_Abort_IT+0x8e>
 8003e18:	3214      	adds	r2, #20
 8003e1a:	4293      	cmp	r3, r2
 8003e1c:	d0cb      	beq.n	8003db6 <HAL_DMA_Abort_IT+0x8e>
 8003e1e:	3214      	adds	r2, #20
 8003e20:	4293      	cmp	r3, r2
 8003e22:	d0c8      	beq.n	8003db6 <HAL_DMA_Abort_IT+0x8e>
 8003e24:	2301      	movs	r3, #1
 8003e26:	2400      	movs	r4, #0
 8003e28:	f880 3035 	strb.w	r3, [r0, #53]	; 0x35
 8003e2c:	6d03      	ldr	r3, [r0, #80]	; 0x50
 8003e2e:	f880 4034 	strb.w	r4, [r0, #52]	; 0x34
 8003e32:	b10b      	cbz	r3, 8003e38 <HAL_DMA_Abort_IT+0x110>
 8003e34:	4798      	blx	r3
 8003e36:	e7de      	b.n	8003df6 <HAL_DMA_Abort_IT+0xce>
 8003e38:	4618      	mov	r0, r3
 8003e3a:	e7dd      	b.n	8003df8 <HAL_DMA_Abort_IT+0xd0>
 8003e3c:	40020010 	.word	0x40020010
 8003e40:	58025408 	.word	0x58025408
 8003e44:	5802541c 	.word	0x5802541c

08003e48 <HAL_DMA_IRQHandler>:
 8003e48:	2300      	movs	r3, #0
 8003e4a:	e92d 41f3 	stmdb	sp!, {r0, r1, r4, r5, r6, r7, r8, lr}
 8003e4e:	9301      	str	r3, [sp, #4]
 8003e50:	4604      	mov	r4, r0
 8003e52:	4b84      	ldr	r3, [pc, #528]	; (8004064 <HAL_DMA_IRQHandler+0x21c>)
 8003e54:	4f84      	ldr	r7, [pc, #528]	; (8004068 <HAL_DMA_IRQHandler+0x220>)
 8003e56:	681e      	ldr	r6, [r3, #0]
 8003e58:	6803      	ldr	r3, [r0, #0]
 8003e5a:	6d85      	ldr	r5, [r0, #88]	; 0x58
 8003e5c:	42bb      	cmp	r3, r7
 8003e5e:	f8d5 8000 	ldr.w	r8, [r5]
 8003e62:	f8d5 c000 	ldr.w	ip, [r5]
 8003e66:	d047      	beq.n	8003ef8 <HAL_DMA_IRQHandler+0xb0>
 8003e68:	4a80      	ldr	r2, [pc, #512]	; (800406c <HAL_DMA_IRQHandler+0x224>)
 8003e6a:	4293      	cmp	r3, r2
 8003e6c:	d044      	beq.n	8003ef8 <HAL_DMA_IRQHandler+0xb0>
 8003e6e:	3218      	adds	r2, #24
 8003e70:	4293      	cmp	r3, r2
 8003e72:	d041      	beq.n	8003ef8 <HAL_DMA_IRQHandler+0xb0>
 8003e74:	3218      	adds	r2, #24
 8003e76:	4293      	cmp	r3, r2
 8003e78:	d03e      	beq.n	8003ef8 <HAL_DMA_IRQHandler+0xb0>
 8003e7a:	3218      	adds	r2, #24
 8003e7c:	4293      	cmp	r3, r2
 8003e7e:	d03b      	beq.n	8003ef8 <HAL_DMA_IRQHandler+0xb0>
 8003e80:	3218      	adds	r2, #24
 8003e82:	4293      	cmp	r3, r2
 8003e84:	d038      	beq.n	8003ef8 <HAL_DMA_IRQHandler+0xb0>
 8003e86:	3218      	adds	r2, #24
 8003e88:	4293      	cmp	r3, r2
 8003e8a:	d035      	beq.n	8003ef8 <HAL_DMA_IRQHandler+0xb0>
 8003e8c:	3218      	adds	r2, #24
 8003e8e:	4293      	cmp	r3, r2
 8003e90:	d032      	beq.n	8003ef8 <HAL_DMA_IRQHandler+0xb0>
 8003e92:	f502 7256 	add.w	r2, r2, #856	; 0x358
 8003e96:	4293      	cmp	r3, r2
 8003e98:	d02e      	beq.n	8003ef8 <HAL_DMA_IRQHandler+0xb0>
 8003e9a:	3218      	adds	r2, #24
 8003e9c:	4293      	cmp	r3, r2
 8003e9e:	d02b      	beq.n	8003ef8 <HAL_DMA_IRQHandler+0xb0>
 8003ea0:	3218      	adds	r2, #24
 8003ea2:	4293      	cmp	r3, r2
 8003ea4:	d028      	beq.n	8003ef8 <HAL_DMA_IRQHandler+0xb0>
 8003ea6:	3218      	adds	r2, #24
 8003ea8:	4293      	cmp	r3, r2
 8003eaa:	d025      	beq.n	8003ef8 <HAL_DMA_IRQHandler+0xb0>
 8003eac:	3218      	adds	r2, #24
 8003eae:	4293      	cmp	r3, r2
 8003eb0:	d022      	beq.n	8003ef8 <HAL_DMA_IRQHandler+0xb0>
 8003eb2:	3218      	adds	r2, #24
 8003eb4:	4293      	cmp	r3, r2
 8003eb6:	d01f      	beq.n	8003ef8 <HAL_DMA_IRQHandler+0xb0>
 8003eb8:	3218      	adds	r2, #24
 8003eba:	4293      	cmp	r3, r2
 8003ebc:	d01c      	beq.n	8003ef8 <HAL_DMA_IRQHandler+0xb0>
 8003ebe:	3218      	adds	r2, #24
 8003ec0:	4293      	cmp	r3, r2
 8003ec2:	d019      	beq.n	8003ef8 <HAL_DMA_IRQHandler+0xb0>
 8003ec4:	4a6a      	ldr	r2, [pc, #424]	; (8004070 <HAL_DMA_IRQHandler+0x228>)
 8003ec6:	4293      	cmp	r3, r2
 8003ec8:	f040 8134 	bne.w	8004134 <HAL_DMA_IRQHandler+0x2ec>
 8003ecc:	6de1      	ldr	r1, [r4, #92]	; 0x5c
 8003ece:	2004      	movs	r0, #4
 8003ed0:	681a      	ldr	r2, [r3, #0]
 8003ed2:	f001 011f 	and.w	r1, r1, #31
 8003ed6:	4088      	lsls	r0, r1
 8003ed8:	ea10 0f0c 	tst.w	r0, ip
 8003edc:	f000 8151 	beq.w	8004182 <HAL_DMA_IRQHandler+0x33a>
 8003ee0:	0756      	lsls	r6, r2, #29
 8003ee2:	f140 814e 	bpl.w	8004182 <HAL_DMA_IRQHandler+0x33a>
 8003ee6:	0411      	lsls	r1, r2, #16
 8003ee8:	6068      	str	r0, [r5, #4]
 8003eea:	f140 8142 	bpl.w	8004172 <HAL_DMA_IRQHandler+0x32a>
 8003eee:	03d3      	lsls	r3, r2, #15
 8003ef0:	f100 8145 	bmi.w	800417e <HAL_DMA_IRQHandler+0x336>
 8003ef4:	6ca3      	ldr	r3, [r4, #72]	; 0x48
 8003ef6:	e0a0      	b.n	800403a <HAL_DMA_IRQHandler+0x1f2>
 8003ef8:	6de2      	ldr	r2, [r4, #92]	; 0x5c
 8003efa:	2108      	movs	r1, #8
 8003efc:	f002 021f 	and.w	r2, r2, #31
 8003f00:	4091      	lsls	r1, r2
 8003f02:	ea11 0f08 	tst.w	r1, r8
 8003f06:	d00b      	beq.n	8003f20 <HAL_DMA_IRQHandler+0xd8>
 8003f08:	6818      	ldr	r0, [r3, #0]
 8003f0a:	0740      	lsls	r0, r0, #29
 8003f0c:	d508      	bpl.n	8003f20 <HAL_DMA_IRQHandler+0xd8>
 8003f0e:	6818      	ldr	r0, [r3, #0]
 8003f10:	f020 0004 	bic.w	r0, r0, #4
 8003f14:	6018      	str	r0, [r3, #0]
 8003f16:	60a9      	str	r1, [r5, #8]
 8003f18:	6d61      	ldr	r1, [r4, #84]	; 0x54
 8003f1a:	f041 0101 	orr.w	r1, r1, #1
 8003f1e:	6561      	str	r1, [r4, #84]	; 0x54
 8003f20:	fa28 f102 	lsr.w	r1, r8, r2
 8003f24:	07c8      	lsls	r0, r1, #31
 8003f26:	d509      	bpl.n	8003f3c <HAL_DMA_IRQHandler+0xf4>
 8003f28:	6959      	ldr	r1, [r3, #20]
 8003f2a:	0609      	lsls	r1, r1, #24
 8003f2c:	d506      	bpl.n	8003f3c <HAL_DMA_IRQHandler+0xf4>
 8003f2e:	2101      	movs	r1, #1
 8003f30:	4091      	lsls	r1, r2
 8003f32:	60a9      	str	r1, [r5, #8]
 8003f34:	6d61      	ldr	r1, [r4, #84]	; 0x54
 8003f36:	f041 0102 	orr.w	r1, r1, #2
 8003f3a:	6561      	str	r1, [r4, #84]	; 0x54
 8003f3c:	2104      	movs	r1, #4
 8003f3e:	4091      	lsls	r1, r2
 8003f40:	ea11 0f08 	tst.w	r1, r8
 8003f44:	d007      	beq.n	8003f56 <HAL_DMA_IRQHandler+0x10e>
 8003f46:	6818      	ldr	r0, [r3, #0]
 8003f48:	0780      	lsls	r0, r0, #30
 8003f4a:	d504      	bpl.n	8003f56 <HAL_DMA_IRQHandler+0x10e>
 8003f4c:	60a9      	str	r1, [r5, #8]
 8003f4e:	6d61      	ldr	r1, [r4, #84]	; 0x54
 8003f50:	f041 0104 	orr.w	r1, r1, #4
 8003f54:	6561      	str	r1, [r4, #84]	; 0x54
 8003f56:	2110      	movs	r1, #16
 8003f58:	fa01 f202 	lsl.w	r2, r1, r2
 8003f5c:	ea12 0f08 	tst.w	r2, r8
 8003f60:	d00f      	beq.n	8003f82 <HAL_DMA_IRQHandler+0x13a>
 8003f62:	6819      	ldr	r1, [r3, #0]
 8003f64:	0709      	lsls	r1, r1, #28
 8003f66:	d50c      	bpl.n	8003f82 <HAL_DMA_IRQHandler+0x13a>
 8003f68:	60aa      	str	r2, [r5, #8]
 8003f6a:	681a      	ldr	r2, [r3, #0]
 8003f6c:	0350      	lsls	r0, r2, #13
 8003f6e:	d56c      	bpl.n	800404a <HAL_DMA_IRQHandler+0x202>
 8003f70:	681b      	ldr	r3, [r3, #0]
 8003f72:	0319      	lsls	r1, r3, #12
 8003f74:	d401      	bmi.n	8003f7a <HAL_DMA_IRQHandler+0x132>
 8003f76:	6c23      	ldr	r3, [r4, #64]	; 0x40
 8003f78:	e000      	b.n	8003f7c <HAL_DMA_IRQHandler+0x134>
 8003f7a:	6ca3      	ldr	r3, [r4, #72]	; 0x48
 8003f7c:	b10b      	cbz	r3, 8003f82 <HAL_DMA_IRQHandler+0x13a>
 8003f7e:	4620      	mov	r0, r4
 8003f80:	4798      	blx	r3
 8003f82:	6de2      	ldr	r2, [r4, #92]	; 0x5c
 8003f84:	2120      	movs	r1, #32
 8003f86:	f002 021f 	and.w	r2, r2, #31
 8003f8a:	4091      	lsls	r1, r2
 8003f8c:	ea11 0f08 	tst.w	r1, r8
 8003f90:	d07a      	beq.n	8004088 <HAL_DMA_IRQHandler+0x240>
 8003f92:	6823      	ldr	r3, [r4, #0]
 8003f94:	42bb      	cmp	r3, r7
 8003f96:	d02d      	beq.n	8003ff4 <HAL_DMA_IRQHandler+0x1ac>
 8003f98:	4834      	ldr	r0, [pc, #208]	; (800406c <HAL_DMA_IRQHandler+0x224>)
 8003f9a:	4283      	cmp	r3, r0
 8003f9c:	d02a      	beq.n	8003ff4 <HAL_DMA_IRQHandler+0x1ac>
 8003f9e:	3018      	adds	r0, #24
 8003fa0:	4283      	cmp	r3, r0
 8003fa2:	d027      	beq.n	8003ff4 <HAL_DMA_IRQHandler+0x1ac>
 8003fa4:	3018      	adds	r0, #24
 8003fa6:	4283      	cmp	r3, r0
 8003fa8:	d024      	beq.n	8003ff4 <HAL_DMA_IRQHandler+0x1ac>
 8003faa:	3018      	adds	r0, #24
 8003fac:	4283      	cmp	r3, r0
 8003fae:	d021      	beq.n	8003ff4 <HAL_DMA_IRQHandler+0x1ac>
 8003fb0:	3018      	adds	r0, #24
 8003fb2:	4283      	cmp	r3, r0
 8003fb4:	d01e      	beq.n	8003ff4 <HAL_DMA_IRQHandler+0x1ac>
 8003fb6:	3018      	adds	r0, #24
 8003fb8:	4283      	cmp	r3, r0
 8003fba:	d01b      	beq.n	8003ff4 <HAL_DMA_IRQHandler+0x1ac>
 8003fbc:	3018      	adds	r0, #24
 8003fbe:	4283      	cmp	r3, r0
 8003fc0:	d018      	beq.n	8003ff4 <HAL_DMA_IRQHandler+0x1ac>
 8003fc2:	f500 7056 	add.w	r0, r0, #856	; 0x358
 8003fc6:	4283      	cmp	r3, r0
 8003fc8:	d014      	beq.n	8003ff4 <HAL_DMA_IRQHandler+0x1ac>
 8003fca:	3018      	adds	r0, #24
 8003fcc:	4283      	cmp	r3, r0
 8003fce:	d011      	beq.n	8003ff4 <HAL_DMA_IRQHandler+0x1ac>
 8003fd0:	3018      	adds	r0, #24
 8003fd2:	4283      	cmp	r3, r0
 8003fd4:	d00e      	beq.n	8003ff4 <HAL_DMA_IRQHandler+0x1ac>
 8003fd6:	3018      	adds	r0, #24
 8003fd8:	4283      	cmp	r3, r0
 8003fda:	d00b      	beq.n	8003ff4 <HAL_DMA_IRQHandler+0x1ac>
 8003fdc:	3018      	adds	r0, #24
 8003fde:	4283      	cmp	r3, r0
 8003fe0:	d008      	beq.n	8003ff4 <HAL_DMA_IRQHandler+0x1ac>
 8003fe2:	3018      	adds	r0, #24
 8003fe4:	4283      	cmp	r3, r0
 8003fe6:	d005      	beq.n	8003ff4 <HAL_DMA_IRQHandler+0x1ac>
 8003fe8:	3018      	adds	r0, #24
 8003fea:	4283      	cmp	r3, r0
 8003fec:	d002      	beq.n	8003ff4 <HAL_DMA_IRQHandler+0x1ac>
 8003fee:	3018      	adds	r0, #24
 8003ff0:	4283      	cmp	r3, r0
 8003ff2:	d132      	bne.n	800405a <HAL_DMA_IRQHandler+0x212>
 8003ff4:	6818      	ldr	r0, [r3, #0]
 8003ff6:	f010 0f10 	tst.w	r0, #16
 8003ffa:	d045      	beq.n	8004088 <HAL_DMA_IRQHandler+0x240>
 8003ffc:	60a9      	str	r1, [r5, #8]
 8003ffe:	f894 1035 	ldrb.w	r1, [r4, #53]	; 0x35
 8004002:	2904      	cmp	r1, #4
 8004004:	d136      	bne.n	8004074 <HAL_DMA_IRQHandler+0x22c>
 8004006:	6819      	ldr	r1, [r3, #0]
 8004008:	f021 0116 	bic.w	r1, r1, #22
 800400c:	6019      	str	r1, [r3, #0]
 800400e:	6959      	ldr	r1, [r3, #20]
 8004010:	f021 0180 	bic.w	r1, r1, #128	; 0x80
 8004014:	6159      	str	r1, [r3, #20]
 8004016:	6c21      	ldr	r1, [r4, #64]	; 0x40
 8004018:	b909      	cbnz	r1, 800401e <HAL_DMA_IRQHandler+0x1d6>
 800401a:	6ca1      	ldr	r1, [r4, #72]	; 0x48
 800401c:	b119      	cbz	r1, 8004026 <HAL_DMA_IRQHandler+0x1de>
 800401e:	6819      	ldr	r1, [r3, #0]
 8004020:	f021 0108 	bic.w	r1, r1, #8
 8004024:	6019      	str	r1, [r3, #0]
 8004026:	233f      	movs	r3, #63	; 0x3f
 8004028:	4093      	lsls	r3, r2
 800402a:	60ab      	str	r3, [r5, #8]
 800402c:	2301      	movs	r3, #1
 800402e:	f884 3035 	strb.w	r3, [r4, #53]	; 0x35
 8004032:	2300      	movs	r3, #0
 8004034:	f884 3034 	strb.w	r3, [r4, #52]	; 0x34
 8004038:	6d23      	ldr	r3, [r4, #80]	; 0x50
 800403a:	2b00      	cmp	r3, #0
 800403c:	f000 8096 	beq.w	800416c <HAL_DMA_IRQHandler+0x324>
 8004040:	4620      	mov	r0, r4
 8004042:	b002      	add	sp, #8
 8004044:	e8bd 41f0 	ldmia.w	sp!, {r4, r5, r6, r7, r8, lr}
 8004048:	4718      	bx	r3
 800404a:	681a      	ldr	r2, [r3, #0]
 800404c:	05d2      	lsls	r2, r2, #23
 800404e:	d492      	bmi.n	8003f76 <HAL_DMA_IRQHandler+0x12e>
 8004050:	681a      	ldr	r2, [r3, #0]
 8004052:	f022 0208 	bic.w	r2, r2, #8
 8004056:	601a      	str	r2, [r3, #0]
 8004058:	e78d      	b.n	8003f76 <HAL_DMA_IRQHandler+0x12e>
 800405a:	6818      	ldr	r0, [r3, #0]
 800405c:	f010 0f02 	tst.w	r0, #2
 8004060:	e7cb      	b.n	8003ffa <HAL_DMA_IRQHandler+0x1b2>
 8004062:	bf00      	nop
 8004064:	24000074 	.word	0x24000074
 8004068:	40020010 	.word	0x40020010
 800406c:	40020028 	.word	0x40020028
 8004070:	58025408 	.word	0x58025408
 8004074:	681a      	ldr	r2, [r3, #0]
 8004076:	0355      	lsls	r5, r2, #13
 8004078:	d54d      	bpl.n	8004116 <HAL_DMA_IRQHandler+0x2ce>
 800407a:	681b      	ldr	r3, [r3, #0]
 800407c:	0318      	lsls	r0, r3, #12
 800407e:	d457      	bmi.n	8004130 <HAL_DMA_IRQHandler+0x2e8>
 8004080:	6c63      	ldr	r3, [r4, #68]	; 0x44
 8004082:	b10b      	cbz	r3, 8004088 <HAL_DMA_IRQHandler+0x240>
 8004084:	4620      	mov	r0, r4
 8004086:	4798      	blx	r3
 8004088:	6d63      	ldr	r3, [r4, #84]	; 0x54
 800408a:	2b00      	cmp	r3, #0
 800408c:	d06e      	beq.n	800416c <HAL_DMA_IRQHandler+0x324>
 800408e:	6d63      	ldr	r3, [r4, #84]	; 0x54
 8004090:	07d9      	lsls	r1, r3, #31
 8004092:	d53e      	bpl.n	8004112 <HAL_DMA_IRQHandler+0x2ca>
 8004094:	2304      	movs	r3, #4
 8004096:	f884 3035 	strb.w	r3, [r4, #53]	; 0x35
 800409a:	6823      	ldr	r3, [r4, #0]
 800409c:	42bb      	cmp	r3, r7
 800409e:	d01e      	beq.n	80040de <HAL_DMA_IRQHandler+0x296>
 80040a0:	4a4e      	ldr	r2, [pc, #312]	; (80041dc <HAL_DMA_IRQHandler+0x394>)
 80040a2:	4293      	cmp	r3, r2
 80040a4:	d01b      	beq.n	80040de <HAL_DMA_IRQHandler+0x296>
 80040a6:	3218      	adds	r2, #24
 80040a8:	4293      	cmp	r3, r2
 80040aa:	d018      	beq.n	80040de <HAL_DMA_IRQHandler+0x296>
 80040ac:	3218      	adds	r2, #24
 80040ae:	4293      	cmp	r3, r2
 80040b0:	d015      	beq.n	80040de <HAL_DMA_IRQHandler+0x296>
 80040b2:	3218      	adds	r2, #24
 80040b4:	4293      	cmp	r3, r2
 80040b6:	d012      	beq.n	80040de <HAL_DMA_IRQHandler+0x296>
 80040b8:	3218      	adds	r2, #24
 80040ba:	4293      	cmp	r3, r2
 80040bc:	d00f      	beq.n	80040de <HAL_DMA_IRQHandler+0x296>
 80040be:	3218      	adds	r2, #24
 80040c0:	4293      	cmp	r3, r2
 80040c2:	d00c      	beq.n	80040de <HAL_DMA_IRQHandler+0x296>
 80040c4:	3218      	adds	r2, #24
 80040c6:	4293      	cmp	r3, r2
 80040c8:	d009      	beq.n	80040de <HAL_DMA_IRQHandler+0x296>
 80040ca:	f502 7256 	add.w	r2, r2, #856	; 0x358
 80040ce:	4293      	cmp	r3, r2
 80040d0:	d005      	beq.n	80040de <HAL_DMA_IRQHandler+0x296>
 80040d2:	3218      	adds	r2, #24
 80040d4:	4293      	cmp	r3, r2
 80040d6:	d002      	beq.n	80040de <HAL_DMA_IRQHandler+0x296>
 80040d8:	3218      	adds	r2, #24
 80040da:	4293      	cmp	r3, r2
 80040dc:	d0ff      	beq.n	80040de <HAL_DMA_IRQHandler+0x296>
 80040de:	681a      	ldr	r2, [r3, #0]
 80040e0:	f022 0201 	bic.w	r2, r2, #1
 80040e4:	601a      	str	r2, [r3, #0]
 80040e6:	f44f 5216 	mov.w	r2, #9600	; 0x2580
 80040ea:	fbb6 f6f2 	udiv	r6, r6, r2
 80040ee:	9a01      	ldr	r2, [sp, #4]
 80040f0:	3201      	adds	r2, #1
 80040f2:	42b2      	cmp	r2, r6
 80040f4:	9201      	str	r2, [sp, #4]
 80040f6:	d802      	bhi.n	80040fe <HAL_DMA_IRQHandler+0x2b6>
 80040f8:	681a      	ldr	r2, [r3, #0]
 80040fa:	07d2      	lsls	r2, r2, #31
 80040fc:	d4f7      	bmi.n	80040ee <HAL_DMA_IRQHandler+0x2a6>
 80040fe:	681b      	ldr	r3, [r3, #0]
 8004100:	07df      	lsls	r7, r3, #31
 8004102:	bf4c      	ite	mi
 8004104:	2303      	movmi	r3, #3
 8004106:	2301      	movpl	r3, #1
 8004108:	f884 3035 	strb.w	r3, [r4, #53]	; 0x35
 800410c:	2300      	movs	r3, #0
 800410e:	f884 3034 	strb.w	r3, [r4, #52]	; 0x34
 8004112:	6ce3      	ldr	r3, [r4, #76]	; 0x4c
 8004114:	e791      	b.n	800403a <HAL_DMA_IRQHandler+0x1f2>
 8004116:	681a      	ldr	r2, [r3, #0]
 8004118:	f412 7280 	ands.w	r2, r2, #256	; 0x100
 800411c:	d108      	bne.n	8004130 <HAL_DMA_IRQHandler+0x2e8>
 800411e:	6819      	ldr	r1, [r3, #0]
 8004120:	f021 0110 	bic.w	r1, r1, #16
 8004124:	6019      	str	r1, [r3, #0]
 8004126:	2301      	movs	r3, #1
 8004128:	f884 2034 	strb.w	r2, [r4, #52]	; 0x34
 800412c:	f884 3035 	strb.w	r3, [r4, #53]	; 0x35
 8004130:	6be3      	ldr	r3, [r4, #60]	; 0x3c
 8004132:	e7a6      	b.n	8004082 <HAL_DMA_IRQHandler+0x23a>
 8004134:	4a2a      	ldr	r2, [pc, #168]	; (80041e0 <HAL_DMA_IRQHandler+0x398>)
 8004136:	4293      	cmp	r3, r2
 8004138:	f43f aec8 	beq.w	8003ecc <HAL_DMA_IRQHandler+0x84>
 800413c:	3214      	adds	r2, #20
 800413e:	4293      	cmp	r3, r2
 8004140:	f43f aec4 	beq.w	8003ecc <HAL_DMA_IRQHandler+0x84>
 8004144:	3214      	adds	r2, #20
 8004146:	4293      	cmp	r3, r2
 8004148:	f43f aec0 	beq.w	8003ecc <HAL_DMA_IRQHandler+0x84>
 800414c:	3214      	adds	r2, #20
 800414e:	4293      	cmp	r3, r2
 8004150:	f43f aebc 	beq.w	8003ecc <HAL_DMA_IRQHandler+0x84>
 8004154:	3214      	adds	r2, #20
 8004156:	4293      	cmp	r3, r2
 8004158:	f43f aeb8 	beq.w	8003ecc <HAL_DMA_IRQHandler+0x84>
 800415c:	3214      	adds	r2, #20
 800415e:	4293      	cmp	r3, r2
 8004160:	f43f aeb4 	beq.w	8003ecc <HAL_DMA_IRQHandler+0x84>
 8004164:	3214      	adds	r2, #20
 8004166:	4293      	cmp	r3, r2
 8004168:	f43f aeb0 	beq.w	8003ecc <HAL_DMA_IRQHandler+0x84>
 800416c:	b002      	add	sp, #8
 800416e:	e8bd 81f0 	ldmia.w	sp!, {r4, r5, r6, r7, r8, pc}
 8004172:	0697      	lsls	r7, r2, #26
 8004174:	d403      	bmi.n	800417e <HAL_DMA_IRQHandler+0x336>
 8004176:	681a      	ldr	r2, [r3, #0]
 8004178:	f022 0204 	bic.w	r2, r2, #4
 800417c:	601a      	str	r2, [r3, #0]
 800417e:	6c23      	ldr	r3, [r4, #64]	; 0x40
 8004180:	e75b      	b.n	800403a <HAL_DMA_IRQHandler+0x1f2>
 8004182:	2002      	movs	r0, #2
 8004184:	4088      	lsls	r0, r1
 8004186:	ea10 0f0c 	tst.w	r0, ip
 800418a:	d016      	beq.n	80041ba <HAL_DMA_IRQHandler+0x372>
 800418c:	0796      	lsls	r6, r2, #30
 800418e:	d514      	bpl.n	80041ba <HAL_DMA_IRQHandler+0x372>
 8004190:	6068      	str	r0, [r5, #4]
 8004192:	0410      	lsls	r0, r2, #16
 8004194:	d503      	bpl.n	800419e <HAL_DMA_IRQHandler+0x356>
 8004196:	03d1      	lsls	r1, r2, #15
 8004198:	d40d      	bmi.n	80041b6 <HAL_DMA_IRQHandler+0x36e>
 800419a:	6c63      	ldr	r3, [r4, #68]	; 0x44
 800419c:	e74d      	b.n	800403a <HAL_DMA_IRQHandler+0x1f2>
 800419e:	f012 0220 	ands.w	r2, r2, #32
 80041a2:	d108      	bne.n	80041b6 <HAL_DMA_IRQHandler+0x36e>
 80041a4:	6819      	ldr	r1, [r3, #0]
 80041a6:	f021 010a 	bic.w	r1, r1, #10
 80041aa:	6019      	str	r1, [r3, #0]
 80041ac:	2301      	movs	r3, #1
 80041ae:	f884 2034 	strb.w	r2, [r4, #52]	; 0x34
 80041b2:	f884 3035 	strb.w	r3, [r4, #53]	; 0x35
 80041b6:	6be3      	ldr	r3, [r4, #60]	; 0x3c
 80041b8:	e73f      	b.n	800403a <HAL_DMA_IRQHandler+0x1f2>
 80041ba:	2008      	movs	r0, #8
 80041bc:	4088      	lsls	r0, r1
 80041be:	ea10 0f0c 	tst.w	r0, ip
 80041c2:	d0d3      	beq.n	800416c <HAL_DMA_IRQHandler+0x324>
 80041c4:	0712      	lsls	r2, r2, #28
 80041c6:	d5d1      	bpl.n	800416c <HAL_DMA_IRQHandler+0x324>
 80041c8:	681a      	ldr	r2, [r3, #0]
 80041ca:	f022 020e 	bic.w	r2, r2, #14
 80041ce:	601a      	str	r2, [r3, #0]
 80041d0:	2301      	movs	r3, #1
 80041d2:	fa03 f101 	lsl.w	r1, r3, r1
 80041d6:	6069      	str	r1, [r5, #4]
 80041d8:	6563      	str	r3, [r4, #84]	; 0x54
 80041da:	e795      	b.n	8004108 <HAL_DMA_IRQHandler+0x2c0>
 80041dc:	40020028 	.word	0x40020028
 80041e0:	5802541c 	.word	0x5802541c

080041e4 <DMA_MultiBufferSetConfig>:
 80041e4:	b530      	push	{r4, r5, lr}
 80041e6:	6804      	ldr	r4, [r0, #0]
 80041e8:	4d15      	ldr	r5, [pc, #84]	; (8004240 <DMA_MultiBufferSetConfig+0x5c>)
 80041ea:	6880      	ldr	r0, [r0, #8]
 80041ec:	42ac      	cmp	r4, r5
 80041ee:	d01e      	beq.n	800422e <DMA_MultiBufferSetConfig+0x4a>
 80041f0:	3518      	adds	r5, #24
 80041f2:	42ac      	cmp	r4, r5
 80041f4:	d01b      	beq.n	800422e <DMA_MultiBufferSetConfig+0x4a>
 80041f6:	3518      	adds	r5, #24
 80041f8:	42ac      	cmp	r4, r5
 80041fa:	d018      	beq.n	800422e <DMA_MultiBufferSetConfig+0x4a>
 80041fc:	3518      	adds	r5, #24
 80041fe:	42ac      	cmp	r4, r5
 8004200:	d015      	beq.n	800422e <DMA_MultiBufferSetConfig+0x4a>
 8004202:	3518      	adds	r5, #24
 8004204:	42ac      	cmp	r4, r5
 8004206:	d012      	beq.n	800422e <DMA_MultiBufferSetConfig+0x4a>
 8004208:	3518      	adds	r5, #24
 800420a:	42ac      	cmp	r4, r5
 800420c:	d00f      	beq.n	800422e <DMA_MultiBufferSetConfig+0x4a>
 800420e:	3518      	adds	r5, #24
 8004210:	42ac      	cmp	r4, r5
 8004212:	d00c      	beq.n	800422e <DMA_MultiBufferSetConfig+0x4a>
 8004214:	3518      	adds	r5, #24
 8004216:	42ac      	cmp	r4, r5
 8004218:	d009      	beq.n	800422e <DMA_MultiBufferSetConfig+0x4a>
 800421a:	f505 7556 	add.w	r5, r5, #856	; 0x358
 800421e:	42ac      	cmp	r4, r5
 8004220:	d005      	beq.n	800422e <DMA_MultiBufferSetConfig+0x4a>
 8004222:	3518      	adds	r5, #24
 8004224:	42ac      	cmp	r4, r5
 8004226:	d002      	beq.n	800422e <DMA_MultiBufferSetConfig+0x4a>
 8004228:	3518      	adds	r5, #24
 800422a:	42ac      	cmp	r4, r5
 800422c:	d0ff      	beq.n	800422e <DMA_MultiBufferSetConfig+0x4a>
 800422e:	2840      	cmp	r0, #64	; 0x40
 8004230:	6063      	str	r3, [r4, #4]
 8004232:	d102      	bne.n	800423a <DMA_MultiBufferSetConfig+0x56>
 8004234:	60a2      	str	r2, [r4, #8]
 8004236:	60e1      	str	r1, [r4, #12]
 8004238:	bd30      	pop	{r4, r5, pc}
 800423a:	60a1      	str	r1, [r4, #8]
 800423c:	60e2      	str	r2, [r4, #12]
 800423e:	e7fb      	b.n	8004238 <DMA_MultiBufferSetConfig+0x54>
 8004240:	40020010 	.word	0x40020010

08004244 <HAL_DMAEx_MultiBufferStart_IT>:
 8004244:	b5f8      	push	{r3, r4, r5, r6, r7, lr}
 8004246:	4605      	mov	r5, r0
 8004248:	6880      	ldr	r0, [r0, #8]
 800424a:	2880      	cmp	r0, #128	; 0x80
 800424c:	d104      	bne.n	8004258 <HAL_DMAEx_MultiBufferStart_IT+0x14>
 800424e:	f44f 7380 	mov.w	r3, #256	; 0x100
 8004252:	2001      	movs	r0, #1
 8004254:	656b      	str	r3, [r5, #84]	; 0x54
 8004256:	bdf8      	pop	{r3, r4, r5, r6, r7, pc}
 8004258:	f895 0034 	ldrb.w	r0, [r5, #52]	; 0x34
 800425c:	2801      	cmp	r0, #1
 800425e:	f000 819d 	beq.w	800459c <HAL_DMAEx_MultiBufferStart_IT+0x358>
 8004262:	2001      	movs	r0, #1
 8004264:	f895 4035 	ldrb.w	r4, [r5, #53]	; 0x35
 8004268:	4284      	cmp	r4, r0
 800426a:	f885 0034 	strb.w	r0, [r5, #52]	; 0x34
 800426e:	f040 8191 	bne.w	8004594 <HAL_DMAEx_MultiBufferStart_IT+0x350>
 8004272:	2002      	movs	r0, #2
 8004274:	682c      	ldr	r4, [r5, #0]
 8004276:	4e6b      	ldr	r6, [pc, #428]	; (8004424 <HAL_DMAEx_MultiBufferStart_IT+0x1e0>)
 8004278:	f885 0035 	strb.w	r0, [r5, #53]	; 0x35
 800427c:	2000      	movs	r0, #0
 800427e:	42b4      	cmp	r4, r6
 8004280:	6568      	str	r0, [r5, #84]	; 0x54
 8004282:	e9d5 c716 	ldrd	ip, r7, [r5, #88]	; 0x58
 8004286:	f007 071f 	and.w	r7, r7, #31
 800428a:	f000 80c1 	beq.w	8004410 <HAL_DMAEx_MultiBufferStart_IT+0x1cc>
 800428e:	4866      	ldr	r0, [pc, #408]	; (8004428 <HAL_DMAEx_MultiBufferStart_IT+0x1e4>)
 8004290:	4284      	cmp	r4, r0
 8004292:	f000 80bd 	beq.w	8004410 <HAL_DMAEx_MultiBufferStart_IT+0x1cc>
 8004296:	3018      	adds	r0, #24
 8004298:	4284      	cmp	r4, r0
 800429a:	f000 80b9 	beq.w	8004410 <HAL_DMAEx_MultiBufferStart_IT+0x1cc>
 800429e:	3018      	adds	r0, #24
 80042a0:	4284      	cmp	r4, r0
 80042a2:	f000 80b5 	beq.w	8004410 <HAL_DMAEx_MultiBufferStart_IT+0x1cc>
 80042a6:	3018      	adds	r0, #24
 80042a8:	4284      	cmp	r4, r0
 80042aa:	f000 80b1 	beq.w	8004410 <HAL_DMAEx_MultiBufferStart_IT+0x1cc>
 80042ae:	3018      	adds	r0, #24
 80042b0:	4284      	cmp	r4, r0
 80042b2:	f000 80ad 	beq.w	8004410 <HAL_DMAEx_MultiBufferStart_IT+0x1cc>
 80042b6:	3018      	adds	r0, #24
 80042b8:	4284      	cmp	r4, r0
 80042ba:	f000 80a9 	beq.w	8004410 <HAL_DMAEx_MultiBufferStart_IT+0x1cc>
 80042be:	3018      	adds	r0, #24
 80042c0:	4284      	cmp	r4, r0
 80042c2:	f000 80a5 	beq.w	8004410 <HAL_DMAEx_MultiBufferStart_IT+0x1cc>
 80042c6:	f500 7056 	add.w	r0, r0, #856	; 0x358
 80042ca:	4284      	cmp	r4, r0
 80042cc:	f000 80a0 	beq.w	8004410 <HAL_DMAEx_MultiBufferStart_IT+0x1cc>
 80042d0:	3018      	adds	r0, #24
 80042d2:	4284      	cmp	r4, r0
 80042d4:	f000 809c 	beq.w	8004410 <HAL_DMAEx_MultiBufferStart_IT+0x1cc>
 80042d8:	3018      	adds	r0, #24
 80042da:	4284      	cmp	r4, r0
 80042dc:	f000 8098 	beq.w	8004410 <HAL_DMAEx_MultiBufferStart_IT+0x1cc>
 80042e0:	3018      	adds	r0, #24
 80042e2:	4284      	cmp	r4, r0
 80042e4:	f000 8094 	beq.w	8004410 <HAL_DMAEx_MultiBufferStart_IT+0x1cc>
 80042e8:	3018      	adds	r0, #24
 80042ea:	4284      	cmp	r4, r0
 80042ec:	f000 8090 	beq.w	8004410 <HAL_DMAEx_MultiBufferStart_IT+0x1cc>
 80042f0:	3018      	adds	r0, #24
 80042f2:	4284      	cmp	r4, r0
 80042f4:	f000 808c 	beq.w	8004410 <HAL_DMAEx_MultiBufferStart_IT+0x1cc>
 80042f8:	3018      	adds	r0, #24
 80042fa:	4284      	cmp	r4, r0
 80042fc:	f000 8088 	beq.w	8004410 <HAL_DMAEx_MultiBufferStart_IT+0x1cc>
 8004300:	3018      	adds	r0, #24
 8004302:	4284      	cmp	r4, r0
 8004304:	f000 8084 	beq.w	8004410 <HAL_DMAEx_MultiBufferStart_IT+0x1cc>
 8004308:	6820      	ldr	r0, [r4, #0]
 800430a:	f440 4000 	orr.w	r0, r0, #32768	; 0x8000
 800430e:	f040 0020 	orr.w	r0, r0, #32
 8004312:	6020      	str	r0, [r4, #0]
 8004314:	6123      	str	r3, [r4, #16]
 8004316:	2301      	movs	r3, #1
 8004318:	40bb      	lsls	r3, r7
 800431a:	f8cc 3004 	str.w	r3, [ip, #4]
 800431e:	9b06      	ldr	r3, [sp, #24]
 8004320:	4628      	mov	r0, r5
 8004322:	f7ff ff5f 	bl	80041e4 <DMA_MultiBufferSetConfig>
 8004326:	42b4      	cmp	r4, r6
 8004328:	6c2a      	ldr	r2, [r5, #64]	; 0x40
 800432a:	f000 8083 	beq.w	8004434 <HAL_DMAEx_MultiBufferStart_IT+0x1f0>
 800432e:	4b3e      	ldr	r3, [pc, #248]	; (8004428 <HAL_DMAEx_MultiBufferStart_IT+0x1e4>)
 8004330:	429c      	cmp	r4, r3
 8004332:	d07f      	beq.n	8004434 <HAL_DMAEx_MultiBufferStart_IT+0x1f0>
 8004334:	3318      	adds	r3, #24
 8004336:	429c      	cmp	r4, r3
 8004338:	d07c      	beq.n	8004434 <HAL_DMAEx_MultiBufferStart_IT+0x1f0>
 800433a:	3318      	adds	r3, #24
 800433c:	429c      	cmp	r4, r3
 800433e:	d079      	beq.n	8004434 <HAL_DMAEx_MultiBufferStart_IT+0x1f0>
 8004340:	3318      	adds	r3, #24
 8004342:	429c      	cmp	r4, r3
 8004344:	d076      	beq.n	8004434 <HAL_DMAEx_MultiBufferStart_IT+0x1f0>
 8004346:	3318      	adds	r3, #24
 8004348:	429c      	cmp	r4, r3
 800434a:	d073      	beq.n	8004434 <HAL_DMAEx_MultiBufferStart_IT+0x1f0>
 800434c:	3318      	adds	r3, #24
 800434e:	429c      	cmp	r4, r3
 8004350:	d070      	beq.n	8004434 <HAL_DMAEx_MultiBufferStart_IT+0x1f0>
 8004352:	3318      	adds	r3, #24
 8004354:	429c      	cmp	r4, r3
 8004356:	d06d      	beq.n	8004434 <HAL_DMAEx_MultiBufferStart_IT+0x1f0>
 8004358:	f503 7356 	add.w	r3, r3, #856	; 0x358
 800435c:	429c      	cmp	r4, r3
 800435e:	d069      	beq.n	8004434 <HAL_DMAEx_MultiBufferStart_IT+0x1f0>
 8004360:	3318      	adds	r3, #24
 8004362:	429c      	cmp	r4, r3
 8004364:	d066      	beq.n	8004434 <HAL_DMAEx_MultiBufferStart_IT+0x1f0>
 8004366:	3318      	adds	r3, #24
 8004368:	429c      	cmp	r4, r3
 800436a:	d063      	beq.n	8004434 <HAL_DMAEx_MultiBufferStart_IT+0x1f0>
 800436c:	3318      	adds	r3, #24
 800436e:	429c      	cmp	r4, r3
 8004370:	d060      	beq.n	8004434 <HAL_DMAEx_MultiBufferStart_IT+0x1f0>
 8004372:	3318      	adds	r3, #24
 8004374:	429c      	cmp	r4, r3
 8004376:	d05d      	beq.n	8004434 <HAL_DMAEx_MultiBufferStart_IT+0x1f0>
 8004378:	3318      	adds	r3, #24
 800437a:	429c      	cmp	r4, r3
 800437c:	d05a      	beq.n	8004434 <HAL_DMAEx_MultiBufferStart_IT+0x1f0>
 800437e:	3318      	adds	r3, #24
 8004380:	429c      	cmp	r4, r3
 8004382:	d057      	beq.n	8004434 <HAL_DMAEx_MultiBufferStart_IT+0x1f0>
 8004384:	3318      	adds	r3, #24
 8004386:	429c      	cmp	r4, r3
 8004388:	d054      	beq.n	8004434 <HAL_DMAEx_MultiBufferStart_IT+0x1f0>
 800438a:	4b28      	ldr	r3, [pc, #160]	; (800442c <HAL_DMAEx_MultiBufferStart_IT+0x1e8>)
 800438c:	429c      	cmp	r4, r3
 800438e:	d051      	beq.n	8004434 <HAL_DMAEx_MultiBufferStart_IT+0x1f0>
 8004390:	3314      	adds	r3, #20
 8004392:	429c      	cmp	r4, r3
 8004394:	d04e      	beq.n	8004434 <HAL_DMAEx_MultiBufferStart_IT+0x1f0>
 8004396:	3314      	adds	r3, #20
 8004398:	429c      	cmp	r4, r3
 800439a:	d04b      	beq.n	8004434 <HAL_DMAEx_MultiBufferStart_IT+0x1f0>
 800439c:	3314      	adds	r3, #20
 800439e:	429c      	cmp	r4, r3
 80043a0:	d048      	beq.n	8004434 <HAL_DMAEx_MultiBufferStart_IT+0x1f0>
 80043a2:	3314      	adds	r3, #20
 80043a4:	429c      	cmp	r4, r3
 80043a6:	d045      	beq.n	8004434 <HAL_DMAEx_MultiBufferStart_IT+0x1f0>
 80043a8:	3314      	adds	r3, #20
 80043aa:	429c      	cmp	r4, r3
 80043ac:	d042      	beq.n	8004434 <HAL_DMAEx_MultiBufferStart_IT+0x1f0>
 80043ae:	3314      	adds	r3, #20
 80043b0:	429c      	cmp	r4, r3
 80043b2:	d03f      	beq.n	8004434 <HAL_DMAEx_MultiBufferStart_IT+0x1f0>
 80043b4:	3314      	adds	r3, #20
 80043b6:	429c      	cmp	r4, r3
 80043b8:	d03c      	beq.n	8004434 <HAL_DMAEx_MultiBufferStart_IT+0x1f0>
 80043ba:	6823      	ldr	r3, [r4, #0]
 80043bc:	f023 030e 	bic.w	r3, r3, #14
 80043c0:	f043 030a 	orr.w	r3, r3, #10
 80043c4:	6023      	str	r3, [r4, #0]
 80043c6:	b90a      	cbnz	r2, 80043cc <HAL_DMAEx_MultiBufferStart_IT+0x188>
 80043c8:	6cab      	ldr	r3, [r5, #72]	; 0x48
 80043ca:	b11b      	cbz	r3, 80043d4 <HAL_DMAEx_MultiBufferStart_IT+0x190>
 80043cc:	6823      	ldr	r3, [r4, #0]
 80043ce:	f043 0304 	orr.w	r3, r3, #4
 80043d2:	6023      	str	r3, [r4, #0]
 80043d4:	4b15      	ldr	r3, [pc, #84]	; (800442c <HAL_DMAEx_MultiBufferStart_IT+0x1e8>)
 80043d6:	429c      	cmp	r4, r3
 80043d8:	d077      	beq.n	80044ca <HAL_DMAEx_MultiBufferStart_IT+0x286>
 80043da:	4b15      	ldr	r3, [pc, #84]	; (8004430 <HAL_DMAEx_MultiBufferStart_IT+0x1ec>)
 80043dc:	429c      	cmp	r4, r3
 80043de:	d074      	beq.n	80044ca <HAL_DMAEx_MultiBufferStart_IT+0x286>
 80043e0:	3314      	adds	r3, #20
 80043e2:	429c      	cmp	r4, r3
 80043e4:	d071      	beq.n	80044ca <HAL_DMAEx_MultiBufferStart_IT+0x286>
 80043e6:	3314      	adds	r3, #20
 80043e8:	429c      	cmp	r4, r3
 80043ea:	d06e      	beq.n	80044ca <HAL_DMAEx_MultiBufferStart_IT+0x286>
 80043ec:	3314      	adds	r3, #20
 80043ee:	429c      	cmp	r4, r3
 80043f0:	d06b      	beq.n	80044ca <HAL_DMAEx_MultiBufferStart_IT+0x286>
 80043f2:	3314      	adds	r3, #20
 80043f4:	429c      	cmp	r4, r3
 80043f6:	d068      	beq.n	80044ca <HAL_DMAEx_MultiBufferStart_IT+0x286>
 80043f8:	3314      	adds	r3, #20
 80043fa:	429c      	cmp	r4, r3
 80043fc:	d065      	beq.n	80044ca <HAL_DMAEx_MultiBufferStart_IT+0x286>
 80043fe:	3314      	adds	r3, #20
 8004400:	429c      	cmp	r4, r3
 8004402:	d062      	beq.n	80044ca <HAL_DMAEx_MultiBufferStart_IT+0x286>
 8004404:	6823      	ldr	r3, [r4, #0]
 8004406:	2000      	movs	r0, #0
 8004408:	f043 0301 	orr.w	r3, r3, #1
 800440c:	6023      	str	r3, [r4, #0]
 800440e:	e722      	b.n	8004256 <HAL_DMAEx_MultiBufferStart_IT+0x12>
 8004410:	6820      	ldr	r0, [r4, #0]
 8004412:	f440 2080 	orr.w	r0, r0, #262144	; 0x40000
 8004416:	6020      	str	r0, [r4, #0]
 8004418:	6123      	str	r3, [r4, #16]
 800441a:	233f      	movs	r3, #63	; 0x3f
 800441c:	40bb      	lsls	r3, r7
 800441e:	f8cc 3008 	str.w	r3, [ip, #8]
 8004422:	e77c      	b.n	800431e <HAL_DMAEx_MultiBufferStart_IT+0xda>
 8004424:	40020010 	.word	0x40020010
 8004428:	40020028 	.word	0x40020028
 800442c:	58025408 	.word	0x58025408
 8004430:	5802541c 	.word	0x5802541c
 8004434:	e9d5 3119 	ldrd	r3, r1, [r5, #100]	; 0x64
 8004438:	6059      	str	r1, [r3, #4]
 800443a:	6eeb      	ldr	r3, [r5, #108]	; 0x6c
 800443c:	b113      	cbz	r3, 8004444 <HAL_DMAEx_MultiBufferStart_IT+0x200>
 800443e:	e9d5 311c 	ldrd	r3, r1, [r5, #112]	; 0x70
 8004442:	6059      	str	r1, [r3, #4]
 8004444:	42b4      	cmp	r4, r6
 8004446:	d02d      	beq.n	80044a4 <HAL_DMAEx_MultiBufferStart_IT+0x260>
 8004448:	4b55      	ldr	r3, [pc, #340]	; (80045a0 <HAL_DMAEx_MultiBufferStart_IT+0x35c>)
 800444a:	429c      	cmp	r4, r3
 800444c:	d02a      	beq.n	80044a4 <HAL_DMAEx_MultiBufferStart_IT+0x260>
 800444e:	3318      	adds	r3, #24
 8004450:	429c      	cmp	r4, r3
 8004452:	d027      	beq.n	80044a4 <HAL_DMAEx_MultiBufferStart_IT+0x260>
 8004454:	3318      	adds	r3, #24
 8004456:	429c      	cmp	r4, r3
 8004458:	d024      	beq.n	80044a4 <HAL_DMAEx_MultiBufferStart_IT+0x260>
 800445a:	3318      	adds	r3, #24
 800445c:	429c      	cmp	r4, r3
 800445e:	d021      	beq.n	80044a4 <HAL_DMAEx_MultiBufferStart_IT+0x260>
 8004460:	3318      	adds	r3, #24
 8004462:	429c      	cmp	r4, r3
 8004464:	d01e      	beq.n	80044a4 <HAL_DMAEx_MultiBufferStart_IT+0x260>
 8004466:	3318      	adds	r3, #24
 8004468:	429c      	cmp	r4, r3
 800446a:	d01b      	beq.n	80044a4 <HAL_DMAEx_MultiBufferStart_IT+0x260>
 800446c:	3318      	adds	r3, #24
 800446e:	429c      	cmp	r4, r3
 8004470:	d018      	beq.n	80044a4 <HAL_DMAEx_MultiBufferStart_IT+0x260>
 8004472:	f503 7356 	add.w	r3, r3, #856	; 0x358
 8004476:	429c      	cmp	r4, r3
 8004478:	d014      	beq.n	80044a4 <HAL_DMAEx_MultiBufferStart_IT+0x260>
 800447a:	3318      	adds	r3, #24
 800447c:	429c      	cmp	r4, r3
 800447e:	d011      	beq.n	80044a4 <HAL_DMAEx_MultiBufferStart_IT+0x260>
 8004480:	3318      	adds	r3, #24
 8004482:	429c      	cmp	r4, r3
 8004484:	d00e      	beq.n	80044a4 <HAL_DMAEx_MultiBufferStart_IT+0x260>
 8004486:	3318      	adds	r3, #24
 8004488:	429c      	cmp	r4, r3
 800448a:	d00b      	beq.n	80044a4 <HAL_DMAEx_MultiBufferStart_IT+0x260>
 800448c:	3318      	adds	r3, #24
 800448e:	429c      	cmp	r4, r3
 8004490:	d008      	beq.n	80044a4 <HAL_DMAEx_MultiBufferStart_IT+0x260>
 8004492:	3318      	adds	r3, #24
 8004494:	429c      	cmp	r4, r3
 8004496:	d005      	beq.n	80044a4 <HAL_DMAEx_MultiBufferStart_IT+0x260>
 8004498:	3318      	adds	r3, #24
 800449a:	429c      	cmp	r4, r3
 800449c:	d002      	beq.n	80044a4 <HAL_DMAEx_MultiBufferStart_IT+0x260>
 800449e:	3318      	adds	r3, #24
 80044a0:	429c      	cmp	r4, r3
 80044a2:	d18a      	bne.n	80043ba <HAL_DMAEx_MultiBufferStart_IT+0x176>
 80044a4:	6823      	ldr	r3, [r4, #0]
 80044a6:	f023 031e 	bic.w	r3, r3, #30
 80044aa:	f043 0316 	orr.w	r3, r3, #22
 80044ae:	6023      	str	r3, [r4, #0]
 80044b0:	6963      	ldr	r3, [r4, #20]
 80044b2:	f043 0380 	orr.w	r3, r3, #128	; 0x80
 80044b6:	6163      	str	r3, [r4, #20]
 80044b8:	b90a      	cbnz	r2, 80044be <HAL_DMAEx_MultiBufferStart_IT+0x27a>
 80044ba:	6cab      	ldr	r3, [r5, #72]	; 0x48
 80044bc:	b11b      	cbz	r3, 80044c6 <HAL_DMAEx_MultiBufferStart_IT+0x282>
 80044be:	6823      	ldr	r3, [r4, #0]
 80044c0:	f043 0308 	orr.w	r3, r3, #8
 80044c4:	6023      	str	r3, [r4, #0]
 80044c6:	42b4      	cmp	r4, r6
 80044c8:	d130      	bne.n	800452c <HAL_DMAEx_MultiBufferStart_IT+0x2e8>
 80044ca:	6e2b      	ldr	r3, [r5, #96]	; 0x60
 80044cc:	681a      	ldr	r2, [r3, #0]
 80044ce:	03d2      	lsls	r2, r2, #15
 80044d0:	d45b      	bmi.n	800458a <HAL_DMAEx_MultiBufferStart_IT+0x346>
 80044d2:	6eeb      	ldr	r3, [r5, #108]	; 0x6c
 80044d4:	b11b      	cbz	r3, 80044de <HAL_DMAEx_MultiBufferStart_IT+0x29a>
 80044d6:	681a      	ldr	r2, [r3, #0]
 80044d8:	f442 7280 	orr.w	r2, r2, #256	; 0x100
 80044dc:	601a      	str	r2, [r3, #0]
 80044de:	42b4      	cmp	r4, r6
 80044e0:	d090      	beq.n	8004404 <HAL_DMAEx_MultiBufferStart_IT+0x1c0>
 80044e2:	4b2f      	ldr	r3, [pc, #188]	; (80045a0 <HAL_DMAEx_MultiBufferStart_IT+0x35c>)
 80044e4:	429c      	cmp	r4, r3
 80044e6:	d08d      	beq.n	8004404 <HAL_DMAEx_MultiBufferStart_IT+0x1c0>
 80044e8:	3318      	adds	r3, #24
 80044ea:	429c      	cmp	r4, r3
 80044ec:	d08a      	beq.n	8004404 <HAL_DMAEx_MultiBufferStart_IT+0x1c0>
 80044ee:	3318      	adds	r3, #24
 80044f0:	429c      	cmp	r4, r3
 80044f2:	d087      	beq.n	8004404 <HAL_DMAEx_MultiBufferStart_IT+0x1c0>
 80044f4:	3318      	adds	r3, #24
 80044f6:	429c      	cmp	r4, r3
 80044f8:	d084      	beq.n	8004404 <HAL_DMAEx_MultiBufferStart_IT+0x1c0>
 80044fa:	3318      	adds	r3, #24
 80044fc:	429c      	cmp	r4, r3
 80044fe:	d081      	beq.n	8004404 <HAL_DMAEx_MultiBufferStart_IT+0x1c0>
 8004500:	3318      	adds	r3, #24
 8004502:	429c      	cmp	r4, r3
 8004504:	f43f af7e 	beq.w	8004404 <HAL_DMAEx_MultiBufferStart_IT+0x1c0>
 8004508:	3318      	adds	r3, #24
 800450a:	429c      	cmp	r4, r3
 800450c:	f43f af7a 	beq.w	8004404 <HAL_DMAEx_MultiBufferStart_IT+0x1c0>
 8004510:	f503 7356 	add.w	r3, r3, #856	; 0x358
 8004514:	429c      	cmp	r4, r3
 8004516:	f43f af75 	beq.w	8004404 <HAL_DMAEx_MultiBufferStart_IT+0x1c0>
 800451a:	3318      	adds	r3, #24
 800451c:	429c      	cmp	r4, r3
 800451e:	f43f af71 	beq.w	8004404 <HAL_DMAEx_MultiBufferStart_IT+0x1c0>
 8004522:	3318      	adds	r3, #24
 8004524:	429c      	cmp	r4, r3
 8004526:	f43f af6d 	beq.w	8004404 <HAL_DMAEx_MultiBufferStart_IT+0x1c0>
 800452a:	e76b      	b.n	8004404 <HAL_DMAEx_MultiBufferStart_IT+0x1c0>
 800452c:	4b1c      	ldr	r3, [pc, #112]	; (80045a0 <HAL_DMAEx_MultiBufferStart_IT+0x35c>)
 800452e:	429c      	cmp	r4, r3
 8004530:	d0cb      	beq.n	80044ca <HAL_DMAEx_MultiBufferStart_IT+0x286>
 8004532:	3318      	adds	r3, #24
 8004534:	429c      	cmp	r4, r3
 8004536:	d0c8      	beq.n	80044ca <HAL_DMAEx_MultiBufferStart_IT+0x286>
 8004538:	3318      	adds	r3, #24
 800453a:	429c      	cmp	r4, r3
 800453c:	d0c5      	beq.n	80044ca <HAL_DMAEx_MultiBufferStart_IT+0x286>
 800453e:	3318      	adds	r3, #24
 8004540:	429c      	cmp	r4, r3
 8004542:	d0c2      	beq.n	80044ca <HAL_DMAEx_MultiBufferStart_IT+0x286>
 8004544:	3318      	adds	r3, #24
 8004546:	429c      	cmp	r4, r3
 8004548:	d0bf      	beq.n	80044ca <HAL_DMAEx_MultiBufferStart_IT+0x286>
 800454a:	3318      	adds	r3, #24
 800454c:	429c      	cmp	r4, r3
 800454e:	d0bc      	beq.n	80044ca <HAL_DMAEx_MultiBufferStart_IT+0x286>
 8004550:	3318      	adds	r3, #24
 8004552:	429c      	cmp	r4, r3
 8004554:	d0b9      	beq.n	80044ca <HAL_DMAEx_MultiBufferStart_IT+0x286>
 8004556:	f503 7356 	add.w	r3, r3, #856	; 0x358
 800455a:	429c      	cmp	r4, r3
 800455c:	d0b5      	beq.n	80044ca <HAL_DMAEx_MultiBufferStart_IT+0x286>
 800455e:	3318      	adds	r3, #24
 8004560:	429c      	cmp	r4, r3
 8004562:	d0b2      	beq.n	80044ca <HAL_DMAEx_MultiBufferStart_IT+0x286>
 8004564:	3318      	adds	r3, #24
 8004566:	429c      	cmp	r4, r3
 8004568:	d0af      	beq.n	80044ca <HAL_DMAEx_MultiBufferStart_IT+0x286>
 800456a:	3318      	adds	r3, #24
 800456c:	429c      	cmp	r4, r3
 800456e:	d0ac      	beq.n	80044ca <HAL_DMAEx_MultiBufferStart_IT+0x286>
 8004570:	3318      	adds	r3, #24
 8004572:	429c      	cmp	r4, r3
 8004574:	d0a9      	beq.n	80044ca <HAL_DMAEx_MultiBufferStart_IT+0x286>
 8004576:	3318      	adds	r3, #24
 8004578:	429c      	cmp	r4, r3
 800457a:	d0a6      	beq.n	80044ca <HAL_DMAEx_MultiBufferStart_IT+0x286>
 800457c:	3318      	adds	r3, #24
 800457e:	429c      	cmp	r4, r3
 8004580:	d0a3      	beq.n	80044ca <HAL_DMAEx_MultiBufferStart_IT+0x286>
 8004582:	3318      	adds	r3, #24
 8004584:	429c      	cmp	r4, r3
 8004586:	d0a0      	beq.n	80044ca <HAL_DMAEx_MultiBufferStart_IT+0x286>
 8004588:	e724      	b.n	80043d4 <HAL_DMAEx_MultiBufferStart_IT+0x190>
 800458a:	681a      	ldr	r2, [r3, #0]
 800458c:	f442 7280 	orr.w	r2, r2, #256	; 0x100
 8004590:	601a      	str	r2, [r3, #0]
 8004592:	e79e      	b.n	80044d2 <HAL_DMAEx_MultiBufferStart_IT+0x28e>
 8004594:	f44f 6300 	mov.w	r3, #2048	; 0x800
 8004598:	656b      	str	r3, [r5, #84]	; 0x54
 800459a:	e65c      	b.n	8004256 <HAL_DMAEx_MultiBufferStart_IT+0x12>
 800459c:	2002      	movs	r0, #2
 800459e:	e65a      	b.n	8004256 <HAL_DMAEx_MultiBufferStart_IT+0x12>
 80045a0:	40020028 	.word	0x40020028

080045a4 <HAL_DMAEx_ChangeMemory>:
 80045a4:	6803      	ldr	r3, [r0, #0]
 80045a6:	4814      	ldr	r0, [pc, #80]	; (80045f8 <HAL_DMAEx_ChangeMemory+0x54>)
 80045a8:	4283      	cmp	r3, r0
 80045aa:	d01e      	beq.n	80045ea <HAL_DMAEx_ChangeMemory+0x46>
 80045ac:	3018      	adds	r0, #24
 80045ae:	4283      	cmp	r3, r0
 80045b0:	d01b      	beq.n	80045ea <HAL_DMAEx_ChangeMemory+0x46>
 80045b2:	3018      	adds	r0, #24
 80045b4:	4283      	cmp	r3, r0
 80045b6:	d018      	beq.n	80045ea <HAL_DMAEx_ChangeMemory+0x46>
 80045b8:	3018      	adds	r0, #24
 80045ba:	4283      	cmp	r3, r0
 80045bc:	d015      	beq.n	80045ea <HAL_DMAEx_ChangeMemory+0x46>
 80045be:	3018      	adds	r0, #24
 80045c0:	4283      	cmp	r3, r0
 80045c2:	d012      	beq.n	80045ea <HAL_DMAEx_ChangeMemory+0x46>
 80045c4:	3018      	adds	r0, #24
 80045c6:	4283      	cmp	r3, r0
 80045c8:	d00f      	beq.n	80045ea <HAL_DMAEx_ChangeMemory+0x46>
 80045ca:	3018      	adds	r0, #24
 80045cc:	4283      	cmp	r3, r0
 80045ce:	d00c      	beq.n	80045ea <HAL_DMAEx_ChangeMemory+0x46>
 80045d0:	3018      	adds	r0, #24
 80045d2:	4283      	cmp	r3, r0
 80045d4:	d009      	beq.n	80045ea <HAL_DMAEx_ChangeMemory+0x46>
 80045d6:	f500 7056 	add.w	r0, r0, #856	; 0x358
 80045da:	4283      	cmp	r3, r0
 80045dc:	d005      	beq.n	80045ea <HAL_DMAEx_ChangeMemory+0x46>
 80045de:	3018      	adds	r0, #24
 80045e0:	4283      	cmp	r3, r0
 80045e2:	d002      	beq.n	80045ea <HAL_DMAEx_ChangeMemory+0x46>
 80045e4:	3018      	adds	r0, #24
 80045e6:	4283      	cmp	r3, r0
 80045e8:	d0ff      	beq.n	80045ea <HAL_DMAEx_ChangeMemory+0x46>
 80045ea:	b912      	cbnz	r2, 80045f2 <HAL_DMAEx_ChangeMemory+0x4e>
 80045ec:	60d9      	str	r1, [r3, #12]
 80045ee:	2000      	movs	r0, #0
 80045f0:	4770      	bx	lr
 80045f2:	6119      	str	r1, [r3, #16]
 80045f4:	e7fb      	b.n	80045ee <HAL_DMAEx_ChangeMemory+0x4a>
 80045f6:	bf00      	nop
 80045f8:	40020010 	.word	0x40020010

080045fc <HAL_GPIO_Init>:
 80045fc:	e92d 4ff7 	stmdb	sp!, {r0, r1, r2, r4, r5, r6, r7, r8, r9, sl, fp, lr}
 8004600:	2300      	movs	r3, #0
 8004602:	f8df 91c8 	ldr.w	r9, [pc, #456]	; 80047cc <HAL_GPIO_Init+0x1d0>
 8004606:	f04f 44b0 	mov.w	r4, #1476395008	; 0x58000000
 800460a:	680a      	ldr	r2, [r1, #0]
 800460c:	fa32 f503 	lsrs.w	r5, r2, r3
 8004610:	d102      	bne.n	8004618 <HAL_GPIO_Init+0x1c>
 8004612:	b003      	add	sp, #12
 8004614:	e8bd 8ff0 	ldmia.w	sp!, {r4, r5, r6, r7, r8, r9, sl, fp, pc}
 8004618:	f04f 0e01 	mov.w	lr, #1
 800461c:	fa0e fe03 	lsl.w	lr, lr, r3
 8004620:	ea1e 0202 	ands.w	r2, lr, r2
 8004624:	f000 80bc 	beq.w	80047a0 <HAL_GPIO_Init+0x1a4>
 8004628:	684e      	ldr	r6, [r1, #4]
 800462a:	ea4f 0843 	mov.w	r8, r3, lsl #1
 800462e:	f04f 0c03 	mov.w	ip, #3
 8004632:	f006 0503 	and.w	r5, r6, #3
 8004636:	fa0c fc08 	lsl.w	ip, ip, r8
 800463a:	1e6f      	subs	r7, r5, #1
 800463c:	ea6f 0c0c 	mvn.w	ip, ip
 8004640:	2f01      	cmp	r7, #1
 8004642:	d834      	bhi.n	80046ae <HAL_GPIO_Init+0xb2>
 8004644:	6887      	ldr	r7, [r0, #8]
 8004646:	ea07 0a0c 	and.w	sl, r7, ip
 800464a:	68cf      	ldr	r7, [r1, #12]
 800464c:	fa07 f708 	lsl.w	r7, r7, r8
 8004650:	ea47 070a 	orr.w	r7, r7, sl
 8004654:	6087      	str	r7, [r0, #8]
 8004656:	6847      	ldr	r7, [r0, #4]
 8004658:	ea27 0e0e 	bic.w	lr, r7, lr
 800465c:	f3c6 1700 	ubfx	r7, r6, #4, #1
 8004660:	409f      	lsls	r7, r3
 8004662:	ea47 070e 	orr.w	r7, r7, lr
 8004666:	6047      	str	r7, [r0, #4]
 8004668:	68c7      	ldr	r7, [r0, #12]
 800466a:	2d02      	cmp	r5, #2
 800466c:	ea07 0e0c 	and.w	lr, r7, ip
 8004670:	688f      	ldr	r7, [r1, #8]
 8004672:	fa07 f708 	lsl.w	r7, r7, r8
 8004676:	ea47 070e 	orr.w	r7, r7, lr
 800467a:	60c7      	str	r7, [r0, #12]
 800467c:	d119      	bne.n	80046b2 <HAL_GPIO_Init+0xb6>
 800467e:	ea4f 0ad3 	mov.w	sl, r3, lsr #3
 8004682:	f003 0b07 	and.w	fp, r3, #7
 8004686:	f04f 0e0f 	mov.w	lr, #15
 800468a:	eb00 0a8a 	add.w	sl, r0, sl, lsl #2
 800468e:	ea4f 0b8b 	mov.w	fp, fp, lsl #2
 8004692:	f8da 7020 	ldr.w	r7, [sl, #32]
 8004696:	fa0e fe0b 	lsl.w	lr, lr, fp
 800469a:	ea27 0e0e 	bic.w	lr, r7, lr
 800469e:	690f      	ldr	r7, [r1, #16]
 80046a0:	fa07 f70b 	lsl.w	r7, r7, fp
 80046a4:	ea47 070e 	orr.w	r7, r7, lr
 80046a8:	f8ca 7020 	str.w	r7, [sl, #32]
 80046ac:	e001      	b.n	80046b2 <HAL_GPIO_Init+0xb6>
 80046ae:	2d03      	cmp	r5, #3
 80046b0:	d1da      	bne.n	8004668 <HAL_GPIO_Init+0x6c>
 80046b2:	6807      	ldr	r7, [r0, #0]
 80046b4:	fa05 f508 	lsl.w	r5, r5, r8
 80046b8:	f416 3f40 	tst.w	r6, #196608	; 0x30000
 80046bc:	ea07 070c 	and.w	r7, r7, ip
 80046c0:	ea45 0507 	orr.w	r5, r5, r7
 80046c4:	6005      	str	r5, [r0, #0]
 80046c6:	d06b      	beq.n	80047a0 <HAL_GPIO_Init+0x1a4>
 80046c8:	f8d9 50f4 	ldr.w	r5, [r9, #244]	; 0xf4
 80046cc:	f023 0703 	bic.w	r7, r3, #3
 80046d0:	f003 0c03 	and.w	ip, r3, #3
 80046d4:	f045 0502 	orr.w	r5, r5, #2
 80046d8:	f107 47b0 	add.w	r7, r7, #1476395008	; 0x58000000
 80046dc:	ea4f 0c8c 	mov.w	ip, ip, lsl #2
 80046e0:	f8c9 50f4 	str.w	r5, [r9, #244]	; 0xf4
 80046e4:	f507 6780 	add.w	r7, r7, #1024	; 0x400
 80046e8:	f8d9 50f4 	ldr.w	r5, [r9, #244]	; 0xf4
 80046ec:	f005 0502 	and.w	r5, r5, #2
 80046f0:	9501      	str	r5, [sp, #4]
 80046f2:	9d01      	ldr	r5, [sp, #4]
 80046f4:	250f      	movs	r5, #15
 80046f6:	f8d7 e008 	ldr.w	lr, [r7, #8]
 80046fa:	fa05 f50c 	lsl.w	r5, r5, ip
 80046fe:	ea2e 0e05 	bic.w	lr, lr, r5
 8004702:	4d31      	ldr	r5, [pc, #196]	; (80047c8 <HAL_GPIO_Init+0x1cc>)
 8004704:	42a8      	cmp	r0, r5
 8004706:	d04d      	beq.n	80047a4 <HAL_GPIO_Init+0x1a8>
 8004708:	f505 6580 	add.w	r5, r5, #1024	; 0x400
 800470c:	42a8      	cmp	r0, r5
 800470e:	d04b      	beq.n	80047a8 <HAL_GPIO_Init+0x1ac>
 8004710:	f505 6580 	add.w	r5, r5, #1024	; 0x400
 8004714:	42a8      	cmp	r0, r5
 8004716:	d049      	beq.n	80047ac <HAL_GPIO_Init+0x1b0>
 8004718:	f505 6580 	add.w	r5, r5, #1024	; 0x400
 800471c:	42a8      	cmp	r0, r5
 800471e:	d047      	beq.n	80047b0 <HAL_GPIO_Init+0x1b4>
 8004720:	f505 6580 	add.w	r5, r5, #1024	; 0x400
 8004724:	42a8      	cmp	r0, r5
 8004726:	d045      	beq.n	80047b4 <HAL_GPIO_Init+0x1b8>
 8004728:	f505 6580 	add.w	r5, r5, #1024	; 0x400
 800472c:	42a8      	cmp	r0, r5
 800472e:	d043      	beq.n	80047b8 <HAL_GPIO_Init+0x1bc>
 8004730:	f505 6580 	add.w	r5, r5, #1024	; 0x400
 8004734:	42a8      	cmp	r0, r5
 8004736:	d041      	beq.n	80047bc <HAL_GPIO_Init+0x1c0>
 8004738:	f505 6580 	add.w	r5, r5, #1024	; 0x400
 800473c:	42a8      	cmp	r0, r5
 800473e:	d03f      	beq.n	80047c0 <HAL_GPIO_Init+0x1c4>
 8004740:	f505 6580 	add.w	r5, r5, #1024	; 0x400
 8004744:	42a8      	cmp	r0, r5
 8004746:	d03d      	beq.n	80047c4 <HAL_GPIO_Init+0x1c8>
 8004748:	f505 6580 	add.w	r5, r5, #1024	; 0x400
 800474c:	42a8      	cmp	r0, r5
 800474e:	bf0c      	ite	eq
 8004750:	2509      	moveq	r5, #9
 8004752:	250a      	movne	r5, #10
 8004754:	fa05 f50c 	lsl.w	r5, r5, ip
 8004758:	f416 1f80 	tst.w	r6, #1048576	; 0x100000
 800475c:	ea45 050e 	orr.w	r5, r5, lr
 8004760:	60bd      	str	r5, [r7, #8]
 8004762:	ea6f 0702 	mvn.w	r7, r2
 8004766:	6825      	ldr	r5, [r4, #0]
 8004768:	bf0c      	ite	eq
 800476a:	403d      	andeq	r5, r7
 800476c:	4315      	orrne	r5, r2
 800476e:	f416 1f00 	tst.w	r6, #2097152	; 0x200000
 8004772:	6025      	str	r5, [r4, #0]
 8004774:	6865      	ldr	r5, [r4, #4]
 8004776:	bf0c      	ite	eq
 8004778:	403d      	andeq	r5, r7
 800477a:	4315      	orrne	r5, r2
 800477c:	f416 3f00 	tst.w	r6, #131072	; 0x20000
 8004780:	6065      	str	r5, [r4, #4]
 8004782:	f8d4 5084 	ldr.w	r5, [r4, #132]	; 0x84
 8004786:	bf0c      	ite	eq
 8004788:	403d      	andeq	r5, r7
 800478a:	4315      	orrne	r5, r2
 800478c:	03f6      	lsls	r6, r6, #15
 800478e:	f8c4 5084 	str.w	r5, [r4, #132]	; 0x84
 8004792:	f8d4 5080 	ldr.w	r5, [r4, #128]	; 0x80
 8004796:	bf54      	ite	pl
 8004798:	403d      	andpl	r5, r7
 800479a:	4315      	orrmi	r5, r2
 800479c:	f8c4 5080 	str.w	r5, [r4, #128]	; 0x80
 80047a0:	3301      	adds	r3, #1
 80047a2:	e732      	b.n	800460a <HAL_GPIO_Init+0xe>
 80047a4:	2500      	movs	r5, #0
 80047a6:	e7d5      	b.n	8004754 <HAL_GPIO_Init+0x158>
 80047a8:	2501      	movs	r5, #1
 80047aa:	e7d3      	b.n	8004754 <HAL_GPIO_Init+0x158>
 80047ac:	2502      	movs	r5, #2
 80047ae:	e7d1      	b.n	8004754 <HAL_GPIO_Init+0x158>
 80047b0:	2503      	movs	r5, #3
 80047b2:	e7cf      	b.n	8004754 <HAL_GPIO_Init+0x158>
 80047b4:	2504      	movs	r5, #4
 80047b6:	e7cd      	b.n	8004754 <HAL_GPIO_Init+0x158>
 80047b8:	2505      	movs	r5, #5
 80047ba:	e7cb      	b.n	8004754 <HAL_GPIO_Init+0x158>
 80047bc:	2506      	movs	r5, #6
 80047be:	e7c9      	b.n	8004754 <HAL_GPIO_Init+0x158>
 80047c0:	2507      	movs	r5, #7
 80047c2:	e7c7      	b.n	8004754 <HAL_GPIO_Init+0x158>
 80047c4:	2508      	movs	r5, #8
 80047c6:	e7c5      	b.n	8004754 <HAL_GPIO_Init+0x158>
 80047c8:	58020000 	.word	0x58020000
 80047cc:	58024400 	.word	0x58024400

080047d0 <HAL_GPIO_ReadPin>:
 80047d0:	6903      	ldr	r3, [r0, #16]
 80047d2:	4219      	tst	r1, r3
 80047d4:	bf14      	ite	ne
 80047d6:	2001      	movne	r0, #1
 80047d8:	2000      	moveq	r0, #0
 80047da:	4770      	bx	lr

080047dc <HAL_GPIO_WritePin>:
 80047dc:	b10a      	cbz	r2, 80047e2 <HAL_GPIO_WritePin+0x6>
 80047de:	6181      	str	r1, [r0, #24]
 80047e0:	4770      	bx	lr
 80047e2:	0409      	lsls	r1, r1, #16
 80047e4:	e7fb      	b.n	80047de <HAL_GPIO_WritePin+0x2>

080047e6 <HAL_GPIO_TogglePin>:
 80047e6:	6943      	ldr	r3, [r0, #20]
 80047e8:	ea01 0203 	and.w	r2, r1, r3
 80047ec:	ea21 0103 	bic.w	r1, r1, r3
 80047f0:	ea41 4102 	orr.w	r1, r1, r2, lsl #16
 80047f4:	6181      	str	r1, [r0, #24]
 80047f6:	4770      	bx	lr

080047f8 <I2C_Flush_TXDR>:
 80047f8:	6803      	ldr	r3, [r0, #0]
 80047fa:	699a      	ldr	r2, [r3, #24]
 80047fc:	0791      	lsls	r1, r2, #30
 80047fe:	d501      	bpl.n	8004804 <I2C_Flush_TXDR+0xc>
 8004800:	2200      	movs	r2, #0
 8004802:	629a      	str	r2, [r3, #40]	; 0x28
 8004804:	699a      	ldr	r2, [r3, #24]
 8004806:	07d2      	lsls	r2, r2, #31
 8004808:	d403      	bmi.n	8004812 <I2C_Flush_TXDR+0x1a>
 800480a:	699a      	ldr	r2, [r3, #24]
 800480c:	f042 0201 	orr.w	r2, r2, #1
 8004810:	619a      	str	r2, [r3, #24]
 8004812:	4770      	bx	lr

08004814 <I2C_TransferConfig>:
 8004814:	b530      	push	{r4, r5, lr}
 8004816:	9d03      	ldr	r5, [sp, #12]
 8004818:	f3c1 0109 	ubfx	r1, r1, #0, #10
 800481c:	6804      	ldr	r4, [r0, #0]
 800481e:	432b      	orrs	r3, r5
 8004820:	6860      	ldr	r0, [r4, #4]
 8004822:	ea43 4302 	orr.w	r3, r3, r2, lsl #16
 8004826:	4a05      	ldr	r2, [pc, #20]	; (800483c <I2C_TransferConfig+0x28>)
 8004828:	430b      	orrs	r3, r1
 800482a:	ea42 5255 	orr.w	r2, r2, r5, lsr #21
 800482e:	f023 4300 	bic.w	r3, r3, #2147483648	; 0x80000000
 8004832:	ea20 0002 	bic.w	r0, r0, r2
 8004836:	4303      	orrs	r3, r0
 8004838:	6063      	str	r3, [r4, #4]
 800483a:	bd30      	pop	{r4, r5, pc}
 800483c:	03ff63ff 	.word	0x03ff63ff

08004840 <I2C_IsErrorOccurred>:
 8004840:	6803      	ldr	r3, [r0, #0]
 8004842:	e92d 41f0 	stmdb	sp!, {r4, r5, r6, r7, r8, lr}
 8004846:	699c      	ldr	r4, [r3, #24]
 8004848:	4605      	mov	r5, r0
 800484a:	460f      	mov	r7, r1
 800484c:	4616      	mov	r6, r2
 800484e:	f014 0410 	ands.w	r4, r4, #16
 8004852:	d06f      	beq.n	8004934 <I2C_IsErrorOccurred+0xf4>
 8004854:	2400      	movs	r4, #0
 8004856:	2210      	movs	r2, #16
 8004858:	46a0      	mov	r8, r4
 800485a:	61da      	str	r2, [r3, #28]
 800485c:	682b      	ldr	r3, [r5, #0]
 800485e:	699a      	ldr	r2, [r3, #24]
 8004860:	0690      	lsls	r0, r2, #26
 8004862:	d461      	bmi.n	8004928 <I2C_IsErrorOccurred+0xe8>
 8004864:	f1b8 0f00 	cmp.w	r8, #0
 8004868:	d035      	beq.n	80048d6 <I2C_IsErrorOccurred+0x96>
 800486a:	f044 0404 	orr.w	r4, r4, #4
 800486e:	2001      	movs	r0, #1
 8004870:	682e      	ldr	r6, [r5, #0]
 8004872:	69b3      	ldr	r3, [r6, #24]
 8004874:	05d9      	lsls	r1, r3, #23
 8004876:	d505      	bpl.n	8004884 <I2C_IsErrorOccurred+0x44>
 8004878:	f44f 7280 	mov.w	r2, #256	; 0x100
 800487c:	f044 0401 	orr.w	r4, r4, #1
 8004880:	2001      	movs	r0, #1
 8004882:	61f2      	str	r2, [r6, #28]
 8004884:	055a      	lsls	r2, r3, #21
 8004886:	d505      	bpl.n	8004894 <I2C_IsErrorOccurred+0x54>
 8004888:	f44f 6280 	mov.w	r2, #1024	; 0x400
 800488c:	f044 0408 	orr.w	r4, r4, #8
 8004890:	2001      	movs	r0, #1
 8004892:	61f2      	str	r2, [r6, #28]
 8004894:	059b      	lsls	r3, r3, #22
 8004896:	d54f      	bpl.n	8004938 <I2C_IsErrorOccurred+0xf8>
 8004898:	f44f 7300 	mov.w	r3, #512	; 0x200
 800489c:	f044 0402 	orr.w	r4, r4, #2
 80048a0:	61f3      	str	r3, [r6, #28]
 80048a2:	4628      	mov	r0, r5
 80048a4:	f7ff ffa8 	bl	80047f8 <I2C_Flush_TXDR>
 80048a8:	6873      	ldr	r3, [r6, #4]
 80048aa:	2001      	movs	r0, #1
 80048ac:	f023 73ff 	bic.w	r3, r3, #33423360	; 0x1fe0000
 80048b0:	f423 338b 	bic.w	r3, r3, #71168	; 0x11600
 80048b4:	f423 73ff 	bic.w	r3, r3, #510	; 0x1fe
 80048b8:	f023 0301 	bic.w	r3, r3, #1
 80048bc:	6073      	str	r3, [r6, #4]
 80048be:	6c6b      	ldr	r3, [r5, #68]	; 0x44
 80048c0:	4323      	orrs	r3, r4
 80048c2:	646b      	str	r3, [r5, #68]	; 0x44
 80048c4:	2320      	movs	r3, #32
 80048c6:	f885 3041 	strb.w	r3, [r5, #65]	; 0x41
 80048ca:	2300      	movs	r3, #0
 80048cc:	f885 3042 	strb.w	r3, [r5, #66]	; 0x42
 80048d0:	f885 3040 	strb.w	r3, [r5, #64]	; 0x40
 80048d4:	e032      	b.n	800493c <I2C_IsErrorOccurred+0xfc>
 80048d6:	1c7a      	adds	r2, r7, #1
 80048d8:	d0c1      	beq.n	800485e <I2C_IsErrorOccurred+0x1e>
 80048da:	f7fe fbf9 	bl	80030d0 <HAL_GetTick>
 80048de:	1b80      	subs	r0, r0, r6
 80048e0:	42b8      	cmp	r0, r7
 80048e2:	d801      	bhi.n	80048e8 <I2C_IsErrorOccurred+0xa8>
 80048e4:	2f00      	cmp	r7, #0
 80048e6:	d1b9      	bne.n	800485c <I2C_IsErrorOccurred+0x1c>
 80048e8:	682b      	ldr	r3, [r5, #0]
 80048ea:	6859      	ldr	r1, [r3, #4]
 80048ec:	f895 2042 	ldrb.w	r2, [r5, #66]	; 0x42
 80048f0:	6998      	ldr	r0, [r3, #24]
 80048f2:	b2d2      	uxtb	r2, r2
 80048f4:	0400      	lsls	r0, r0, #16
 80048f6:	d50a      	bpl.n	800490e <I2C_IsErrorOccurred+0xce>
 80048f8:	0449      	lsls	r1, r1, #17
 80048fa:	d408      	bmi.n	800490e <I2C_IsErrorOccurred+0xce>
 80048fc:	2a20      	cmp	r2, #32
 80048fe:	d006      	beq.n	800490e <I2C_IsErrorOccurred+0xce>
 8004900:	685a      	ldr	r2, [r3, #4]
 8004902:	f442 4280 	orr.w	r2, r2, #16384	; 0x4000
 8004906:	605a      	str	r2, [r3, #4]
 8004908:	f7fe fbe2 	bl	80030d0 <HAL_GetTick>
 800490c:	4606      	mov	r6, r0
 800490e:	682b      	ldr	r3, [r5, #0]
 8004910:	699b      	ldr	r3, [r3, #24]
 8004912:	069b      	lsls	r3, r3, #26
 8004914:	d4a2      	bmi.n	800485c <I2C_IsErrorOccurred+0x1c>
 8004916:	f7fe fbdb 	bl	80030d0 <HAL_GetTick>
 800491a:	1b80      	subs	r0, r0, r6
 800491c:	2819      	cmp	r0, #25
 800491e:	d9f6      	bls.n	800490e <I2C_IsErrorOccurred+0xce>
 8004920:	2420      	movs	r4, #32
 8004922:	f04f 0801 	mov.w	r8, #1
 8004926:	e799      	b.n	800485c <I2C_IsErrorOccurred+0x1c>
 8004928:	f1b8 0f00 	cmp.w	r8, #0
 800492c:	d19d      	bne.n	800486a <I2C_IsErrorOccurred+0x2a>
 800492e:	2220      	movs	r2, #32
 8004930:	61da      	str	r2, [r3, #28]
 8004932:	e79a      	b.n	800486a <I2C_IsErrorOccurred+0x2a>
 8004934:	4620      	mov	r0, r4
 8004936:	e79b      	b.n	8004870 <I2C_IsErrorOccurred+0x30>
 8004938:	2800      	cmp	r0, #0
 800493a:	d1b2      	bne.n	80048a2 <I2C_IsErrorOccurred+0x62>
 800493c:	e8bd 81f0 	ldmia.w	sp!, {r4, r5, r6, r7, r8, pc}

08004940 <I2C_WaitOnTXISFlagUntilTimeout>:
 8004940:	b570      	push	{r4, r5, r6, lr}
 8004942:	4604      	mov	r4, r0
 8004944:	460d      	mov	r5, r1
 8004946:	4616      	mov	r6, r2
 8004948:	6823      	ldr	r3, [r4, #0]
 800494a:	699b      	ldr	r3, [r3, #24]
 800494c:	079b      	lsls	r3, r3, #30
 800494e:	d501      	bpl.n	8004954 <I2C_WaitOnTXISFlagUntilTimeout+0x14>
 8004950:	2000      	movs	r0, #0
 8004952:	bd70      	pop	{r4, r5, r6, pc}
 8004954:	4632      	mov	r2, r6
 8004956:	4629      	mov	r1, r5
 8004958:	4620      	mov	r0, r4
 800495a:	f7ff ff71 	bl	8004840 <I2C_IsErrorOccurred>
 800495e:	b9c0      	cbnz	r0, 8004992 <I2C_WaitOnTXISFlagUntilTimeout+0x52>
 8004960:	1c6a      	adds	r2, r5, #1
 8004962:	d0f1      	beq.n	8004948 <I2C_WaitOnTXISFlagUntilTimeout+0x8>
 8004964:	f7fe fbb4 	bl	80030d0 <HAL_GetTick>
 8004968:	1b80      	subs	r0, r0, r6
 800496a:	42a8      	cmp	r0, r5
 800496c:	d801      	bhi.n	8004972 <I2C_WaitOnTXISFlagUntilTimeout+0x32>
 800496e:	2d00      	cmp	r5, #0
 8004970:	d1ea      	bne.n	8004948 <I2C_WaitOnTXISFlagUntilTimeout+0x8>
 8004972:	6823      	ldr	r3, [r4, #0]
 8004974:	699b      	ldr	r3, [r3, #24]
 8004976:	f013 0302 	ands.w	r3, r3, #2
 800497a:	d1e5      	bne.n	8004948 <I2C_WaitOnTXISFlagUntilTimeout+0x8>
 800497c:	6c62      	ldr	r2, [r4, #68]	; 0x44
 800497e:	f884 3040 	strb.w	r3, [r4, #64]	; 0x40
 8004982:	f042 0220 	orr.w	r2, r2, #32
 8004986:	6462      	str	r2, [r4, #68]	; 0x44
 8004988:	2220      	movs	r2, #32
 800498a:	f884 2041 	strb.w	r2, [r4, #65]	; 0x41
 800498e:	f884 3042 	strb.w	r3, [r4, #66]	; 0x42
 8004992:	2001      	movs	r0, #1
 8004994:	e7dd      	b.n	8004952 <I2C_WaitOnTXISFlagUntilTimeout+0x12>

08004996 <I2C_WaitOnFlagUntilTimeout>:
 8004996:	e92d 41f0 	stmdb	sp!, {r4, r5, r6, r7, r8, lr}
 800499a:	9f06      	ldr	r7, [sp, #24]
 800499c:	4604      	mov	r4, r0
 800499e:	4688      	mov	r8, r1
 80049a0:	4616      	mov	r6, r2
 80049a2:	461d      	mov	r5, r3
 80049a4:	6822      	ldr	r2, [r4, #0]
 80049a6:	6993      	ldr	r3, [r2, #24]
 80049a8:	ea38 0303 	bics.w	r3, r8, r3
 80049ac:	bf0c      	ite	eq
 80049ae:	2301      	moveq	r3, #1
 80049b0:	2300      	movne	r3, #0
 80049b2:	42b3      	cmp	r3, r6
 80049b4:	d001      	beq.n	80049ba <I2C_WaitOnFlagUntilTimeout+0x24>
 80049b6:	2000      	movs	r0, #0
 80049b8:	e01e      	b.n	80049f8 <I2C_WaitOnFlagUntilTimeout+0x62>
 80049ba:	1c6b      	adds	r3, r5, #1
 80049bc:	d0f3      	beq.n	80049a6 <I2C_WaitOnFlagUntilTimeout+0x10>
 80049be:	f7fe fb87 	bl	80030d0 <HAL_GetTick>
 80049c2:	1bc0      	subs	r0, r0, r7
 80049c4:	42a8      	cmp	r0, r5
 80049c6:	d801      	bhi.n	80049cc <I2C_WaitOnFlagUntilTimeout+0x36>
 80049c8:	2d00      	cmp	r5, #0
 80049ca:	d1eb      	bne.n	80049a4 <I2C_WaitOnFlagUntilTimeout+0xe>
 80049cc:	6823      	ldr	r3, [r4, #0]
 80049ce:	699b      	ldr	r3, [r3, #24]
 80049d0:	ea38 0303 	bics.w	r3, r8, r3
 80049d4:	bf0c      	ite	eq
 80049d6:	2301      	moveq	r3, #1
 80049d8:	2300      	movne	r3, #0
 80049da:	42b3      	cmp	r3, r6
 80049dc:	d1e2      	bne.n	80049a4 <I2C_WaitOnFlagUntilTimeout+0xe>
 80049de:	6c63      	ldr	r3, [r4, #68]	; 0x44
 80049e0:	2001      	movs	r0, #1
 80049e2:	f043 0320 	orr.w	r3, r3, #32
 80049e6:	6463      	str	r3, [r4, #68]	; 0x44
 80049e8:	2320      	movs	r3, #32
 80049ea:	f884 3041 	strb.w	r3, [r4, #65]	; 0x41
 80049ee:	2300      	movs	r3, #0
 80049f0:	f884 3042 	strb.w	r3, [r4, #66]	; 0x42
 80049f4:	f884 3040 	strb.w	r3, [r4, #64]	; 0x40
 80049f8:	e8bd 81f0 	ldmia.w	sp!, {r4, r5, r6, r7, r8, pc}

080049fc <I2C_WaitOnSTOPFlagUntilTimeout>:
 80049fc:	b570      	push	{r4, r5, r6, lr}
 80049fe:	4604      	mov	r4, r0
 8004a00:	460d      	mov	r5, r1
 8004a02:	4616      	mov	r6, r2
 8004a04:	6823      	ldr	r3, [r4, #0]
 8004a06:	699b      	ldr	r3, [r3, #24]
 8004a08:	069b      	lsls	r3, r3, #26
 8004a0a:	d501      	bpl.n	8004a10 <I2C_WaitOnSTOPFlagUntilTimeout+0x14>
 8004a0c:	2000      	movs	r0, #0
 8004a0e:	bd70      	pop	{r4, r5, r6, pc}
 8004a10:	4632      	mov	r2, r6
 8004a12:	4629      	mov	r1, r5
 8004a14:	4620      	mov	r0, r4
 8004a16:	f7ff ff13 	bl	8004840 <I2C_IsErrorOccurred>
 8004a1a:	b9b0      	cbnz	r0, 8004a4a <I2C_WaitOnSTOPFlagUntilTimeout+0x4e>
 8004a1c:	f7fe fb58 	bl	80030d0 <HAL_GetTick>
 8004a20:	1b80      	subs	r0, r0, r6
 8004a22:	42a8      	cmp	r0, r5
 8004a24:	d801      	bhi.n	8004a2a <I2C_WaitOnSTOPFlagUntilTimeout+0x2e>
 8004a26:	2d00      	cmp	r5, #0
 8004a28:	d1ec      	bne.n	8004a04 <I2C_WaitOnSTOPFlagUntilTimeout+0x8>
 8004a2a:	6823      	ldr	r3, [r4, #0]
 8004a2c:	699b      	ldr	r3, [r3, #24]
 8004a2e:	f013 0320 	ands.w	r3, r3, #32
 8004a32:	d1e7      	bne.n	8004a04 <I2C_WaitOnSTOPFlagUntilTimeout+0x8>
 8004a34:	6c62      	ldr	r2, [r4, #68]	; 0x44
 8004a36:	f884 3040 	strb.w	r3, [r4, #64]	; 0x40
 8004a3a:	f042 0220 	orr.w	r2, r2, #32
 8004a3e:	6462      	str	r2, [r4, #68]	; 0x44
 8004a40:	2220      	movs	r2, #32
 8004a42:	f884 2041 	strb.w	r2, [r4, #65]	; 0x41
 8004a46:	f884 3042 	strb.w	r3, [r4, #66]	; 0x42
 8004a4a:	2001      	movs	r0, #1
 8004a4c:	e7df      	b.n	8004a0e <I2C_WaitOnSTOPFlagUntilTimeout+0x12>

08004a4e <I2C_WaitOnRXNEFlagUntilTimeout>:
 8004a4e:	b570      	push	{r4, r5, r6, lr}
 8004a50:	4604      	mov	r4, r0
 8004a52:	460d      	mov	r5, r1
 8004a54:	4616      	mov	r6, r2
 8004a56:	6823      	ldr	r3, [r4, #0]
 8004a58:	699b      	ldr	r3, [r3, #24]
 8004a5a:	075b      	lsls	r3, r3, #29
 8004a5c:	d40e      	bmi.n	8004a7c <I2C_WaitOnRXNEFlagUntilTimeout+0x2e>
 8004a5e:	4632      	mov	r2, r6
 8004a60:	4629      	mov	r1, r5
 8004a62:	4620      	mov	r0, r4
 8004a64:	f7ff feec 	bl	8004840 <I2C_IsErrorOccurred>
 8004a68:	bb28      	cbnz	r0, 8004ab6 <I2C_WaitOnRXNEFlagUntilTimeout+0x68>
 8004a6a:	6823      	ldr	r3, [r4, #0]
 8004a6c:	699a      	ldr	r2, [r3, #24]
 8004a6e:	0691      	lsls	r1, r2, #26
 8004a70:	d523      	bpl.n	8004aba <I2C_WaitOnRXNEFlagUntilTimeout+0x6c>
 8004a72:	699a      	ldr	r2, [r3, #24]
 8004a74:	0752      	lsls	r2, r2, #29
 8004a76:	d503      	bpl.n	8004a80 <I2C_WaitOnRXNEFlagUntilTimeout+0x32>
 8004a78:	8d22      	ldrh	r2, [r4, #40]	; 0x28
 8004a7a:	b10a      	cbz	r2, 8004a80 <I2C_WaitOnRXNEFlagUntilTimeout+0x32>
 8004a7c:	2000      	movs	r0, #0
 8004a7e:	bd70      	pop	{r4, r5, r6, pc}
 8004a80:	699a      	ldr	r2, [r3, #24]
 8004a82:	f012 0210 	ands.w	r2, r2, #16
 8004a86:	d002      	beq.n	8004a8e <I2C_WaitOnRXNEFlagUntilTimeout+0x40>
 8004a88:	2210      	movs	r2, #16
 8004a8a:	61da      	str	r2, [r3, #28]
 8004a8c:	2204      	movs	r2, #4
 8004a8e:	2120      	movs	r1, #32
 8004a90:	6462      	str	r2, [r4, #68]	; 0x44
 8004a92:	61d9      	str	r1, [r3, #28]
 8004a94:	685a      	ldr	r2, [r3, #4]
 8004a96:	f022 72ff 	bic.w	r2, r2, #33423360	; 0x1fe0000
 8004a9a:	f422 328b 	bic.w	r2, r2, #71168	; 0x11600
 8004a9e:	f422 72ff 	bic.w	r2, r2, #510	; 0x1fe
 8004aa2:	f022 0201 	bic.w	r2, r2, #1
 8004aa6:	605a      	str	r2, [r3, #4]
 8004aa8:	2300      	movs	r3, #0
 8004aaa:	f884 1041 	strb.w	r1, [r4, #65]	; 0x41
 8004aae:	f884 3042 	strb.w	r3, [r4, #66]	; 0x42
 8004ab2:	f884 3040 	strb.w	r3, [r4, #64]	; 0x40
 8004ab6:	2001      	movs	r0, #1
 8004ab8:	e7e1      	b.n	8004a7e <I2C_WaitOnRXNEFlagUntilTimeout+0x30>
 8004aba:	f7fe fb09 	bl	80030d0 <HAL_GetTick>
 8004abe:	1b80      	subs	r0, r0, r6
 8004ac0:	42a8      	cmp	r0, r5
 8004ac2:	d801      	bhi.n	8004ac8 <I2C_WaitOnRXNEFlagUntilTimeout+0x7a>
 8004ac4:	2d00      	cmp	r5, #0
 8004ac6:	d1c6      	bne.n	8004a56 <I2C_WaitOnRXNEFlagUntilTimeout+0x8>
 8004ac8:	6823      	ldr	r3, [r4, #0]
 8004aca:	699b      	ldr	r3, [r3, #24]
 8004acc:	f013 0304 	ands.w	r3, r3, #4
 8004ad0:	d1c1      	bne.n	8004a56 <I2C_WaitOnRXNEFlagUntilTimeout+0x8>
 8004ad2:	6c62      	ldr	r2, [r4, #68]	; 0x44
 8004ad4:	f042 0220 	orr.w	r2, r2, #32
 8004ad8:	6462      	str	r2, [r4, #68]	; 0x44
 8004ada:	2220      	movs	r2, #32
 8004adc:	f884 2041 	strb.w	r2, [r4, #65]	; 0x41
 8004ae0:	e7e7      	b.n	8004ab2 <I2C_WaitOnRXNEFlagUntilTimeout+0x64>

08004ae2 <HAL_I2C_Init>:
 8004ae2:	b510      	push	{r4, lr}
 8004ae4:	4604      	mov	r4, r0
 8004ae6:	2800      	cmp	r0, #0
 8004ae8:	d04a      	beq.n	8004b80 <HAL_I2C_Init+0x9e>
 8004aea:	f890 3041 	ldrb.w	r3, [r0, #65]	; 0x41
 8004aee:	f003 02ff 	and.w	r2, r3, #255	; 0xff
 8004af2:	b91b      	cbnz	r3, 8004afc <HAL_I2C_Init+0x1a>
 8004af4:	f880 2040 	strb.w	r2, [r0, #64]	; 0x40
 8004af8:	f7fd ff1e 	bl	8002938 <HAL_I2C_MspInit>
 8004afc:	2324      	movs	r3, #36	; 0x24
 8004afe:	f884 3041 	strb.w	r3, [r4, #65]	; 0x41
 8004b02:	6823      	ldr	r3, [r4, #0]
 8004b04:	681a      	ldr	r2, [r3, #0]
 8004b06:	f022 0201 	bic.w	r2, r2, #1
 8004b0a:	601a      	str	r2, [r3, #0]
 8004b0c:	6862      	ldr	r2, [r4, #4]
 8004b0e:	f022 6270 	bic.w	r2, r2, #251658240	; 0xf000000
 8004b12:	611a      	str	r2, [r3, #16]
 8004b14:	689a      	ldr	r2, [r3, #8]
 8004b16:	f422 4200 	bic.w	r2, r2, #32768	; 0x8000
 8004b1a:	609a      	str	r2, [r3, #8]
 8004b1c:	e9d4 2102 	ldrd	r2, r1, [r4, #8]
 8004b20:	2901      	cmp	r1, #1
 8004b22:	d124      	bne.n	8004b6e <HAL_I2C_Init+0x8c>
 8004b24:	f442 4200 	orr.w	r2, r2, #32768	; 0x8000
 8004b28:	609a      	str	r2, [r3, #8]
 8004b2a:	685a      	ldr	r2, [r3, #4]
 8004b2c:	2000      	movs	r0, #0
 8004b2e:	f042 7200 	orr.w	r2, r2, #33554432	; 0x2000000
 8004b32:	f442 4200 	orr.w	r2, r2, #32768	; 0x8000
 8004b36:	605a      	str	r2, [r3, #4]
 8004b38:	68da      	ldr	r2, [r3, #12]
 8004b3a:	f422 4200 	bic.w	r2, r2, #32768	; 0x8000
 8004b3e:	60da      	str	r2, [r3, #12]
 8004b40:	e9d4 2104 	ldrd	r2, r1, [r4, #16]
 8004b44:	430a      	orrs	r2, r1
 8004b46:	69a1      	ldr	r1, [r4, #24]
 8004b48:	ea42 2201 	orr.w	r2, r2, r1, lsl #8
 8004b4c:	60da      	str	r2, [r3, #12]
 8004b4e:	e9d4 2107 	ldrd	r2, r1, [r4, #28]
 8004b52:	430a      	orrs	r2, r1
 8004b54:	601a      	str	r2, [r3, #0]
 8004b56:	681a      	ldr	r2, [r3, #0]
 8004b58:	f042 0201 	orr.w	r2, r2, #1
 8004b5c:	601a      	str	r2, [r3, #0]
 8004b5e:	2320      	movs	r3, #32
 8004b60:	6460      	str	r0, [r4, #68]	; 0x44
 8004b62:	f884 3041 	strb.w	r3, [r4, #65]	; 0x41
 8004b66:	6320      	str	r0, [r4, #48]	; 0x30
 8004b68:	f884 0042 	strb.w	r0, [r4, #66]	; 0x42
 8004b6c:	bd10      	pop	{r4, pc}
 8004b6e:	f442 4204 	orr.w	r2, r2, #33792	; 0x8400
 8004b72:	2902      	cmp	r1, #2
 8004b74:	609a      	str	r2, [r3, #8]
 8004b76:	d1d8      	bne.n	8004b2a <HAL_I2C_Init+0x48>
 8004b78:	f44f 6200 	mov.w	r2, #2048	; 0x800
 8004b7c:	605a      	str	r2, [r3, #4]
 8004b7e:	e7d4      	b.n	8004b2a <HAL_I2C_Init+0x48>
 8004b80:	2001      	movs	r0, #1
 8004b82:	e7f3      	b.n	8004b6c <HAL_I2C_Init+0x8a>

08004b84 <HAL_I2C_Master_Transmit>:
 8004b84:	e92d 47f3 	stmdb	sp!, {r0, r1, r4, r5, r6, r7, r8, r9, sl, lr}
 8004b88:	4698      	mov	r8, r3
 8004b8a:	f890 3041 	ldrb.w	r3, [r0, #65]	; 0x41
 8004b8e:	4604      	mov	r4, r0
 8004b90:	460e      	mov	r6, r1
 8004b92:	2b20      	cmp	r3, #32
 8004b94:	4691      	mov	r9, r2
 8004b96:	9f0a      	ldr	r7, [sp, #40]	; 0x28
 8004b98:	f040 8086 	bne.w	8004ca8 <HAL_I2C_Master_Transmit+0x124>
 8004b9c:	f890 3040 	ldrb.w	r3, [r0, #64]	; 0x40
 8004ba0:	2b01      	cmp	r3, #1
 8004ba2:	f000 8081 	beq.w	8004ca8 <HAL_I2C_Master_Transmit+0x124>
 8004ba6:	f04f 0a01 	mov.w	sl, #1
 8004baa:	f880 a040 	strb.w	sl, [r0, #64]	; 0x40
 8004bae:	f7fe fa8f 	bl	80030d0 <HAL_GetTick>
 8004bb2:	2319      	movs	r3, #25
 8004bb4:	4605      	mov	r5, r0
 8004bb6:	9000      	str	r0, [sp, #0]
 8004bb8:	4652      	mov	r2, sl
 8004bba:	f44f 4100 	mov.w	r1, #32768	; 0x8000
 8004bbe:	4620      	mov	r0, r4
 8004bc0:	f7ff fee9 	bl	8004996 <I2C_WaitOnFlagUntilTimeout>
 8004bc4:	b118      	cbz	r0, 8004bce <HAL_I2C_Master_Transmit+0x4a>
 8004bc6:	2001      	movs	r0, #1
 8004bc8:	b002      	add	sp, #8
 8004bca:	e8bd 87f0 	ldmia.w	sp!, {r4, r5, r6, r7, r8, r9, sl, pc}
 8004bce:	2321      	movs	r3, #33	; 0x21
 8004bd0:	f8c4 9024 	str.w	r9, [r4, #36]	; 0x24
 8004bd4:	6360      	str	r0, [r4, #52]	; 0x34
 8004bd6:	f884 3041 	strb.w	r3, [r4, #65]	; 0x41
 8004bda:	2310      	movs	r3, #16
 8004bdc:	f884 3042 	strb.w	r3, [r4, #66]	; 0x42
 8004be0:	6460      	str	r0, [r4, #68]	; 0x44
 8004be2:	f8a4 802a 	strh.w	r8, [r4, #42]	; 0x2a
 8004be6:	8d63      	ldrh	r3, [r4, #42]	; 0x2a
 8004be8:	b29b      	uxth	r3, r3
 8004bea:	2bff      	cmp	r3, #255	; 0xff
 8004bec:	4b2f      	ldr	r3, [pc, #188]	; (8004cac <HAL_I2C_Master_Transmit+0x128>)
 8004bee:	d926      	bls.n	8004c3e <HAL_I2C_Master_Transmit+0xba>
 8004bf0:	22ff      	movs	r2, #255	; 0xff
 8004bf2:	9300      	str	r3, [sp, #0]
 8004bf4:	8522      	strh	r2, [r4, #40]	; 0x28
 8004bf6:	f04f 7380 	mov.w	r3, #16777216	; 0x1000000
 8004bfa:	4631      	mov	r1, r6
 8004bfc:	4620      	mov	r0, r4
 8004bfe:	f7ff fe09 	bl	8004814 <I2C_TransferConfig>
 8004c02:	8d63      	ldrh	r3, [r4, #42]	; 0x2a
 8004c04:	462a      	mov	r2, r5
 8004c06:	4639      	mov	r1, r7
 8004c08:	4620      	mov	r0, r4
 8004c0a:	b29b      	uxth	r3, r3
 8004c0c:	b9fb      	cbnz	r3, 8004c4e <HAL_I2C_Master_Transmit+0xca>
 8004c0e:	f7ff fef5 	bl	80049fc <I2C_WaitOnSTOPFlagUntilTimeout>
 8004c12:	2800      	cmp	r0, #0
 8004c14:	d1d7      	bne.n	8004bc6 <HAL_I2C_Master_Transmit+0x42>
 8004c16:	6823      	ldr	r3, [r4, #0]
 8004c18:	2120      	movs	r1, #32
 8004c1a:	61d9      	str	r1, [r3, #28]
 8004c1c:	685a      	ldr	r2, [r3, #4]
 8004c1e:	f022 72ff 	bic.w	r2, r2, #33423360	; 0x1fe0000
 8004c22:	f422 328b 	bic.w	r2, r2, #71168	; 0x11600
 8004c26:	f422 72ff 	bic.w	r2, r2, #510	; 0x1fe
 8004c2a:	f022 0201 	bic.w	r2, r2, #1
 8004c2e:	605a      	str	r2, [r3, #4]
 8004c30:	f884 1041 	strb.w	r1, [r4, #65]	; 0x41
 8004c34:	f884 0040 	strb.w	r0, [r4, #64]	; 0x40
 8004c38:	f884 0042 	strb.w	r0, [r4, #66]	; 0x42
 8004c3c:	e7c4      	b.n	8004bc8 <HAL_I2C_Master_Transmit+0x44>
 8004c3e:	8d62      	ldrh	r2, [r4, #42]	; 0x2a
 8004c40:	9300      	str	r3, [sp, #0]
 8004c42:	b292      	uxth	r2, r2
 8004c44:	8522      	strh	r2, [r4, #40]	; 0x28
 8004c46:	f04f 7300 	mov.w	r3, #33554432	; 0x2000000
 8004c4a:	b2d2      	uxtb	r2, r2
 8004c4c:	e7d5      	b.n	8004bfa <HAL_I2C_Master_Transmit+0x76>
 8004c4e:	f7ff fe77 	bl	8004940 <I2C_WaitOnTXISFlagUntilTimeout>
 8004c52:	2800      	cmp	r0, #0
 8004c54:	d1b7      	bne.n	8004bc6 <HAL_I2C_Master_Transmit+0x42>
 8004c56:	6a63      	ldr	r3, [r4, #36]	; 0x24
 8004c58:	6822      	ldr	r2, [r4, #0]
 8004c5a:	f813 1b01 	ldrb.w	r1, [r3], #1
 8004c5e:	6291      	str	r1, [r2, #40]	; 0x28
 8004c60:	6263      	str	r3, [r4, #36]	; 0x24
 8004c62:	8d63      	ldrh	r3, [r4, #42]	; 0x2a
 8004c64:	8d22      	ldrh	r2, [r4, #40]	; 0x28
 8004c66:	3b01      	subs	r3, #1
 8004c68:	3a01      	subs	r2, #1
 8004c6a:	b29b      	uxth	r3, r3
 8004c6c:	b292      	uxth	r2, r2
 8004c6e:	8563      	strh	r3, [r4, #42]	; 0x2a
 8004c70:	8d63      	ldrh	r3, [r4, #42]	; 0x2a
 8004c72:	8522      	strh	r2, [r4, #40]	; 0x28
 8004c74:	b29b      	uxth	r3, r3
 8004c76:	2b00      	cmp	r3, #0
 8004c78:	d0c3      	beq.n	8004c02 <HAL_I2C_Master_Transmit+0x7e>
 8004c7a:	2a00      	cmp	r2, #0
 8004c7c:	d1c1      	bne.n	8004c02 <HAL_I2C_Master_Transmit+0x7e>
 8004c7e:	463b      	mov	r3, r7
 8004c80:	2180      	movs	r1, #128	; 0x80
 8004c82:	4620      	mov	r0, r4
 8004c84:	9500      	str	r5, [sp, #0]
 8004c86:	f7ff fe86 	bl	8004996 <I2C_WaitOnFlagUntilTimeout>
 8004c8a:	2800      	cmp	r0, #0
 8004c8c:	d19b      	bne.n	8004bc6 <HAL_I2C_Master_Transmit+0x42>
 8004c8e:	8d63      	ldrh	r3, [r4, #42]	; 0x2a
 8004c90:	b29b      	uxth	r3, r3
 8004c92:	2bff      	cmp	r3, #255	; 0xff
 8004c94:	d903      	bls.n	8004c9e <HAL_I2C_Master_Transmit+0x11a>
 8004c96:	22ff      	movs	r2, #255	; 0xff
 8004c98:	9000      	str	r0, [sp, #0]
 8004c9a:	8522      	strh	r2, [r4, #40]	; 0x28
 8004c9c:	e7ab      	b.n	8004bf6 <HAL_I2C_Master_Transmit+0x72>
 8004c9e:	8d62      	ldrh	r2, [r4, #42]	; 0x2a
 8004ca0:	9000      	str	r0, [sp, #0]
 8004ca2:	b292      	uxth	r2, r2
 8004ca4:	8522      	strh	r2, [r4, #40]	; 0x28
 8004ca6:	e7ce      	b.n	8004c46 <HAL_I2C_Master_Transmit+0xc2>
 8004ca8:	2002      	movs	r0, #2
 8004caa:	e78d      	b.n	8004bc8 <HAL_I2C_Master_Transmit+0x44>
 8004cac:	80002000 	.word	0x80002000

08004cb0 <HAL_I2C_Master_Receive>:
 8004cb0:	e92d 47f3 	stmdb	sp!, {r0, r1, r4, r5, r6, r7, r8, r9, sl, lr}
 8004cb4:	4698      	mov	r8, r3
 8004cb6:	f890 3041 	ldrb.w	r3, [r0, #65]	; 0x41
 8004cba:	4604      	mov	r4, r0
 8004cbc:	460e      	mov	r6, r1
 8004cbe:	2b20      	cmp	r3, #32
 8004cc0:	4691      	mov	r9, r2
 8004cc2:	9f0a      	ldr	r7, [sp, #40]	; 0x28
 8004cc4:	f040 8087 	bne.w	8004dd6 <HAL_I2C_Master_Receive+0x126>
 8004cc8:	f890 3040 	ldrb.w	r3, [r0, #64]	; 0x40
 8004ccc:	2b01      	cmp	r3, #1
 8004cce:	f000 8082 	beq.w	8004dd6 <HAL_I2C_Master_Receive+0x126>
 8004cd2:	f04f 0a01 	mov.w	sl, #1
 8004cd6:	f880 a040 	strb.w	sl, [r0, #64]	; 0x40
 8004cda:	f7fe f9f9 	bl	80030d0 <HAL_GetTick>
 8004cde:	2319      	movs	r3, #25
 8004ce0:	4605      	mov	r5, r0
 8004ce2:	9000      	str	r0, [sp, #0]
 8004ce4:	4652      	mov	r2, sl
 8004ce6:	f44f 4100 	mov.w	r1, #32768	; 0x8000
 8004cea:	4620      	mov	r0, r4
 8004cec:	f7ff fe53 	bl	8004996 <I2C_WaitOnFlagUntilTimeout>
 8004cf0:	b118      	cbz	r0, 8004cfa <HAL_I2C_Master_Receive+0x4a>
 8004cf2:	2001      	movs	r0, #1
 8004cf4:	b002      	add	sp, #8
 8004cf6:	e8bd 87f0 	ldmia.w	sp!, {r4, r5, r6, r7, r8, r9, sl, pc}
 8004cfa:	2322      	movs	r3, #34	; 0x22
 8004cfc:	f8c4 9024 	str.w	r9, [r4, #36]	; 0x24
 8004d00:	6360      	str	r0, [r4, #52]	; 0x34
 8004d02:	f884 3041 	strb.w	r3, [r4, #65]	; 0x41
 8004d06:	2310      	movs	r3, #16
 8004d08:	f884 3042 	strb.w	r3, [r4, #66]	; 0x42
 8004d0c:	6460      	str	r0, [r4, #68]	; 0x44
 8004d0e:	f8a4 802a 	strh.w	r8, [r4, #42]	; 0x2a
 8004d12:	8d63      	ldrh	r3, [r4, #42]	; 0x2a
 8004d14:	b29b      	uxth	r3, r3
 8004d16:	2bff      	cmp	r3, #255	; 0xff
 8004d18:	4b30      	ldr	r3, [pc, #192]	; (8004ddc <HAL_I2C_Master_Receive+0x12c>)
 8004d1a:	d926      	bls.n	8004d6a <HAL_I2C_Master_Receive+0xba>
 8004d1c:	22ff      	movs	r2, #255	; 0xff
 8004d1e:	9300      	str	r3, [sp, #0]
 8004d20:	8522      	strh	r2, [r4, #40]	; 0x28
 8004d22:	f04f 7380 	mov.w	r3, #16777216	; 0x1000000
 8004d26:	4631      	mov	r1, r6
 8004d28:	4620      	mov	r0, r4
 8004d2a:	f7ff fd73 	bl	8004814 <I2C_TransferConfig>
 8004d2e:	8d63      	ldrh	r3, [r4, #42]	; 0x2a
 8004d30:	462a      	mov	r2, r5
 8004d32:	4639      	mov	r1, r7
 8004d34:	4620      	mov	r0, r4
 8004d36:	b29b      	uxth	r3, r3
 8004d38:	b9fb      	cbnz	r3, 8004d7a <HAL_I2C_Master_Receive+0xca>
 8004d3a:	f7ff fe5f 	bl	80049fc <I2C_WaitOnSTOPFlagUntilTimeout>
 8004d3e:	2800      	cmp	r0, #0
 8004d40:	d1d7      	bne.n	8004cf2 <HAL_I2C_Master_Receive+0x42>
 8004d42:	6823      	ldr	r3, [r4, #0]
 8004d44:	2120      	movs	r1, #32
 8004d46:	61d9      	str	r1, [r3, #28]
 8004d48:	685a      	ldr	r2, [r3, #4]
 8004d4a:	f022 72ff 	bic.w	r2, r2, #33423360	; 0x1fe0000
 8004d4e:	f422 328b 	bic.w	r2, r2, #71168	; 0x11600
 8004d52:	f422 72ff 	bic.w	r2, r2, #510	; 0x1fe
 8004d56:	f022 0201 	bic.w	r2, r2, #1
 8004d5a:	605a      	str	r2, [r3, #4]
 8004d5c:	f884 1041 	strb.w	r1, [r4, #65]	; 0x41
 8004d60:	f884 0040 	strb.w	r0, [r4, #64]	; 0x40
 8004d64:	f884 0042 	strb.w	r0, [r4, #66]	; 0x42
 8004d68:	e7c4      	b.n	8004cf4 <HAL_I2C_Master_Receive+0x44>
 8004d6a:	8d62      	ldrh	r2, [r4, #42]	; 0x2a
 8004d6c:	9300      	str	r3, [sp, #0]
 8004d6e:	b292      	uxth	r2, r2
 8004d70:	8522      	strh	r2, [r4, #40]	; 0x28
 8004d72:	f04f 7300 	mov.w	r3, #33554432	; 0x2000000
 8004d76:	b2d2      	uxtb	r2, r2
 8004d78:	e7d5      	b.n	8004d26 <HAL_I2C_Master_Receive+0x76>
 8004d7a:	f7ff fe68 	bl	8004a4e <I2C_WaitOnRXNEFlagUntilTimeout>
 8004d7e:	2800      	cmp	r0, #0
 8004d80:	d1b7      	bne.n	8004cf2 <HAL_I2C_Master_Receive+0x42>
 8004d82:	6823      	ldr	r3, [r4, #0]
 8004d84:	6a5a      	ldr	r2, [r3, #36]	; 0x24
 8004d86:	6a63      	ldr	r3, [r4, #36]	; 0x24
 8004d88:	701a      	strb	r2, [r3, #0]
 8004d8a:	6a63      	ldr	r3, [r4, #36]	; 0x24
 8004d8c:	8d22      	ldrh	r2, [r4, #40]	; 0x28
 8004d8e:	3301      	adds	r3, #1
 8004d90:	3a01      	subs	r2, #1
 8004d92:	6263      	str	r3, [r4, #36]	; 0x24
 8004d94:	8d63      	ldrh	r3, [r4, #42]	; 0x2a
 8004d96:	b292      	uxth	r2, r2
 8004d98:	3b01      	subs	r3, #1
 8004d9a:	8522      	strh	r2, [r4, #40]	; 0x28
 8004d9c:	b29b      	uxth	r3, r3
 8004d9e:	8563      	strh	r3, [r4, #42]	; 0x2a
 8004da0:	8d63      	ldrh	r3, [r4, #42]	; 0x2a
 8004da2:	b29b      	uxth	r3, r3
 8004da4:	2b00      	cmp	r3, #0
 8004da6:	d0c2      	beq.n	8004d2e <HAL_I2C_Master_Receive+0x7e>
 8004da8:	2a00      	cmp	r2, #0
 8004daa:	d1c0      	bne.n	8004d2e <HAL_I2C_Master_Receive+0x7e>
 8004dac:	463b      	mov	r3, r7
 8004dae:	2180      	movs	r1, #128	; 0x80
 8004db0:	4620      	mov	r0, r4
 8004db2:	9500      	str	r5, [sp, #0]
 8004db4:	f7ff fdef 	bl	8004996 <I2C_WaitOnFlagUntilTimeout>
 8004db8:	2800      	cmp	r0, #0
 8004dba:	d19a      	bne.n	8004cf2 <HAL_I2C_Master_Receive+0x42>
 8004dbc:	8d63      	ldrh	r3, [r4, #42]	; 0x2a
 8004dbe:	b29b      	uxth	r3, r3
 8004dc0:	2bff      	cmp	r3, #255	; 0xff
 8004dc2:	d903      	bls.n	8004dcc <HAL_I2C_Master_Receive+0x11c>
 8004dc4:	22ff      	movs	r2, #255	; 0xff
 8004dc6:	9000      	str	r0, [sp, #0]
 8004dc8:	8522      	strh	r2, [r4, #40]	; 0x28
 8004dca:	e7aa      	b.n	8004d22 <HAL_I2C_Master_Receive+0x72>
 8004dcc:	8d62      	ldrh	r2, [r4, #42]	; 0x2a
 8004dce:	9000      	str	r0, [sp, #0]
 8004dd0:	b292      	uxth	r2, r2
 8004dd2:	8522      	strh	r2, [r4, #40]	; 0x28
 8004dd4:	e7cd      	b.n	8004d72 <HAL_I2C_Master_Receive+0xc2>
 8004dd6:	2002      	movs	r0, #2
 8004dd8:	e78c      	b.n	8004cf4 <HAL_I2C_Master_Receive+0x44>
 8004dda:	bf00      	nop
 8004ddc:	80002400 	.word	0x80002400

08004de0 <HAL_I2C_Mem_Write>:
 8004de0:	e92d 4ff7 	stmdb	sp!, {r0, r1, r2, r4, r5, r6, r7, r8, r9, sl, fp, lr}
 8004de4:	4699      	mov	r9, r3
 8004de6:	f890 3041 	ldrb.w	r3, [r0, #65]	; 0x41
 8004dea:	4604      	mov	r4, r0
 8004dec:	460f      	mov	r7, r1
 8004dee:	2b20      	cmp	r3, #32
 8004df0:	4616      	mov	r6, r2
 8004df2:	f8bd a034 	ldrh.w	sl, [sp, #52]	; 0x34
 8004df6:	f8dd 8038 	ldr.w	r8, [sp, #56]	; 0x38
 8004dfa:	f040 80c6 	bne.w	8004f8a <HAL_I2C_Mem_Write+0x1aa>
 8004dfe:	9b0c      	ldr	r3, [sp, #48]	; 0x30
 8004e00:	b113      	cbz	r3, 8004e08 <HAL_I2C_Mem_Write+0x28>
 8004e02:	f1ba 0f00 	cmp.w	sl, #0
 8004e06:	d106      	bne.n	8004e16 <HAL_I2C_Mem_Write+0x36>
 8004e08:	f44f 7300 	mov.w	r3, #512	; 0x200
 8004e0c:	6463      	str	r3, [r4, #68]	; 0x44
 8004e0e:	2001      	movs	r0, #1
 8004e10:	b003      	add	sp, #12
 8004e12:	e8bd 8ff0 	ldmia.w	sp!, {r4, r5, r6, r7, r8, r9, sl, fp, pc}
 8004e16:	f890 3040 	ldrb.w	r3, [r0, #64]	; 0x40
 8004e1a:	2b01      	cmp	r3, #1
 8004e1c:	f000 80b5 	beq.w	8004f8a <HAL_I2C_Mem_Write+0x1aa>
 8004e20:	f04f 0b01 	mov.w	fp, #1
 8004e24:	f880 b040 	strb.w	fp, [r0, #64]	; 0x40
 8004e28:	f7fe f952 	bl	80030d0 <HAL_GetTick>
 8004e2c:	2319      	movs	r3, #25
 8004e2e:	4605      	mov	r5, r0
 8004e30:	9000      	str	r0, [sp, #0]
 8004e32:	465a      	mov	r2, fp
 8004e34:	f44f 4100 	mov.w	r1, #32768	; 0x8000
 8004e38:	4620      	mov	r0, r4
 8004e3a:	f7ff fdac 	bl	8004996 <I2C_WaitOnFlagUntilTimeout>
 8004e3e:	2800      	cmp	r0, #0
 8004e40:	d1e5      	bne.n	8004e0e <HAL_I2C_Mem_Write+0x2e>
 8004e42:	2321      	movs	r3, #33	; 0x21
 8004e44:	fa5f f289 	uxtb.w	r2, r9
 8004e48:	4639      	mov	r1, r7
 8004e4a:	6360      	str	r0, [r4, #52]	; 0x34
 8004e4c:	f884 3041 	strb.w	r3, [r4, #65]	; 0x41
 8004e50:	2340      	movs	r3, #64	; 0x40
 8004e52:	f884 3042 	strb.w	r3, [r4, #66]	; 0x42
 8004e56:	9b0c      	ldr	r3, [sp, #48]	; 0x30
 8004e58:	6460      	str	r0, [r4, #68]	; 0x44
 8004e5a:	4620      	mov	r0, r4
 8004e5c:	6263      	str	r3, [r4, #36]	; 0x24
 8004e5e:	4b4c      	ldr	r3, [pc, #304]	; (8004f90 <HAL_I2C_Mem_Write+0x1b0>)
 8004e60:	f8a4 a02a 	strh.w	sl, [r4, #42]	; 0x2a
 8004e64:	9300      	str	r3, [sp, #0]
 8004e66:	f04f 7380 	mov.w	r3, #16777216	; 0x1000000
 8004e6a:	f7ff fcd3 	bl	8004814 <I2C_TransferConfig>
 8004e6e:	462a      	mov	r2, r5
 8004e70:	4641      	mov	r1, r8
 8004e72:	4620      	mov	r0, r4
 8004e74:	f7ff fd64 	bl	8004940 <I2C_WaitOnTXISFlagUntilTimeout>
 8004e78:	bb18      	cbnz	r0, 8004ec2 <HAL_I2C_Mem_Write+0xe2>
 8004e7a:	f1b9 0f01 	cmp.w	r9, #1
 8004e7e:	6823      	ldr	r3, [r4, #0]
 8004e80:	d115      	bne.n	8004eae <HAL_I2C_Mem_Write+0xce>
 8004e82:	b2f6      	uxtb	r6, r6
 8004e84:	2200      	movs	r2, #0
 8004e86:	2180      	movs	r1, #128	; 0x80
 8004e88:	4620      	mov	r0, r4
 8004e8a:	629e      	str	r6, [r3, #40]	; 0x28
 8004e8c:	4643      	mov	r3, r8
 8004e8e:	9500      	str	r5, [sp, #0]
 8004e90:	f7ff fd81 	bl	8004996 <I2C_WaitOnFlagUntilTimeout>
 8004e94:	b9a8      	cbnz	r0, 8004ec2 <HAL_I2C_Mem_Write+0xe2>
 8004e96:	8d63      	ldrh	r3, [r4, #42]	; 0x2a
 8004e98:	b29b      	uxth	r3, r3
 8004e9a:	2bff      	cmp	r3, #255	; 0xff
 8004e9c:	d815      	bhi.n	8004eca <HAL_I2C_Mem_Write+0xea>
 8004e9e:	8d62      	ldrh	r2, [r4, #42]	; 0x2a
 8004ea0:	f04f 7300 	mov.w	r3, #33554432	; 0x2000000
 8004ea4:	9000      	str	r0, [sp, #0]
 8004ea6:	b292      	uxth	r2, r2
 8004ea8:	8522      	strh	r2, [r4, #40]	; 0x28
 8004eaa:	b2d2      	uxtb	r2, r2
 8004eac:	e012      	b.n	8004ed4 <HAL_I2C_Mem_Write+0xf4>
 8004eae:	0a32      	lsrs	r2, r6, #8
 8004eb0:	4641      	mov	r1, r8
 8004eb2:	4620      	mov	r0, r4
 8004eb4:	629a      	str	r2, [r3, #40]	; 0x28
 8004eb6:	462a      	mov	r2, r5
 8004eb8:	f7ff fd42 	bl	8004940 <I2C_WaitOnTXISFlagUntilTimeout>
 8004ebc:	b908      	cbnz	r0, 8004ec2 <HAL_I2C_Mem_Write+0xe2>
 8004ebe:	6823      	ldr	r3, [r4, #0]
 8004ec0:	e7df      	b.n	8004e82 <HAL_I2C_Mem_Write+0xa2>
 8004ec2:	2300      	movs	r3, #0
 8004ec4:	f884 3040 	strb.w	r3, [r4, #64]	; 0x40
 8004ec8:	e7a1      	b.n	8004e0e <HAL_I2C_Mem_Write+0x2e>
 8004eca:	22ff      	movs	r2, #255	; 0xff
 8004ecc:	f04f 7380 	mov.w	r3, #16777216	; 0x1000000
 8004ed0:	9000      	str	r0, [sp, #0]
 8004ed2:	8522      	strh	r2, [r4, #40]	; 0x28
 8004ed4:	4639      	mov	r1, r7
 8004ed6:	4620      	mov	r0, r4
 8004ed8:	f7ff fc9c 	bl	8004814 <I2C_TransferConfig>
 8004edc:	462a      	mov	r2, r5
 8004ede:	4641      	mov	r1, r8
 8004ee0:	4620      	mov	r0, r4
 8004ee2:	f7ff fd2d 	bl	8004940 <I2C_WaitOnTXISFlagUntilTimeout>
 8004ee6:	2800      	cmp	r0, #0
 8004ee8:	d191      	bne.n	8004e0e <HAL_I2C_Mem_Write+0x2e>
 8004eea:	6a63      	ldr	r3, [r4, #36]	; 0x24
 8004eec:	6822      	ldr	r2, [r4, #0]
 8004eee:	f813 1b01 	ldrb.w	r1, [r3], #1
 8004ef2:	6291      	str	r1, [r2, #40]	; 0x28
 8004ef4:	6263      	str	r3, [r4, #36]	; 0x24
 8004ef6:	8d63      	ldrh	r3, [r4, #42]	; 0x2a
 8004ef8:	8d22      	ldrh	r2, [r4, #40]	; 0x28
 8004efa:	3b01      	subs	r3, #1
 8004efc:	3a01      	subs	r2, #1
 8004efe:	b29b      	uxth	r3, r3
 8004f00:	b292      	uxth	r2, r2
 8004f02:	8563      	strh	r3, [r4, #42]	; 0x2a
 8004f04:	8d63      	ldrh	r3, [r4, #42]	; 0x2a
 8004f06:	8522      	strh	r2, [r4, #40]	; 0x28
 8004f08:	b29b      	uxth	r3, r3
 8004f0a:	b1b3      	cbz	r3, 8004f3a <HAL_I2C_Mem_Write+0x15a>
 8004f0c:	b9aa      	cbnz	r2, 8004f3a <HAL_I2C_Mem_Write+0x15a>
 8004f0e:	4643      	mov	r3, r8
 8004f10:	2180      	movs	r1, #128	; 0x80
 8004f12:	4620      	mov	r0, r4
 8004f14:	9500      	str	r5, [sp, #0]
 8004f16:	f7ff fd3e 	bl	8004996 <I2C_WaitOnFlagUntilTimeout>
 8004f1a:	2800      	cmp	r0, #0
 8004f1c:	f47f af77 	bne.w	8004e0e <HAL_I2C_Mem_Write+0x2e>
 8004f20:	8d63      	ldrh	r3, [r4, #42]	; 0x2a
 8004f22:	b29b      	uxth	r3, r3
 8004f24:	2bff      	cmp	r3, #255	; 0xff
 8004f26:	d928      	bls.n	8004f7a <HAL_I2C_Mem_Write+0x19a>
 8004f28:	22ff      	movs	r2, #255	; 0xff
 8004f2a:	f04f 7380 	mov.w	r3, #16777216	; 0x1000000
 8004f2e:	9000      	str	r0, [sp, #0]
 8004f30:	8522      	strh	r2, [r4, #40]	; 0x28
 8004f32:	4639      	mov	r1, r7
 8004f34:	4620      	mov	r0, r4
 8004f36:	f7ff fc6d 	bl	8004814 <I2C_TransferConfig>
 8004f3a:	8d63      	ldrh	r3, [r4, #42]	; 0x2a
 8004f3c:	b29b      	uxth	r3, r3
 8004f3e:	2b00      	cmp	r3, #0
 8004f40:	d1cc      	bne.n	8004edc <HAL_I2C_Mem_Write+0xfc>
 8004f42:	462a      	mov	r2, r5
 8004f44:	4641      	mov	r1, r8
 8004f46:	4620      	mov	r0, r4
 8004f48:	f7ff fd58 	bl	80049fc <I2C_WaitOnSTOPFlagUntilTimeout>
 8004f4c:	2800      	cmp	r0, #0
 8004f4e:	f47f af5e 	bne.w	8004e0e <HAL_I2C_Mem_Write+0x2e>
 8004f52:	6823      	ldr	r3, [r4, #0]
 8004f54:	2120      	movs	r1, #32
 8004f56:	61d9      	str	r1, [r3, #28]
 8004f58:	685a      	ldr	r2, [r3, #4]
 8004f5a:	f022 72ff 	bic.w	r2, r2, #33423360	; 0x1fe0000
 8004f5e:	f422 328b 	bic.w	r2, r2, #71168	; 0x11600
 8004f62:	f422 72ff 	bic.w	r2, r2, #510	; 0x1fe
 8004f66:	f022 0201 	bic.w	r2, r2, #1
 8004f6a:	605a      	str	r2, [r3, #4]
 8004f6c:	f884 1041 	strb.w	r1, [r4, #65]	; 0x41
 8004f70:	f884 0040 	strb.w	r0, [r4, #64]	; 0x40
 8004f74:	f884 0042 	strb.w	r0, [r4, #66]	; 0x42
 8004f78:	e74a      	b.n	8004e10 <HAL_I2C_Mem_Write+0x30>
 8004f7a:	8d62      	ldrh	r2, [r4, #42]	; 0x2a
 8004f7c:	f04f 7300 	mov.w	r3, #33554432	; 0x2000000
 8004f80:	9000      	str	r0, [sp, #0]
 8004f82:	b292      	uxth	r2, r2
 8004f84:	8522      	strh	r2, [r4, #40]	; 0x28
 8004f86:	b2d2      	uxtb	r2, r2
 8004f88:	e7d3      	b.n	8004f32 <HAL_I2C_Mem_Write+0x152>
 8004f8a:	2002      	movs	r0, #2
 8004f8c:	e740      	b.n	8004e10 <HAL_I2C_Mem_Write+0x30>
 8004f8e:	bf00      	nop
 8004f90:	80002000 	.word	0x80002000

08004f94 <HAL_I2C_Mem_Read>:
 8004f94:	e92d 4ff7 	stmdb	sp!, {r0, r1, r2, r4, r5, r6, r7, r8, r9, sl, fp, lr}
 8004f98:	4699      	mov	r9, r3
 8004f9a:	f890 3041 	ldrb.w	r3, [r0, #65]	; 0x41
 8004f9e:	4604      	mov	r4, r0
 8004fa0:	460f      	mov	r7, r1
 8004fa2:	2b20      	cmp	r3, #32
 8004fa4:	4616      	mov	r6, r2
 8004fa6:	f8bd a034 	ldrh.w	sl, [sp, #52]	; 0x34
 8004faa:	f8dd 8038 	ldr.w	r8, [sp, #56]	; 0x38
 8004fae:	f040 80c9 	bne.w	8005144 <HAL_I2C_Mem_Read+0x1b0>
 8004fb2:	9b0c      	ldr	r3, [sp, #48]	; 0x30
 8004fb4:	b113      	cbz	r3, 8004fbc <HAL_I2C_Mem_Read+0x28>
 8004fb6:	f1ba 0f00 	cmp.w	sl, #0
 8004fba:	d106      	bne.n	8004fca <HAL_I2C_Mem_Read+0x36>
 8004fbc:	f44f 7300 	mov.w	r3, #512	; 0x200
 8004fc0:	6463      	str	r3, [r4, #68]	; 0x44
 8004fc2:	2001      	movs	r0, #1
 8004fc4:	b003      	add	sp, #12
 8004fc6:	e8bd 8ff0 	ldmia.w	sp!, {r4, r5, r6, r7, r8, r9, sl, fp, pc}
 8004fca:	f890 3040 	ldrb.w	r3, [r0, #64]	; 0x40
 8004fce:	2b01      	cmp	r3, #1
 8004fd0:	f000 80b8 	beq.w	8005144 <HAL_I2C_Mem_Read+0x1b0>
 8004fd4:	f04f 0b01 	mov.w	fp, #1
 8004fd8:	f880 b040 	strb.w	fp, [r0, #64]	; 0x40
 8004fdc:	f7fe f878 	bl	80030d0 <HAL_GetTick>
 8004fe0:	2319      	movs	r3, #25
 8004fe2:	9000      	str	r0, [sp, #0]
 8004fe4:	4605      	mov	r5, r0
 8004fe6:	465a      	mov	r2, fp
 8004fe8:	f44f 4100 	mov.w	r1, #32768	; 0x8000
 8004fec:	4620      	mov	r0, r4
 8004fee:	f7ff fcd2 	bl	8004996 <I2C_WaitOnFlagUntilTimeout>
 8004ff2:	4603      	mov	r3, r0
 8004ff4:	2800      	cmp	r0, #0
 8004ff6:	d1e4      	bne.n	8004fc2 <HAL_I2C_Mem_Read+0x2e>
 8004ff8:	2222      	movs	r2, #34	; 0x22
 8004ffa:	4639      	mov	r1, r7
 8004ffc:	6360      	str	r0, [r4, #52]	; 0x34
 8004ffe:	f884 2041 	strb.w	r2, [r4, #65]	; 0x41
 8005002:	2240      	movs	r2, #64	; 0x40
 8005004:	f884 2042 	strb.w	r2, [r4, #66]	; 0x42
 8005008:	9a0c      	ldr	r2, [sp, #48]	; 0x30
 800500a:	6460      	str	r0, [r4, #68]	; 0x44
 800500c:	4620      	mov	r0, r4
 800500e:	6262      	str	r2, [r4, #36]	; 0x24
 8005010:	4a4d      	ldr	r2, [pc, #308]	; (8005148 <HAL_I2C_Mem_Read+0x1b4>)
 8005012:	f8a4 a02a 	strh.w	sl, [r4, #42]	; 0x2a
 8005016:	9200      	str	r2, [sp, #0]
 8005018:	fa5f f289 	uxtb.w	r2, r9
 800501c:	f7ff fbfa 	bl	8004814 <I2C_TransferConfig>
 8005020:	462a      	mov	r2, r5
 8005022:	4641      	mov	r1, r8
 8005024:	4620      	mov	r0, r4
 8005026:	f7ff fc8b 	bl	8004940 <I2C_WaitOnTXISFlagUntilTimeout>
 800502a:	bb20      	cbnz	r0, 8005076 <HAL_I2C_Mem_Read+0xe2>
 800502c:	f1b9 0f01 	cmp.w	r9, #1
 8005030:	6823      	ldr	r3, [r4, #0]
 8005032:	d116      	bne.n	8005062 <HAL_I2C_Mem_Read+0xce>
 8005034:	b2f6      	uxtb	r6, r6
 8005036:	2200      	movs	r2, #0
 8005038:	2140      	movs	r1, #64	; 0x40
 800503a:	4620      	mov	r0, r4
 800503c:	629e      	str	r6, [r3, #40]	; 0x28
 800503e:	4643      	mov	r3, r8
 8005040:	9500      	str	r5, [sp, #0]
 8005042:	f7ff fca8 	bl	8004996 <I2C_WaitOnFlagUntilTimeout>
 8005046:	b9b0      	cbnz	r0, 8005076 <HAL_I2C_Mem_Read+0xe2>
 8005048:	8d63      	ldrh	r3, [r4, #42]	; 0x2a
 800504a:	b29b      	uxth	r3, r3
 800504c:	2bff      	cmp	r3, #255	; 0xff
 800504e:	4b3f      	ldr	r3, [pc, #252]	; (800514c <HAL_I2C_Mem_Read+0x1b8>)
 8005050:	d815      	bhi.n	800507e <HAL_I2C_Mem_Read+0xea>
 8005052:	8d62      	ldrh	r2, [r4, #42]	; 0x2a
 8005054:	9300      	str	r3, [sp, #0]
 8005056:	f04f 7300 	mov.w	r3, #33554432	; 0x2000000
 800505a:	b292      	uxth	r2, r2
 800505c:	8522      	strh	r2, [r4, #40]	; 0x28
 800505e:	b2d2      	uxtb	r2, r2
 8005060:	e012      	b.n	8005088 <HAL_I2C_Mem_Read+0xf4>
 8005062:	0a32      	lsrs	r2, r6, #8
 8005064:	4641      	mov	r1, r8
 8005066:	4620      	mov	r0, r4
 8005068:	629a      	str	r2, [r3, #40]	; 0x28
 800506a:	462a      	mov	r2, r5
 800506c:	f7ff fc68 	bl	8004940 <I2C_WaitOnTXISFlagUntilTimeout>
 8005070:	b908      	cbnz	r0, 8005076 <HAL_I2C_Mem_Read+0xe2>
 8005072:	6823      	ldr	r3, [r4, #0]
 8005074:	e7de      	b.n	8005034 <HAL_I2C_Mem_Read+0xa0>
 8005076:	2300      	movs	r3, #0
 8005078:	f884 3040 	strb.w	r3, [r4, #64]	; 0x40
 800507c:	e7a1      	b.n	8004fc2 <HAL_I2C_Mem_Read+0x2e>
 800507e:	22ff      	movs	r2, #255	; 0xff
 8005080:	9300      	str	r3, [sp, #0]
 8005082:	f04f 7380 	mov.w	r3, #16777216	; 0x1000000
 8005086:	8522      	strh	r2, [r4, #40]	; 0x28
 8005088:	4639      	mov	r1, r7
 800508a:	4620      	mov	r0, r4
 800508c:	f7ff fbc2 	bl	8004814 <I2C_TransferConfig>
 8005090:	4643      	mov	r3, r8
 8005092:	2200      	movs	r2, #0
 8005094:	2104      	movs	r1, #4
 8005096:	4620      	mov	r0, r4
 8005098:	9500      	str	r5, [sp, #0]
 800509a:	f7ff fc7c 	bl	8004996 <I2C_WaitOnFlagUntilTimeout>
 800509e:	2800      	cmp	r0, #0
 80050a0:	d18f      	bne.n	8004fc2 <HAL_I2C_Mem_Read+0x2e>
 80050a2:	6823      	ldr	r3, [r4, #0]
 80050a4:	6a5a      	ldr	r2, [r3, #36]	; 0x24
 80050a6:	6a63      	ldr	r3, [r4, #36]	; 0x24
 80050a8:	701a      	strb	r2, [r3, #0]
 80050aa:	6a63      	ldr	r3, [r4, #36]	; 0x24
 80050ac:	8d22      	ldrh	r2, [r4, #40]	; 0x28
 80050ae:	3301      	adds	r3, #1
 80050b0:	3a01      	subs	r2, #1
 80050b2:	6263      	str	r3, [r4, #36]	; 0x24
 80050b4:	8d63      	ldrh	r3, [r4, #42]	; 0x2a
 80050b6:	b292      	uxth	r2, r2
 80050b8:	3b01      	subs	r3, #1
 80050ba:	8522      	strh	r2, [r4, #40]	; 0x28
 80050bc:	b29b      	uxth	r3, r3
 80050be:	8563      	strh	r3, [r4, #42]	; 0x2a
 80050c0:	8d63      	ldrh	r3, [r4, #42]	; 0x2a
 80050c2:	b29b      	uxth	r3, r3
 80050c4:	b1b3      	cbz	r3, 80050f4 <HAL_I2C_Mem_Read+0x160>
 80050c6:	b9aa      	cbnz	r2, 80050f4 <HAL_I2C_Mem_Read+0x160>
 80050c8:	4643      	mov	r3, r8
 80050ca:	2180      	movs	r1, #128	; 0x80
 80050cc:	4620      	mov	r0, r4
 80050ce:	9500      	str	r5, [sp, #0]
 80050d0:	f7ff fc61 	bl	8004996 <I2C_WaitOnFlagUntilTimeout>
 80050d4:	2800      	cmp	r0, #0
 80050d6:	f47f af74 	bne.w	8004fc2 <HAL_I2C_Mem_Read+0x2e>
 80050da:	8d63      	ldrh	r3, [r4, #42]	; 0x2a
 80050dc:	b29b      	uxth	r3, r3
 80050de:	2bff      	cmp	r3, #255	; 0xff
 80050e0:	d928      	bls.n	8005134 <HAL_I2C_Mem_Read+0x1a0>
 80050e2:	22ff      	movs	r2, #255	; 0xff
 80050e4:	f04f 7380 	mov.w	r3, #16777216	; 0x1000000
 80050e8:	9000      	str	r0, [sp, #0]
 80050ea:	8522      	strh	r2, [r4, #40]	; 0x28
 80050ec:	4639      	mov	r1, r7
 80050ee:	4620      	mov	r0, r4
 80050f0:	f7ff fb90 	bl	8004814 <I2C_TransferConfig>
 80050f4:	8d63      	ldrh	r3, [r4, #42]	; 0x2a
 80050f6:	b29b      	uxth	r3, r3
 80050f8:	2b00      	cmp	r3, #0
 80050fa:	d1c9      	bne.n	8005090 <HAL_I2C_Mem_Read+0xfc>
 80050fc:	462a      	mov	r2, r5
 80050fe:	4641      	mov	r1, r8
 8005100:	4620      	mov	r0, r4
 8005102:	f7ff fc7b 	bl	80049fc <I2C_WaitOnSTOPFlagUntilTimeout>
 8005106:	2800      	cmp	r0, #0
 8005108:	f47f af5b 	bne.w	8004fc2 <HAL_I2C_Mem_Read+0x2e>
 800510c:	6823      	ldr	r3, [r4, #0]
 800510e:	2120      	movs	r1, #32
 8005110:	61d9      	str	r1, [r3, #28]
 8005112:	685a      	ldr	r2, [r3, #4]
 8005114:	f022 72ff 	bic.w	r2, r2, #33423360	; 0x1fe0000
 8005118:	f422 328b 	bic.w	r2, r2, #71168	; 0x11600
 800511c:	f422 72ff 	bic.w	r2, r2, #510	; 0x1fe
 8005120:	f022 0201 	bic.w	r2, r2, #1
 8005124:	605a      	str	r2, [r3, #4]
 8005126:	f884 1041 	strb.w	r1, [r4, #65]	; 0x41
 800512a:	f884 0040 	strb.w	r0, [r4, #64]	; 0x40
 800512e:	f884 0042 	strb.w	r0, [r4, #66]	; 0x42
 8005132:	e747      	b.n	8004fc4 <HAL_I2C_Mem_Read+0x30>
 8005134:	8d62      	ldrh	r2, [r4, #42]	; 0x2a
 8005136:	f04f 7300 	mov.w	r3, #33554432	; 0x2000000
 800513a:	9000      	str	r0, [sp, #0]
 800513c:	b292      	uxth	r2, r2
 800513e:	8522      	strh	r2, [r4, #40]	; 0x28
 8005140:	b2d2      	uxtb	r2, r2
 8005142:	e7d3      	b.n	80050ec <HAL_I2C_Mem_Read+0x158>
 8005144:	2002      	movs	r0, #2
 8005146:	e73d      	b.n	8004fc4 <HAL_I2C_Mem_Read+0x30>
 8005148:	80002000 	.word	0x80002000
 800514c:	80002400 	.word	0x80002400

08005150 <HAL_I2CEx_ConfigAnalogFilter>:
 8005150:	b510      	push	{r4, lr}
 8005152:	f890 3041 	ldrb.w	r3, [r0, #65]	; 0x41
 8005156:	2b20      	cmp	r3, #32
 8005158:	b2dc      	uxtb	r4, r3
 800515a:	d11d      	bne.n	8005198 <HAL_I2CEx_ConfigAnalogFilter+0x48>
 800515c:	f890 3040 	ldrb.w	r3, [r0, #64]	; 0x40
 8005160:	2b01      	cmp	r3, #1
 8005162:	d019      	beq.n	8005198 <HAL_I2CEx_ConfigAnalogFilter+0x48>
 8005164:	2324      	movs	r3, #36	; 0x24
 8005166:	f880 3041 	strb.w	r3, [r0, #65]	; 0x41
 800516a:	6803      	ldr	r3, [r0, #0]
 800516c:	681a      	ldr	r2, [r3, #0]
 800516e:	f022 0201 	bic.w	r2, r2, #1
 8005172:	601a      	str	r2, [r3, #0]
 8005174:	681a      	ldr	r2, [r3, #0]
 8005176:	f422 5280 	bic.w	r2, r2, #4096	; 0x1000
 800517a:	601a      	str	r2, [r3, #0]
 800517c:	681a      	ldr	r2, [r3, #0]
 800517e:	4311      	orrs	r1, r2
 8005180:	6019      	str	r1, [r3, #0]
 8005182:	681a      	ldr	r2, [r3, #0]
 8005184:	f042 0201 	orr.w	r2, r2, #1
 8005188:	601a      	str	r2, [r3, #0]
 800518a:	2300      	movs	r3, #0
 800518c:	f880 4041 	strb.w	r4, [r0, #65]	; 0x41
 8005190:	f880 3040 	strb.w	r3, [r0, #64]	; 0x40
 8005194:	4618      	mov	r0, r3
 8005196:	bd10      	pop	{r4, pc}
 8005198:	2002      	movs	r0, #2
 800519a:	e7fc      	b.n	8005196 <HAL_I2CEx_ConfigAnalogFilter+0x46>

0800519c <HAL_I2CEx_ConfigDigitalFilter>:
 800519c:	b510      	push	{r4, lr}
 800519e:	f890 3041 	ldrb.w	r3, [r0, #65]	; 0x41
 80051a2:	2b20      	cmp	r3, #32
 80051a4:	b2dc      	uxtb	r4, r3
 80051a6:	d11c      	bne.n	80051e2 <HAL_I2CEx_ConfigDigitalFilter+0x46>
 80051a8:	f890 3040 	ldrb.w	r3, [r0, #64]	; 0x40
 80051ac:	2b01      	cmp	r3, #1
 80051ae:	d018      	beq.n	80051e2 <HAL_I2CEx_ConfigDigitalFilter+0x46>
 80051b0:	2324      	movs	r3, #36	; 0x24
 80051b2:	f880 3041 	strb.w	r3, [r0, #65]	; 0x41
 80051b6:	6803      	ldr	r3, [r0, #0]
 80051b8:	681a      	ldr	r2, [r3, #0]
 80051ba:	f022 0201 	bic.w	r2, r2, #1
 80051be:	601a      	str	r2, [r3, #0]
 80051c0:	681a      	ldr	r2, [r3, #0]
 80051c2:	f422 6270 	bic.w	r2, r2, #3840	; 0xf00
 80051c6:	ea42 2101 	orr.w	r1, r2, r1, lsl #8
 80051ca:	6019      	str	r1, [r3, #0]
 80051cc:	681a      	ldr	r2, [r3, #0]
 80051ce:	f042 0201 	orr.w	r2, r2, #1
 80051d2:	601a      	str	r2, [r3, #0]
 80051d4:	2300      	movs	r3, #0
 80051d6:	f880 4041 	strb.w	r4, [r0, #65]	; 0x41
 80051da:	f880 3040 	strb.w	r3, [r0, #64]	; 0x40
 80051de:	4618      	mov	r0, r3
 80051e0:	bd10      	pop	{r4, pc}
 80051e2:	2002      	movs	r0, #2
 80051e4:	e7fc      	b.n	80051e0 <HAL_I2CEx_ConfigDigitalFilter+0x44>
	...

080051e8 <HAL_PWREx_ConfigSupply>:
 80051e8:	b538      	push	{r3, r4, r5, lr}
 80051ea:	4c10      	ldr	r4, [pc, #64]	; (800522c <HAL_PWREx_ConfigSupply+0x44>)
 80051ec:	68e3      	ldr	r3, [r4, #12]
 80051ee:	f013 0f04 	tst.w	r3, #4
 80051f2:	68e3      	ldr	r3, [r4, #12]
 80051f4:	d105      	bne.n	8005202 <HAL_PWREx_ConfigSupply+0x1a>
 80051f6:	f003 0307 	and.w	r3, r3, #7
 80051fa:	1a18      	subs	r0, r3, r0
 80051fc:	bf18      	it	ne
 80051fe:	2001      	movne	r0, #1
 8005200:	bd38      	pop	{r3, r4, r5, pc}
 8005202:	f023 0307 	bic.w	r3, r3, #7
 8005206:	4318      	orrs	r0, r3
 8005208:	60e0      	str	r0, [r4, #12]
 800520a:	f7fd ff61 	bl	80030d0 <HAL_GetTick>
 800520e:	4605      	mov	r5, r0
 8005210:	6863      	ldr	r3, [r4, #4]
 8005212:	049b      	lsls	r3, r3, #18
 8005214:	d501      	bpl.n	800521a <HAL_PWREx_ConfigSupply+0x32>
 8005216:	2000      	movs	r0, #0
 8005218:	e7f2      	b.n	8005200 <HAL_PWREx_ConfigSupply+0x18>
 800521a:	f7fd ff59 	bl	80030d0 <HAL_GetTick>
 800521e:	1b40      	subs	r0, r0, r5
 8005220:	f5b0 7f7a 	cmp.w	r0, #1000	; 0x3e8
 8005224:	d9f4      	bls.n	8005210 <HAL_PWREx_ConfigSupply+0x28>
 8005226:	2001      	movs	r0, #1
 8005228:	e7ea      	b.n	8005200 <HAL_PWREx_ConfigSupply+0x18>
 800522a:	bf00      	nop
 800522c:	58024800 	.word	0x58024800

08005230 <HAL_RCC_OscConfig>:
 8005230:	b5f8      	push	{r3, r4, r5, r6, r7, lr}
 8005232:	4604      	mov	r4, r0
 8005234:	b908      	cbnz	r0, 800523a <HAL_RCC_OscConfig+0xa>
 8005236:	2001      	movs	r0, #1
 8005238:	e08c      	b.n	8005354 <HAL_RCC_OscConfig+0x124>
 800523a:	6803      	ldr	r3, [r0, #0]
 800523c:	07d8      	lsls	r0, r3, #31
 800523e:	d45e      	bmi.n	80052fe <HAL_RCC_OscConfig+0xce>
 8005240:	6823      	ldr	r3, [r4, #0]
 8005242:	0799      	lsls	r1, r3, #30
 8005244:	f100 80ac 	bmi.w	80053a0 <HAL_RCC_OscConfig+0x170>
 8005248:	6823      	ldr	r3, [r4, #0]
 800524a:	06da      	lsls	r2, r3, #27
 800524c:	d527      	bpl.n	800529e <HAL_RCC_OscConfig+0x6e>
 800524e:	4a9c      	ldr	r2, [pc, #624]	; (80054c0 <HAL_RCC_OscConfig+0x290>)
 8005250:	6913      	ldr	r3, [r2, #16]
 8005252:	6a91      	ldr	r1, [r2, #40]	; 0x28
 8005254:	f003 0338 	and.w	r3, r3, #56	; 0x38
 8005258:	2b08      	cmp	r3, #8
 800525a:	d007      	beq.n	800526c <HAL_RCC_OscConfig+0x3c>
 800525c:	2b18      	cmp	r3, #24
 800525e:	f040 8103 	bne.w	8005468 <HAL_RCC_OscConfig+0x238>
 8005262:	f001 0303 	and.w	r3, r1, #3
 8005266:	2b01      	cmp	r3, #1
 8005268:	f040 80fe 	bne.w	8005468 <HAL_RCC_OscConfig+0x238>
 800526c:	6813      	ldr	r3, [r2, #0]
 800526e:	05db      	lsls	r3, r3, #23
 8005270:	d502      	bpl.n	8005278 <HAL_RCC_OscConfig+0x48>
 8005272:	69e3      	ldr	r3, [r4, #28]
 8005274:	2b80      	cmp	r3, #128	; 0x80
 8005276:	d1de      	bne.n	8005236 <HAL_RCC_OscConfig+0x6>
 8005278:	f7fd ff42 	bl	8003100 <HAL_GetREVID>
 800527c:	f241 0303 	movw	r3, #4099	; 0x1003
 8005280:	6a21      	ldr	r1, [r4, #32]
 8005282:	4298      	cmp	r0, r3
 8005284:	4b8e      	ldr	r3, [pc, #568]	; (80054c0 <HAL_RCC_OscConfig+0x290>)
 8005286:	f200 80e8 	bhi.w	800545a <HAL_RCC_OscConfig+0x22a>
 800528a:	685a      	ldr	r2, [r3, #4]
 800528c:	2920      	cmp	r1, #32
 800528e:	f022 42f8 	bic.w	r2, r2, #2080374784	; 0x7c000000
 8005292:	bf0c      	ite	eq
 8005294:	f042 4280 	orreq.w	r2, r2, #1073741824	; 0x40000000
 8005298:	ea42 6281 	orrne.w	r2, r2, r1, lsl #26
 800529c:	605a      	str	r2, [r3, #4]
 800529e:	6823      	ldr	r3, [r4, #0]
 80052a0:	0719      	lsls	r1, r3, #28
 80052a2:	f100 8122 	bmi.w	80054ea <HAL_RCC_OscConfig+0x2ba>
 80052a6:	6823      	ldr	r3, [r4, #0]
 80052a8:	069a      	lsls	r2, r3, #26
 80052aa:	f100 8143 	bmi.w	8005534 <HAL_RCC_OscConfig+0x304>
 80052ae:	6823      	ldr	r3, [r4, #0]
 80052b0:	075d      	lsls	r5, r3, #29
 80052b2:	d51e      	bpl.n	80052f2 <HAL_RCC_OscConfig+0xc2>
 80052b4:	4d83      	ldr	r5, [pc, #524]	; (80054c4 <HAL_RCC_OscConfig+0x294>)
 80052b6:	682b      	ldr	r3, [r5, #0]
 80052b8:	f443 7380 	orr.w	r3, r3, #256	; 0x100
 80052bc:	602b      	str	r3, [r5, #0]
 80052be:	f7fd ff07 	bl	80030d0 <HAL_GetTick>
 80052c2:	4606      	mov	r6, r0
 80052c4:	682b      	ldr	r3, [r5, #0]
 80052c6:	05da      	lsls	r2, r3, #23
 80052c8:	f140 8159 	bpl.w	800557e <HAL_RCC_OscConfig+0x34e>
 80052cc:	68a3      	ldr	r3, [r4, #8]
 80052ce:	4d7c      	ldr	r5, [pc, #496]	; (80054c0 <HAL_RCC_OscConfig+0x290>)
 80052d0:	2b01      	cmp	r3, #1
 80052d2:	f040 815b 	bne.w	800558c <HAL_RCC_OscConfig+0x35c>
 80052d6:	6f2b      	ldr	r3, [r5, #112]	; 0x70
 80052d8:	f043 0301 	orr.w	r3, r3, #1
 80052dc:	672b      	str	r3, [r5, #112]	; 0x70
 80052de:	f241 3788 	movw	r7, #5000	; 0x1388
 80052e2:	f7fd fef5 	bl	80030d0 <HAL_GetTick>
 80052e6:	4e76      	ldr	r6, [pc, #472]	; (80054c0 <HAL_RCC_OscConfig+0x290>)
 80052e8:	4605      	mov	r5, r0
 80052ea:	6f33      	ldr	r3, [r6, #112]	; 0x70
 80052ec:	079b      	lsls	r3, r3, #30
 80052ee:	f140 8173 	bpl.w	80055d8 <HAL_RCC_OscConfig+0x3a8>
 80052f2:	6a60      	ldr	r0, [r4, #36]	; 0x24
 80052f4:	2800      	cmp	r0, #0
 80052f6:	f040 8176 	bne.w	80055e6 <HAL_RCC_OscConfig+0x3b6>
 80052fa:	2000      	movs	r0, #0
 80052fc:	e02a      	b.n	8005354 <HAL_RCC_OscConfig+0x124>
 80052fe:	4a70      	ldr	r2, [pc, #448]	; (80054c0 <HAL_RCC_OscConfig+0x290>)
 8005300:	6913      	ldr	r3, [r2, #16]
 8005302:	6a91      	ldr	r1, [r2, #40]	; 0x28
 8005304:	f003 0338 	and.w	r3, r3, #56	; 0x38
 8005308:	2b10      	cmp	r3, #16
 800530a:	d005      	beq.n	8005318 <HAL_RCC_OscConfig+0xe8>
 800530c:	2b18      	cmp	r3, #24
 800530e:	d10a      	bne.n	8005326 <HAL_RCC_OscConfig+0xf6>
 8005310:	f001 0303 	and.w	r3, r1, #3
 8005314:	2b02      	cmp	r3, #2
 8005316:	d106      	bne.n	8005326 <HAL_RCC_OscConfig+0xf6>
 8005318:	6813      	ldr	r3, [r2, #0]
 800531a:	039a      	lsls	r2, r3, #14
 800531c:	d590      	bpl.n	8005240 <HAL_RCC_OscConfig+0x10>
 800531e:	6863      	ldr	r3, [r4, #4]
 8005320:	2b00      	cmp	r3, #0
 8005322:	d18d      	bne.n	8005240 <HAL_RCC_OscConfig+0x10>
 8005324:	e787      	b.n	8005236 <HAL_RCC_OscConfig+0x6>
 8005326:	6863      	ldr	r3, [r4, #4]
 8005328:	4d65      	ldr	r5, [pc, #404]	; (80054c0 <HAL_RCC_OscConfig+0x290>)
 800532a:	f5b3 3f80 	cmp.w	r3, #65536	; 0x10000
 800532e:	d112      	bne.n	8005356 <HAL_RCC_OscConfig+0x126>
 8005330:	682b      	ldr	r3, [r5, #0]
 8005332:	f443 3380 	orr.w	r3, r3, #65536	; 0x10000
 8005336:	602b      	str	r3, [r5, #0]
 8005338:	f7fd feca 	bl	80030d0 <HAL_GetTick>
 800533c:	4e60      	ldr	r6, [pc, #384]	; (80054c0 <HAL_RCC_OscConfig+0x290>)
 800533e:	4605      	mov	r5, r0
 8005340:	6833      	ldr	r3, [r6, #0]
 8005342:	039b      	lsls	r3, r3, #14
 8005344:	f53f af7c 	bmi.w	8005240 <HAL_RCC_OscConfig+0x10>
 8005348:	f7fd fec2 	bl	80030d0 <HAL_GetTick>
 800534c:	1b40      	subs	r0, r0, r5
 800534e:	2864      	cmp	r0, #100	; 0x64
 8005350:	d9f6      	bls.n	8005340 <HAL_RCC_OscConfig+0x110>
 8005352:	2003      	movs	r0, #3
 8005354:	bdf8      	pop	{r3, r4, r5, r6, r7, pc}
 8005356:	b9a3      	cbnz	r3, 8005382 <HAL_RCC_OscConfig+0x152>
 8005358:	682b      	ldr	r3, [r5, #0]
 800535a:	f423 3380 	bic.w	r3, r3, #65536	; 0x10000
 800535e:	602b      	str	r3, [r5, #0]
 8005360:	682b      	ldr	r3, [r5, #0]
 8005362:	f423 2380 	bic.w	r3, r3, #262144	; 0x40000
 8005366:	602b      	str	r3, [r5, #0]
 8005368:	f7fd feb2 	bl	80030d0 <HAL_GetTick>
 800536c:	4606      	mov	r6, r0
 800536e:	682b      	ldr	r3, [r5, #0]
 8005370:	039f      	lsls	r7, r3, #14
 8005372:	f57f af65 	bpl.w	8005240 <HAL_RCC_OscConfig+0x10>
 8005376:	f7fd feab 	bl	80030d0 <HAL_GetTick>
 800537a:	1b80      	subs	r0, r0, r6
 800537c:	2864      	cmp	r0, #100	; 0x64
 800537e:	d9f6      	bls.n	800536e <HAL_RCC_OscConfig+0x13e>
 8005380:	e7e7      	b.n	8005352 <HAL_RCC_OscConfig+0x122>
 8005382:	f5b3 2fa0 	cmp.w	r3, #327680	; 0x50000
 8005386:	682b      	ldr	r3, [r5, #0]
 8005388:	d103      	bne.n	8005392 <HAL_RCC_OscConfig+0x162>
 800538a:	f443 2380 	orr.w	r3, r3, #262144	; 0x40000
 800538e:	602b      	str	r3, [r5, #0]
 8005390:	e7ce      	b.n	8005330 <HAL_RCC_OscConfig+0x100>
 8005392:	f423 3380 	bic.w	r3, r3, #65536	; 0x10000
 8005396:	602b      	str	r3, [r5, #0]
 8005398:	682b      	ldr	r3, [r5, #0]
 800539a:	f423 2380 	bic.w	r3, r3, #262144	; 0x40000
 800539e:	e7ca      	b.n	8005336 <HAL_RCC_OscConfig+0x106>
 80053a0:	4947      	ldr	r1, [pc, #284]	; (80054c0 <HAL_RCC_OscConfig+0x290>)
 80053a2:	68e2      	ldr	r2, [r4, #12]
 80053a4:	690b      	ldr	r3, [r1, #16]
 80053a6:	6a88      	ldr	r0, [r1, #40]	; 0x28
 80053a8:	f013 0338 	ands.w	r3, r3, #56	; 0x38
 80053ac:	d003      	beq.n	80053b6 <HAL_RCC_OscConfig+0x186>
 80053ae:	2b18      	cmp	r3, #24
 80053b0:	d12b      	bne.n	800540a <HAL_RCC_OscConfig+0x1da>
 80053b2:	0780      	lsls	r0, r0, #30
 80053b4:	d129      	bne.n	800540a <HAL_RCC_OscConfig+0x1da>
 80053b6:	680b      	ldr	r3, [r1, #0]
 80053b8:	075b      	lsls	r3, r3, #29
 80053ba:	d502      	bpl.n	80053c2 <HAL_RCC_OscConfig+0x192>
 80053bc:	2a00      	cmp	r2, #0
 80053be:	f43f af3a 	beq.w	8005236 <HAL_RCC_OscConfig+0x6>
 80053c2:	4d3f      	ldr	r5, [pc, #252]	; (80054c0 <HAL_RCC_OscConfig+0x290>)
 80053c4:	682b      	ldr	r3, [r5, #0]
 80053c6:	f023 0319 	bic.w	r3, r3, #25
 80053ca:	4313      	orrs	r3, r2
 80053cc:	602b      	str	r3, [r5, #0]
 80053ce:	f7fd fe7f 	bl	80030d0 <HAL_GetTick>
 80053d2:	4606      	mov	r6, r0
 80053d4:	682b      	ldr	r3, [r5, #0]
 80053d6:	075f      	lsls	r7, r3, #29
 80053d8:	d511      	bpl.n	80053fe <HAL_RCC_OscConfig+0x1ce>
 80053da:	f7fd fe91 	bl	8003100 <HAL_GetREVID>
 80053de:	f241 0303 	movw	r3, #4099	; 0x1003
 80053e2:	6922      	ldr	r2, [r4, #16]
 80053e4:	4298      	cmp	r0, r3
 80053e6:	686b      	ldr	r3, [r5, #4]
 80053e8:	d822      	bhi.n	8005430 <HAL_RCC_OscConfig+0x200>
 80053ea:	f423 337c 	bic.w	r3, r3, #258048	; 0x3f000
 80053ee:	2a40      	cmp	r2, #64	; 0x40
 80053f0:	bf0c      	ite	eq
 80053f2:	f443 3300 	orreq.w	r3, r3, #131072	; 0x20000
 80053f6:	ea43 3302 	orrne.w	r3, r3, r2, lsl #12
 80053fa:	606b      	str	r3, [r5, #4]
 80053fc:	e724      	b.n	8005248 <HAL_RCC_OscConfig+0x18>
 80053fe:	f7fd fe67 	bl	80030d0 <HAL_GetTick>
 8005402:	1b80      	subs	r0, r0, r6
 8005404:	2802      	cmp	r0, #2
 8005406:	d9e5      	bls.n	80053d4 <HAL_RCC_OscConfig+0x1a4>
 8005408:	e7a3      	b.n	8005352 <HAL_RCC_OscConfig+0x122>
 800540a:	4d2d      	ldr	r5, [pc, #180]	; (80054c0 <HAL_RCC_OscConfig+0x290>)
 800540c:	682b      	ldr	r3, [r5, #0]
 800540e:	b1a2      	cbz	r2, 800543a <HAL_RCC_OscConfig+0x20a>
 8005410:	f023 0319 	bic.w	r3, r3, #25
 8005414:	4313      	orrs	r3, r2
 8005416:	602b      	str	r3, [r5, #0]
 8005418:	f7fd fe5a 	bl	80030d0 <HAL_GetTick>
 800541c:	4606      	mov	r6, r0
 800541e:	682b      	ldr	r3, [r5, #0]
 8005420:	0758      	lsls	r0, r3, #29
 8005422:	d4da      	bmi.n	80053da <HAL_RCC_OscConfig+0x1aa>
 8005424:	f7fd fe54 	bl	80030d0 <HAL_GetTick>
 8005428:	1b80      	subs	r0, r0, r6
 800542a:	2802      	cmp	r0, #2
 800542c:	d9f7      	bls.n	800541e <HAL_RCC_OscConfig+0x1ee>
 800542e:	e790      	b.n	8005352 <HAL_RCC_OscConfig+0x122>
 8005430:	f023 43fe 	bic.w	r3, r3, #2130706432	; 0x7f000000
 8005434:	ea43 6302 	orr.w	r3, r3, r2, lsl #24
 8005438:	e7df      	b.n	80053fa <HAL_RCC_OscConfig+0x1ca>
 800543a:	f023 0301 	bic.w	r3, r3, #1
 800543e:	602b      	str	r3, [r5, #0]
 8005440:	f7fd fe46 	bl	80030d0 <HAL_GetTick>
 8005444:	4606      	mov	r6, r0
 8005446:	682b      	ldr	r3, [r5, #0]
 8005448:	0759      	lsls	r1, r3, #29
 800544a:	f57f aefd 	bpl.w	8005248 <HAL_RCC_OscConfig+0x18>
 800544e:	f7fd fe3f 	bl	80030d0 <HAL_GetTick>
 8005452:	1b80      	subs	r0, r0, r6
 8005454:	2802      	cmp	r0, #2
 8005456:	d9f6      	bls.n	8005446 <HAL_RCC_OscConfig+0x216>
 8005458:	e77b      	b.n	8005352 <HAL_RCC_OscConfig+0x122>
 800545a:	68da      	ldr	r2, [r3, #12]
 800545c:	f022 527c 	bic.w	r2, r2, #1056964608	; 0x3f000000
 8005460:	ea42 6201 	orr.w	r2, r2, r1, lsl #24
 8005464:	60da      	str	r2, [r3, #12]
 8005466:	e71a      	b.n	800529e <HAL_RCC_OscConfig+0x6e>
 8005468:	69e3      	ldr	r3, [r4, #28]
 800546a:	4d15      	ldr	r5, [pc, #84]	; (80054c0 <HAL_RCC_OscConfig+0x290>)
 800546c:	b363      	cbz	r3, 80054c8 <HAL_RCC_OscConfig+0x298>
 800546e:	682b      	ldr	r3, [r5, #0]
 8005470:	f043 0380 	orr.w	r3, r3, #128	; 0x80
 8005474:	602b      	str	r3, [r5, #0]
 8005476:	f7fd fe2b 	bl	80030d0 <HAL_GetTick>
 800547a:	4606      	mov	r6, r0
 800547c:	682b      	ldr	r3, [r5, #0]
 800547e:	05df      	lsls	r7, r3, #23
 8005480:	d511      	bpl.n	80054a6 <HAL_RCC_OscConfig+0x276>
 8005482:	f7fd fe3d 	bl	8003100 <HAL_GetREVID>
 8005486:	f241 0303 	movw	r3, #4099	; 0x1003
 800548a:	6a22      	ldr	r2, [r4, #32]
 800548c:	4298      	cmp	r0, r3
 800548e:	d810      	bhi.n	80054b2 <HAL_RCC_OscConfig+0x282>
 8005490:	686b      	ldr	r3, [r5, #4]
 8005492:	2a20      	cmp	r2, #32
 8005494:	f023 43f8 	bic.w	r3, r3, #2080374784	; 0x7c000000
 8005498:	bf0c      	ite	eq
 800549a:	f043 4380 	orreq.w	r3, r3, #1073741824	; 0x40000000
 800549e:	ea43 6382 	orrne.w	r3, r3, r2, lsl #26
 80054a2:	606b      	str	r3, [r5, #4]
 80054a4:	e6fb      	b.n	800529e <HAL_RCC_OscConfig+0x6e>
 80054a6:	f7fd fe13 	bl	80030d0 <HAL_GetTick>
 80054aa:	1b80      	subs	r0, r0, r6
 80054ac:	2802      	cmp	r0, #2
 80054ae:	d9e5      	bls.n	800547c <HAL_RCC_OscConfig+0x24c>
 80054b0:	e74f      	b.n	8005352 <HAL_RCC_OscConfig+0x122>
 80054b2:	68eb      	ldr	r3, [r5, #12]
 80054b4:	f023 537c 	bic.w	r3, r3, #1056964608	; 0x3f000000
 80054b8:	ea43 6302 	orr.w	r3, r3, r2, lsl #24
 80054bc:	60eb      	str	r3, [r5, #12]
 80054be:	e6ee      	b.n	800529e <HAL_RCC_OscConfig+0x6e>
 80054c0:	58024400 	.word	0x58024400
 80054c4:	58024800 	.word	0x58024800
 80054c8:	682b      	ldr	r3, [r5, #0]
 80054ca:	f023 0380 	bic.w	r3, r3, #128	; 0x80
 80054ce:	602b      	str	r3, [r5, #0]
 80054d0:	f7fd fdfe 	bl	80030d0 <HAL_GetTick>
 80054d4:	4606      	mov	r6, r0
 80054d6:	682b      	ldr	r3, [r5, #0]
 80054d8:	05d8      	lsls	r0, r3, #23
 80054da:	f57f aee0 	bpl.w	800529e <HAL_RCC_OscConfig+0x6e>
 80054de:	f7fd fdf7 	bl	80030d0 <HAL_GetTick>
 80054e2:	1b80      	subs	r0, r0, r6
 80054e4:	2802      	cmp	r0, #2
 80054e6:	d9f6      	bls.n	80054d6 <HAL_RCC_OscConfig+0x2a6>
 80054e8:	e733      	b.n	8005352 <HAL_RCC_OscConfig+0x122>
 80054ea:	6963      	ldr	r3, [r4, #20]
 80054ec:	4da5      	ldr	r5, [pc, #660]	; (8005784 <HAL_RCC_OscConfig+0x554>)
 80054ee:	b183      	cbz	r3, 8005512 <HAL_RCC_OscConfig+0x2e2>
 80054f0:	6f6b      	ldr	r3, [r5, #116]	; 0x74
 80054f2:	f043 0301 	orr.w	r3, r3, #1
 80054f6:	676b      	str	r3, [r5, #116]	; 0x74
 80054f8:	f7fd fdea 	bl	80030d0 <HAL_GetTick>
 80054fc:	4606      	mov	r6, r0
 80054fe:	6f6b      	ldr	r3, [r5, #116]	; 0x74
 8005500:	079b      	lsls	r3, r3, #30
 8005502:	f53f aed0 	bmi.w	80052a6 <HAL_RCC_OscConfig+0x76>
 8005506:	f7fd fde3 	bl	80030d0 <HAL_GetTick>
 800550a:	1b80      	subs	r0, r0, r6
 800550c:	2802      	cmp	r0, #2
 800550e:	d9f6      	bls.n	80054fe <HAL_RCC_OscConfig+0x2ce>
 8005510:	e71f      	b.n	8005352 <HAL_RCC_OscConfig+0x122>
 8005512:	6f6b      	ldr	r3, [r5, #116]	; 0x74
 8005514:	f023 0301 	bic.w	r3, r3, #1
 8005518:	676b      	str	r3, [r5, #116]	; 0x74
 800551a:	f7fd fdd9 	bl	80030d0 <HAL_GetTick>
 800551e:	4606      	mov	r6, r0
 8005520:	6f6b      	ldr	r3, [r5, #116]	; 0x74
 8005522:	079f      	lsls	r7, r3, #30
 8005524:	f57f aebf 	bpl.w	80052a6 <HAL_RCC_OscConfig+0x76>
 8005528:	f7fd fdd2 	bl	80030d0 <HAL_GetTick>
 800552c:	1b80      	subs	r0, r0, r6
 800552e:	2802      	cmp	r0, #2
 8005530:	d9f6      	bls.n	8005520 <HAL_RCC_OscConfig+0x2f0>
 8005532:	e70e      	b.n	8005352 <HAL_RCC_OscConfig+0x122>
 8005534:	69a3      	ldr	r3, [r4, #24]
 8005536:	4d93      	ldr	r5, [pc, #588]	; (8005784 <HAL_RCC_OscConfig+0x554>)
 8005538:	b183      	cbz	r3, 800555c <HAL_RCC_OscConfig+0x32c>
 800553a:	682b      	ldr	r3, [r5, #0]
 800553c:	f443 5380 	orr.w	r3, r3, #4096	; 0x1000
 8005540:	602b      	str	r3, [r5, #0]
 8005542:	f7fd fdc5 	bl	80030d0 <HAL_GetTick>
 8005546:	4606      	mov	r6, r0
 8005548:	682b      	ldr	r3, [r5, #0]
 800554a:	0498      	lsls	r0, r3, #18
 800554c:	f53f aeaf 	bmi.w	80052ae <HAL_RCC_OscConfig+0x7e>
 8005550:	f7fd fdbe 	bl	80030d0 <HAL_GetTick>
 8005554:	1b80      	subs	r0, r0, r6
 8005556:	2802      	cmp	r0, #2
 8005558:	d9f6      	bls.n	8005548 <HAL_RCC_OscConfig+0x318>
 800555a:	e6fa      	b.n	8005352 <HAL_RCC_OscConfig+0x122>
 800555c:	682b      	ldr	r3, [r5, #0]
 800555e:	f423 5380 	bic.w	r3, r3, #4096	; 0x1000
 8005562:	602b      	str	r3, [r5, #0]
 8005564:	f7fd fdb4 	bl	80030d0 <HAL_GetTick>
 8005568:	4606      	mov	r6, r0
 800556a:	682b      	ldr	r3, [r5, #0]
 800556c:	0499      	lsls	r1, r3, #18
 800556e:	f57f ae9e 	bpl.w	80052ae <HAL_RCC_OscConfig+0x7e>
 8005572:	f7fd fdad 	bl	80030d0 <HAL_GetTick>
 8005576:	1b80      	subs	r0, r0, r6
 8005578:	2802      	cmp	r0, #2
 800557a:	d9f6      	bls.n	800556a <HAL_RCC_OscConfig+0x33a>
 800557c:	e6e9      	b.n	8005352 <HAL_RCC_OscConfig+0x122>
 800557e:	f7fd fda7 	bl	80030d0 <HAL_GetTick>
 8005582:	1b80      	subs	r0, r0, r6
 8005584:	2864      	cmp	r0, #100	; 0x64
 8005586:	f67f ae9d 	bls.w	80052c4 <HAL_RCC_OscConfig+0x94>
 800558a:	e6e2      	b.n	8005352 <HAL_RCC_OscConfig+0x122>
 800558c:	b9b3      	cbnz	r3, 80055bc <HAL_RCC_OscConfig+0x38c>
 800558e:	6f2b      	ldr	r3, [r5, #112]	; 0x70
 8005590:	f241 3788 	movw	r7, #5000	; 0x1388
 8005594:	f023 0301 	bic.w	r3, r3, #1
 8005598:	672b      	str	r3, [r5, #112]	; 0x70
 800559a:	6f2b      	ldr	r3, [r5, #112]	; 0x70
 800559c:	f023 0304 	bic.w	r3, r3, #4
 80055a0:	672b      	str	r3, [r5, #112]	; 0x70
 80055a2:	f7fd fd95 	bl	80030d0 <HAL_GetTick>
 80055a6:	4606      	mov	r6, r0
 80055a8:	6f2b      	ldr	r3, [r5, #112]	; 0x70
 80055aa:	0798      	lsls	r0, r3, #30
 80055ac:	f57f aea1 	bpl.w	80052f2 <HAL_RCC_OscConfig+0xc2>
 80055b0:	f7fd fd8e 	bl	80030d0 <HAL_GetTick>
 80055b4:	1b80      	subs	r0, r0, r6
 80055b6:	42b8      	cmp	r0, r7
 80055b8:	d9f6      	bls.n	80055a8 <HAL_RCC_OscConfig+0x378>
 80055ba:	e6ca      	b.n	8005352 <HAL_RCC_OscConfig+0x122>
 80055bc:	2b05      	cmp	r3, #5
 80055be:	6f2b      	ldr	r3, [r5, #112]	; 0x70
 80055c0:	d103      	bne.n	80055ca <HAL_RCC_OscConfig+0x39a>
 80055c2:	f043 0304 	orr.w	r3, r3, #4
 80055c6:	672b      	str	r3, [r5, #112]	; 0x70
 80055c8:	e685      	b.n	80052d6 <HAL_RCC_OscConfig+0xa6>
 80055ca:	f023 0301 	bic.w	r3, r3, #1
 80055ce:	672b      	str	r3, [r5, #112]	; 0x70
 80055d0:	6f2b      	ldr	r3, [r5, #112]	; 0x70
 80055d2:	f023 0304 	bic.w	r3, r3, #4
 80055d6:	e681      	b.n	80052dc <HAL_RCC_OscConfig+0xac>
 80055d8:	f7fd fd7a 	bl	80030d0 <HAL_GetTick>
 80055dc:	1b40      	subs	r0, r0, r5
 80055de:	42b8      	cmp	r0, r7
 80055e0:	f67f ae83 	bls.w	80052ea <HAL_RCC_OscConfig+0xba>
 80055e4:	e6b5      	b.n	8005352 <HAL_RCC_OscConfig+0x122>
 80055e6:	4d67      	ldr	r5, [pc, #412]	; (8005784 <HAL_RCC_OscConfig+0x554>)
 80055e8:	692b      	ldr	r3, [r5, #16]
 80055ea:	f003 0338 	and.w	r3, r3, #56	; 0x38
 80055ee:	2b18      	cmp	r3, #24
 80055f0:	d07a      	beq.n	80056e8 <HAL_RCC_OscConfig+0x4b8>
 80055f2:	682b      	ldr	r3, [r5, #0]
 80055f4:	2802      	cmp	r0, #2
 80055f6:	f023 7380 	bic.w	r3, r3, #16777216	; 0x1000000
 80055fa:	602b      	str	r3, [r5, #0]
 80055fc:	d167      	bne.n	80056ce <HAL_RCC_OscConfig+0x49e>
 80055fe:	f7fd fd67 	bl	80030d0 <HAL_GetTick>
 8005602:	4606      	mov	r6, r0
 8005604:	682b      	ldr	r3, [r5, #0]
 8005606:	0199      	lsls	r1, r3, #6
 8005608:	d45b      	bmi.n	80056c2 <HAL_RCC_OscConfig+0x492>
 800560a:	6aab      	ldr	r3, [r5, #40]	; 0x28
 800560c:	6aa2      	ldr	r2, [r4, #40]	; 0x28
 800560e:	f423 737c 	bic.w	r3, r3, #1008	; 0x3f0
 8005612:	f023 0303 	bic.w	r3, r3, #3
 8005616:	4313      	orrs	r3, r2
 8005618:	6ae2      	ldr	r2, [r4, #44]	; 0x2c
 800561a:	ea43 1302 	orr.w	r3, r3, r2, lsl #4
 800561e:	62ab      	str	r3, [r5, #40]	; 0x28
 8005620:	6b63      	ldr	r3, [r4, #52]	; 0x34
 8005622:	6ba2      	ldr	r2, [r4, #56]	; 0x38
 8005624:	3b01      	subs	r3, #1
 8005626:	3a01      	subs	r2, #1
 8005628:	025b      	lsls	r3, r3, #9
 800562a:	0412      	lsls	r2, r2, #16
 800562c:	b29b      	uxth	r3, r3
 800562e:	f402 02fe 	and.w	r2, r2, #8323072	; 0x7f0000
 8005632:	4313      	orrs	r3, r2
 8005634:	6b22      	ldr	r2, [r4, #48]	; 0x30
 8005636:	3a01      	subs	r2, #1
 8005638:	f3c2 0208 	ubfx	r2, r2, #0, #9
 800563c:	4313      	orrs	r3, r2
 800563e:	6be2      	ldr	r2, [r4, #60]	; 0x3c
 8005640:	3a01      	subs	r2, #1
 8005642:	0612      	lsls	r2, r2, #24
 8005644:	f002 42fe 	and.w	r2, r2, #2130706432	; 0x7f000000
 8005648:	4313      	orrs	r3, r2
 800564a:	632b      	str	r3, [r5, #48]	; 0x30
 800564c:	6aeb      	ldr	r3, [r5, #44]	; 0x2c
 800564e:	f023 0301 	bic.w	r3, r3, #1
 8005652:	62eb      	str	r3, [r5, #44]	; 0x2c
 8005654:	6b6b      	ldr	r3, [r5, #52]	; 0x34
 8005656:	6ca2      	ldr	r2, [r4, #72]	; 0x48
 8005658:	f423 437f 	bic.w	r3, r3, #65280	; 0xff00
 800565c:	f023 03f8 	bic.w	r3, r3, #248	; 0xf8
 8005660:	ea43 03c2 	orr.w	r3, r3, r2, lsl #3
 8005664:	636b      	str	r3, [r5, #52]	; 0x34
 8005666:	6aeb      	ldr	r3, [r5, #44]	; 0x2c
 8005668:	6c22      	ldr	r2, [r4, #64]	; 0x40
 800566a:	f023 030c 	bic.w	r3, r3, #12
 800566e:	4313      	orrs	r3, r2
 8005670:	62eb      	str	r3, [r5, #44]	; 0x2c
 8005672:	6aeb      	ldr	r3, [r5, #44]	; 0x2c
 8005674:	6c62      	ldr	r2, [r4, #68]	; 0x44
 8005676:	f023 0302 	bic.w	r3, r3, #2
 800567a:	4313      	orrs	r3, r2
 800567c:	62eb      	str	r3, [r5, #44]	; 0x2c
 800567e:	6aeb      	ldr	r3, [r5, #44]	; 0x2c
 8005680:	f443 3380 	orr.w	r3, r3, #65536	; 0x10000
 8005684:	62eb      	str	r3, [r5, #44]	; 0x2c
 8005686:	6aeb      	ldr	r3, [r5, #44]	; 0x2c
 8005688:	f443 3300 	orr.w	r3, r3, #131072	; 0x20000
 800568c:	62eb      	str	r3, [r5, #44]	; 0x2c
 800568e:	6aeb      	ldr	r3, [r5, #44]	; 0x2c
 8005690:	f443 2380 	orr.w	r3, r3, #262144	; 0x40000
 8005694:	62eb      	str	r3, [r5, #44]	; 0x2c
 8005696:	6aeb      	ldr	r3, [r5, #44]	; 0x2c
 8005698:	f043 0301 	orr.w	r3, r3, #1
 800569c:	62eb      	str	r3, [r5, #44]	; 0x2c
 800569e:	682b      	ldr	r3, [r5, #0]
 80056a0:	f043 7380 	orr.w	r3, r3, #16777216	; 0x1000000
 80056a4:	602b      	str	r3, [r5, #0]
 80056a6:	f7fd fd13 	bl	80030d0 <HAL_GetTick>
 80056aa:	4d36      	ldr	r5, [pc, #216]	; (8005784 <HAL_RCC_OscConfig+0x554>)
 80056ac:	4604      	mov	r4, r0
 80056ae:	682b      	ldr	r3, [r5, #0]
 80056b0:	019a      	lsls	r2, r3, #6
 80056b2:	f53f ae22 	bmi.w	80052fa <HAL_RCC_OscConfig+0xca>
 80056b6:	f7fd fd0b 	bl	80030d0 <HAL_GetTick>
 80056ba:	1b00      	subs	r0, r0, r4
 80056bc:	2802      	cmp	r0, #2
 80056be:	d9f6      	bls.n	80056ae <HAL_RCC_OscConfig+0x47e>
 80056c0:	e647      	b.n	8005352 <HAL_RCC_OscConfig+0x122>
 80056c2:	f7fd fd05 	bl	80030d0 <HAL_GetTick>
 80056c6:	1b80      	subs	r0, r0, r6
 80056c8:	2802      	cmp	r0, #2
 80056ca:	d99b      	bls.n	8005604 <HAL_RCC_OscConfig+0x3d4>
 80056cc:	e641      	b.n	8005352 <HAL_RCC_OscConfig+0x122>
 80056ce:	f7fd fcff 	bl	80030d0 <HAL_GetTick>
 80056d2:	4604      	mov	r4, r0
 80056d4:	682b      	ldr	r3, [r5, #0]
 80056d6:	019b      	lsls	r3, r3, #6
 80056d8:	f57f ae0f 	bpl.w	80052fa <HAL_RCC_OscConfig+0xca>
 80056dc:	f7fd fcf8 	bl	80030d0 <HAL_GetTick>
 80056e0:	1b00      	subs	r0, r0, r4
 80056e2:	2802      	cmp	r0, #2
 80056e4:	d9f6      	bls.n	80056d4 <HAL_RCC_OscConfig+0x4a4>
 80056e6:	e634      	b.n	8005352 <HAL_RCC_OscConfig+0x122>
 80056e8:	2801      	cmp	r0, #1
 80056ea:	6aaa      	ldr	r2, [r5, #40]	; 0x28
 80056ec:	6b2b      	ldr	r3, [r5, #48]	; 0x30
 80056ee:	f43f ae31 	beq.w	8005354 <HAL_RCC_OscConfig+0x124>
 80056f2:	f002 0103 	and.w	r1, r2, #3
 80056f6:	6aa0      	ldr	r0, [r4, #40]	; 0x28
 80056f8:	4281      	cmp	r1, r0
 80056fa:	f47f ad9c 	bne.w	8005236 <HAL_RCC_OscConfig+0x6>
 80056fe:	f3c2 1205 	ubfx	r2, r2, #4, #6
 8005702:	6ae1      	ldr	r1, [r4, #44]	; 0x2c
 8005704:	428a      	cmp	r2, r1
 8005706:	f47f ad96 	bne.w	8005236 <HAL_RCC_OscConfig+0x6>
 800570a:	6b22      	ldr	r2, [r4, #48]	; 0x30
 800570c:	f3c3 0108 	ubfx	r1, r3, #0, #9
 8005710:	3a01      	subs	r2, #1
 8005712:	4291      	cmp	r1, r2
 8005714:	f47f ad8f 	bne.w	8005236 <HAL_RCC_OscConfig+0x6>
 8005718:	6b62      	ldr	r2, [r4, #52]	; 0x34
 800571a:	f3c3 2146 	ubfx	r1, r3, #9, #7
 800571e:	3a01      	subs	r2, #1
 8005720:	4291      	cmp	r1, r2
 8005722:	f47f ad88 	bne.w	8005236 <HAL_RCC_OscConfig+0x6>
 8005726:	6ba2      	ldr	r2, [r4, #56]	; 0x38
 8005728:	f3c3 4106 	ubfx	r1, r3, #16, #7
 800572c:	3a01      	subs	r2, #1
 800572e:	4291      	cmp	r1, r2
 8005730:	f47f ad81 	bne.w	8005236 <HAL_RCC_OscConfig+0x6>
 8005734:	6be2      	ldr	r2, [r4, #60]	; 0x3c
 8005736:	f3c3 6306 	ubfx	r3, r3, #24, #7
 800573a:	3a01      	subs	r2, #1
 800573c:	4293      	cmp	r3, r2
 800573e:	f47f ad7a 	bne.w	8005236 <HAL_RCC_OscConfig+0x6>
 8005742:	6b6b      	ldr	r3, [r5, #52]	; 0x34
 8005744:	6ca2      	ldr	r2, [r4, #72]	; 0x48
 8005746:	f3c3 03cc 	ubfx	r3, r3, #3, #13
 800574a:	429a      	cmp	r2, r3
 800574c:	f43f add5 	beq.w	80052fa <HAL_RCC_OscConfig+0xca>
 8005750:	4d0c      	ldr	r5, [pc, #48]	; (8005784 <HAL_RCC_OscConfig+0x554>)
 8005752:	6aeb      	ldr	r3, [r5, #44]	; 0x2c
 8005754:	f023 0301 	bic.w	r3, r3, #1
 8005758:	62eb      	str	r3, [r5, #44]	; 0x2c
 800575a:	f7fd fcb9 	bl	80030d0 <HAL_GetTick>
 800575e:	4606      	mov	r6, r0
 8005760:	f7fd fcb6 	bl	80030d0 <HAL_GetTick>
 8005764:	42b0      	cmp	r0, r6
 8005766:	d0fb      	beq.n	8005760 <HAL_RCC_OscConfig+0x530>
 8005768:	6b6b      	ldr	r3, [r5, #52]	; 0x34
 800576a:	6ca2      	ldr	r2, [r4, #72]	; 0x48
 800576c:	f423 437f 	bic.w	r3, r3, #65280	; 0xff00
 8005770:	f023 03f8 	bic.w	r3, r3, #248	; 0xf8
 8005774:	ea43 03c2 	orr.w	r3, r3, r2, lsl #3
 8005778:	636b      	str	r3, [r5, #52]	; 0x34
 800577a:	6aeb      	ldr	r3, [r5, #44]	; 0x2c
 800577c:	f043 0301 	orr.w	r3, r3, #1
 8005780:	62eb      	str	r3, [r5, #44]	; 0x2c
 8005782:	e5ba      	b.n	80052fa <HAL_RCC_OscConfig+0xca>
 8005784:	58024400 	.word	0x58024400

08005788 <HAL_RCC_MCOConfig>:
 8005788:	b570      	push	{r4, r5, r6, lr}
 800578a:	4c23      	ldr	r4, [pc, #140]	; (8005818 <HAL_RCC_MCOConfig+0x90>)
 800578c:	b088      	sub	sp, #32
 800578e:	460e      	mov	r6, r1
 8005790:	4615      	mov	r5, r2
 8005792:	f8d4 30e0 	ldr.w	r3, [r4, #224]	; 0xe0
 8005796:	b9f8      	cbnz	r0, 80057d8 <HAL_RCC_MCOConfig+0x50>
 8005798:	f043 0301 	orr.w	r3, r3, #1
 800579c:	f44f 7c80 	mov.w	ip, #256	; 0x100
 80057a0:	a903      	add	r1, sp, #12
 80057a2:	f8c4 30e0 	str.w	r3, [r4, #224]	; 0xe0
 80057a6:	f8d4 30e0 	ldr.w	r3, [r4, #224]	; 0xe0
 80057aa:	9007      	str	r0, [sp, #28]
 80057ac:	f003 0301 	and.w	r3, r3, #1
 80057b0:	9301      	str	r3, [sp, #4]
 80057b2:	9b01      	ldr	r3, [sp, #4]
 80057b4:	2302      	movs	r3, #2
 80057b6:	e9cd c303 	strd	ip, r3, [sp, #12]
 80057ba:	2303      	movs	r3, #3
 80057bc:	e9cd 0305 	strd	r0, r3, [sp, #20]
 80057c0:	4816      	ldr	r0, [pc, #88]	; (800581c <HAL_RCC_MCOConfig+0x94>)
 80057c2:	f7fe ff1b 	bl	80045fc <HAL_GPIO_Init>
 80057c6:	6923      	ldr	r3, [r4, #16]
 80057c8:	f023 73fe 	bic.w	r3, r3, #33292288	; 0x1fc0000
 80057cc:	ea43 0106 	orr.w	r1, r3, r6
 80057d0:	4329      	orrs	r1, r5
 80057d2:	6121      	str	r1, [r4, #16]
 80057d4:	b008      	add	sp, #32
 80057d6:	bd70      	pop	{r4, r5, r6, pc}
 80057d8:	f043 0304 	orr.w	r3, r3, #4
 80057dc:	f44f 7200 	mov.w	r2, #512	; 0x200
 80057e0:	2103      	movs	r1, #3
 80057e2:	480f      	ldr	r0, [pc, #60]	; (8005820 <HAL_RCC_MCOConfig+0x98>)
 80057e4:	f8c4 30e0 	str.w	r3, [r4, #224]	; 0xe0
 80057e8:	f8d4 30e0 	ldr.w	r3, [r4, #224]	; 0xe0
 80057ec:	f003 0304 	and.w	r3, r3, #4
 80057f0:	9302      	str	r3, [sp, #8]
 80057f2:	9b02      	ldr	r3, [sp, #8]
 80057f4:	2302      	movs	r3, #2
 80057f6:	e9cd 2303 	strd	r2, r3, [sp, #12]
 80057fa:	2300      	movs	r3, #0
 80057fc:	e9cd 3105 	strd	r3, r1, [sp, #20]
 8005800:	a903      	add	r1, sp, #12
 8005802:	9307      	str	r3, [sp, #28]
 8005804:	f7fe fefa 	bl	80045fc <HAL_GPIO_Init>
 8005808:	6923      	ldr	r3, [r4, #16]
 800580a:	f023 437e 	bic.w	r3, r3, #4261412864	; 0xfe000000
 800580e:	ea43 0106 	orr.w	r1, r3, r6
 8005812:	ea41 11c5 	orr.w	r1, r1, r5, lsl #7
 8005816:	e7dc      	b.n	80057d2 <HAL_RCC_MCOConfig+0x4a>
 8005818:	58024400 	.word	0x58024400
 800581c:	58020000 	.word	0x58020000
 8005820:	58020800 	.word	0x58020800

08005824 <HAL_RCC_GetSysClockFreq>:
 8005824:	4b49      	ldr	r3, [pc, #292]	; (800594c <HAL_RCC_GetSysClockFreq+0x128>)
 8005826:	691a      	ldr	r2, [r3, #16]
 8005828:	f002 0238 	and.w	r2, r2, #56	; 0x38
 800582c:	2a10      	cmp	r2, #16
 800582e:	b530      	push	{r4, r5, lr}
 8005830:	f000 8088 	beq.w	8005944 <HAL_RCC_GetSysClockFreq+0x120>
 8005834:	2a18      	cmp	r2, #24
 8005836:	d00c      	beq.n	8005852 <HAL_RCC_GetSysClockFreq+0x2e>
 8005838:	2a00      	cmp	r2, #0
 800583a:	f040 8085 	bne.w	8005948 <HAL_RCC_GetSysClockFreq+0x124>
 800583e:	681a      	ldr	r2, [r3, #0]
 8005840:	4843      	ldr	r0, [pc, #268]	; (8005950 <HAL_RCC_GetSysClockFreq+0x12c>)
 8005842:	f012 0f20 	tst.w	r2, #32
 8005846:	d003      	beq.n	8005850 <HAL_RCC_GetSysClockFreq+0x2c>
 8005848:	681b      	ldr	r3, [r3, #0]
 800584a:	f3c3 03c1 	ubfx	r3, r3, #3, #2
 800584e:	40d8      	lsrs	r0, r3
 8005850:	bd30      	pop	{r4, r5, pc}
 8005852:	6a99      	ldr	r1, [r3, #40]	; 0x28
 8005854:	6a9d      	ldr	r5, [r3, #40]	; 0x28
 8005856:	6adc      	ldr	r4, [r3, #44]	; 0x2c
 8005858:	f415 7f7c 	tst.w	r5, #1008	; 0x3f0
 800585c:	f3c5 1005 	ubfx	r0, r5, #4, #6
 8005860:	6b5a      	ldr	r2, [r3, #52]	; 0x34
 8005862:	d0f5      	beq.n	8005850 <HAL_RCC_GetSysClockFreq+0x2c>
 8005864:	f3c2 02cc 	ubfx	r2, r2, #3, #13
 8005868:	f004 0401 	and.w	r4, r4, #1
 800586c:	f001 0103 	and.w	r1, r1, #3
 8005870:	ee07 0a90 	vmov	s15, r0
 8005874:	4362      	muls	r2, r4
 8005876:	eeb7 6a00 	vmov.f32	s12, #112	; 0x3f800000  1.0
 800587a:	2901      	cmp	r1, #1
 800587c:	eeb8 7ae7 	vcvt.f32.s32	s14, s15
 8005880:	ee06 2a90 	vmov	s13, r2
 8005884:	eefa 6ae9 	vcvt.f32.s32	s13, s13, #13
 8005888:	d04e      	beq.n	8005928 <HAL_RCC_GetSysClockFreq+0x104>
 800588a:	2902      	cmp	r1, #2
 800588c:	d03e      	beq.n	800590c <HAL_RCC_GetSysClockFreq+0xe8>
 800588e:	2900      	cmp	r1, #0
 8005890:	d14a      	bne.n	8005928 <HAL_RCC_GetSysClockFreq+0x104>
 8005892:	681a      	ldr	r2, [r3, #0]
 8005894:	0692      	lsls	r2, r2, #26
 8005896:	d527      	bpl.n	80058e8 <HAL_RCC_GetSysClockFreq+0xc4>
 8005898:	6819      	ldr	r1, [r3, #0]
 800589a:	4a2d      	ldr	r2, [pc, #180]	; (8005950 <HAL_RCC_GetSysClockFreq+0x12c>)
 800589c:	f3c1 01c1 	ubfx	r1, r1, #3, #2
 80058a0:	6b1b      	ldr	r3, [r3, #48]	; 0x30
 80058a2:	40ca      	lsrs	r2, r1
 80058a4:	f3c3 0308 	ubfx	r3, r3, #0, #9
 80058a8:	ee07 2a90 	vmov	s15, r2
 80058ac:	eef8 5ae7 	vcvt.f32.s32	s11, s15
 80058b0:	eec5 7a87 	vdiv.f32	s15, s11, s14
 80058b4:	ee07 3a10 	vmov	s14, r3
 80058b8:	eeb8 7ac7 	vcvt.f32.s32	s14, s14
 80058bc:	ee37 7a26 	vadd.f32	s14, s14, s13
 80058c0:	ee37 7a06 	vadd.f32	s14, s14, s12
 80058c4:	ee67 7a87 	vmul.f32	s15, s15, s14
 80058c8:	4b20      	ldr	r3, [pc, #128]	; (800594c <HAL_RCC_GetSysClockFreq+0x128>)
 80058ca:	6b1b      	ldr	r3, [r3, #48]	; 0x30
 80058cc:	f3c3 2346 	ubfx	r3, r3, #9, #7
 80058d0:	3301      	adds	r3, #1
 80058d2:	ee07 3a10 	vmov	s14, r3
 80058d6:	eef8 6ac7 	vcvt.f32.s32	s13, s14
 80058da:	ee87 7aa6 	vdiv.f32	s14, s15, s13
 80058de:	eefc 7ac7 	vcvt.u32.f32	s15, s14
 80058e2:	ee17 0a90 	vmov	r0, s15
 80058e6:	e7b3      	b.n	8005850 <HAL_RCC_GetSysClockFreq+0x2c>
 80058e8:	6b1b      	ldr	r3, [r3, #48]	; 0x30
 80058ea:	f3c3 0308 	ubfx	r3, r3, #0, #9
 80058ee:	ee07 3a90 	vmov	s15, r3
 80058f2:	eef8 7ae7 	vcvt.f32.s32	s15, s15
 80058f6:	ee77 7aa6 	vadd.f32	s15, s15, s13
 80058fa:	ee77 7a86 	vadd.f32	s15, s15, s12
 80058fe:	ed9f 6a15 	vldr	s12, [pc, #84]	; 8005954 <HAL_RCC_GetSysClockFreq+0x130>
 8005902:	eec6 6a07 	vdiv.f32	s13, s12, s14
 8005906:	ee67 7aa6 	vmul.f32	s15, s15, s13
 800590a:	e7dd      	b.n	80058c8 <HAL_RCC_GetSysClockFreq+0xa4>
 800590c:	6b1b      	ldr	r3, [r3, #48]	; 0x30
 800590e:	f3c3 0308 	ubfx	r3, r3, #0, #9
 8005912:	ee07 3a90 	vmov	s15, r3
 8005916:	eef8 7ae7 	vcvt.f32.s32	s15, s15
 800591a:	ee77 7aa6 	vadd.f32	s15, s15, s13
 800591e:	ee77 7a86 	vadd.f32	s15, s15, s12
 8005922:	ed9f 6a0d 	vldr	s12, [pc, #52]	; 8005958 <HAL_RCC_GetSysClockFreq+0x134>
 8005926:	e7ec      	b.n	8005902 <HAL_RCC_GetSysClockFreq+0xde>
 8005928:	6b1b      	ldr	r3, [r3, #48]	; 0x30
 800592a:	f3c3 0308 	ubfx	r3, r3, #0, #9
 800592e:	ee07 3a90 	vmov	s15, r3
 8005932:	eef8 7ae7 	vcvt.f32.s32	s15, s15
 8005936:	ee77 7aa6 	vadd.f32	s15, s15, s13
 800593a:	ee77 7a86 	vadd.f32	s15, s15, s12
 800593e:	ed9f 6a07 	vldr	s12, [pc, #28]	; 800595c <HAL_RCC_GetSysClockFreq+0x138>
 8005942:	e7de      	b.n	8005902 <HAL_RCC_GetSysClockFreq+0xde>
 8005944:	4806      	ldr	r0, [pc, #24]	; (8005960 <HAL_RCC_GetSysClockFreq+0x13c>)
 8005946:	e783      	b.n	8005850 <HAL_RCC_GetSysClockFreq+0x2c>
 8005948:	4806      	ldr	r0, [pc, #24]	; (8005964 <HAL_RCC_GetSysClockFreq+0x140>)
 800594a:	e781      	b.n	8005850 <HAL_RCC_GetSysClockFreq+0x2c>
 800594c:	58024400 	.word	0x58024400
 8005950:	03d09000 	.word	0x03d09000
 8005954:	4c742400 	.word	0x4c742400
 8005958:	4bbebc20 	.word	0x4bbebc20
 800595c:	4a742400 	.word	0x4a742400
 8005960:	017d7840 	.word	0x017d7840
 8005964:	003d0900 	.word	0x003d0900

08005968 <HAL_RCC_ClockConfig>:
 8005968:	e92d 41f0 	stmdb	sp!, {r4, r5, r6, r7, r8, lr}
 800596c:	460d      	mov	r5, r1
 800596e:	4604      	mov	r4, r0
 8005970:	b910      	cbnz	r0, 8005978 <HAL_RCC_ClockConfig+0x10>
 8005972:	2001      	movs	r0, #1
 8005974:	e8bd 81f0 	ldmia.w	sp!, {r4, r5, r6, r7, r8, pc}
 8005978:	4a88      	ldr	r2, [pc, #544]	; (8005b9c <HAL_RCC_ClockConfig+0x234>)
 800597a:	6813      	ldr	r3, [r2, #0]
 800597c:	f003 030f 	and.w	r3, r3, #15
 8005980:	428b      	cmp	r3, r1
 8005982:	f0c0 8093 	bcc.w	8005aac <HAL_RCC_ClockConfig+0x144>
 8005986:	6823      	ldr	r3, [r4, #0]
 8005988:	075f      	lsls	r7, r3, #29
 800598a:	f100 809b 	bmi.w	8005ac4 <HAL_RCC_ClockConfig+0x15c>
 800598e:	071e      	lsls	r6, r3, #28
 8005990:	d50b      	bpl.n	80059aa <HAL_RCC_ClockConfig+0x42>
 8005992:	4983      	ldr	r1, [pc, #524]	; (8005ba0 <HAL_RCC_ClockConfig+0x238>)
 8005994:	6960      	ldr	r0, [r4, #20]
 8005996:	69ca      	ldr	r2, [r1, #28]
 8005998:	f002 0270 	and.w	r2, r2, #112	; 0x70
 800599c:	4290      	cmp	r0, r2
 800599e:	d904      	bls.n	80059aa <HAL_RCC_ClockConfig+0x42>
 80059a0:	69ca      	ldr	r2, [r1, #28]
 80059a2:	f022 0270 	bic.w	r2, r2, #112	; 0x70
 80059a6:	4302      	orrs	r2, r0
 80059a8:	61ca      	str	r2, [r1, #28]
 80059aa:	06d8      	lsls	r0, r3, #27
 80059ac:	d50b      	bpl.n	80059c6 <HAL_RCC_ClockConfig+0x5e>
 80059ae:	497c      	ldr	r1, [pc, #496]	; (8005ba0 <HAL_RCC_ClockConfig+0x238>)
 80059b0:	69a0      	ldr	r0, [r4, #24]
 80059b2:	69ca      	ldr	r2, [r1, #28]
 80059b4:	f402 62e0 	and.w	r2, r2, #1792	; 0x700
 80059b8:	4290      	cmp	r0, r2
 80059ba:	d904      	bls.n	80059c6 <HAL_RCC_ClockConfig+0x5e>
 80059bc:	69ca      	ldr	r2, [r1, #28]
 80059be:	f422 62e0 	bic.w	r2, r2, #1792	; 0x700
 80059c2:	4302      	orrs	r2, r0
 80059c4:	61ca      	str	r2, [r1, #28]
 80059c6:	0699      	lsls	r1, r3, #26
 80059c8:	d50b      	bpl.n	80059e2 <HAL_RCC_ClockConfig+0x7a>
 80059ca:	4975      	ldr	r1, [pc, #468]	; (8005ba0 <HAL_RCC_ClockConfig+0x238>)
 80059cc:	69e0      	ldr	r0, [r4, #28]
 80059ce:	6a0a      	ldr	r2, [r1, #32]
 80059d0:	f002 0270 	and.w	r2, r2, #112	; 0x70
 80059d4:	4290      	cmp	r0, r2
 80059d6:	d904      	bls.n	80059e2 <HAL_RCC_ClockConfig+0x7a>
 80059d8:	6a0a      	ldr	r2, [r1, #32]
 80059da:	f022 0270 	bic.w	r2, r2, #112	; 0x70
 80059de:	4302      	orrs	r2, r0
 80059e0:	620a      	str	r2, [r1, #32]
 80059e2:	079a      	lsls	r2, r3, #30
 80059e4:	d50b      	bpl.n	80059fe <HAL_RCC_ClockConfig+0x96>
 80059e6:	496e      	ldr	r1, [pc, #440]	; (8005ba0 <HAL_RCC_ClockConfig+0x238>)
 80059e8:	68e0      	ldr	r0, [r4, #12]
 80059ea:	698a      	ldr	r2, [r1, #24]
 80059ec:	f002 020f 	and.w	r2, r2, #15
 80059f0:	4290      	cmp	r0, r2
 80059f2:	d904      	bls.n	80059fe <HAL_RCC_ClockConfig+0x96>
 80059f4:	698a      	ldr	r2, [r1, #24]
 80059f6:	f022 020f 	bic.w	r2, r2, #15
 80059fa:	4302      	orrs	r2, r0
 80059fc:	618a      	str	r2, [r1, #24]
 80059fe:	07df      	lsls	r7, r3, #31
 8005a00:	d46e      	bmi.n	8005ae0 <HAL_RCC_ClockConfig+0x178>
 8005a02:	6823      	ldr	r3, [r4, #0]
 8005a04:	079e      	lsls	r6, r3, #30
 8005a06:	f100 80a1 	bmi.w	8005b4c <HAL_RCC_ClockConfig+0x1e4>
 8005a0a:	4964      	ldr	r1, [pc, #400]	; (8005b9c <HAL_RCC_ClockConfig+0x234>)
 8005a0c:	680a      	ldr	r2, [r1, #0]
 8005a0e:	f002 020f 	and.w	r2, r2, #15
 8005a12:	42aa      	cmp	r2, r5
 8005a14:	f200 80a8 	bhi.w	8005b68 <HAL_RCC_ClockConfig+0x200>
 8005a18:	0758      	lsls	r0, r3, #29
 8005a1a:	f100 80b1 	bmi.w	8005b80 <HAL_RCC_ClockConfig+0x218>
 8005a1e:	0719      	lsls	r1, r3, #28
 8005a20:	d50b      	bpl.n	8005a3a <HAL_RCC_ClockConfig+0xd2>
 8005a22:	495f      	ldr	r1, [pc, #380]	; (8005ba0 <HAL_RCC_ClockConfig+0x238>)
 8005a24:	6960      	ldr	r0, [r4, #20]
 8005a26:	69ca      	ldr	r2, [r1, #28]
 8005a28:	f002 0270 	and.w	r2, r2, #112	; 0x70
 8005a2c:	4290      	cmp	r0, r2
 8005a2e:	d204      	bcs.n	8005a3a <HAL_RCC_ClockConfig+0xd2>
 8005a30:	69ca      	ldr	r2, [r1, #28]
 8005a32:	f022 0270 	bic.w	r2, r2, #112	; 0x70
 8005a36:	4302      	orrs	r2, r0
 8005a38:	61ca      	str	r2, [r1, #28]
 8005a3a:	06da      	lsls	r2, r3, #27
 8005a3c:	d50b      	bpl.n	8005a56 <HAL_RCC_ClockConfig+0xee>
 8005a3e:	4958      	ldr	r1, [pc, #352]	; (8005ba0 <HAL_RCC_ClockConfig+0x238>)
 8005a40:	69a0      	ldr	r0, [r4, #24]
 8005a42:	69ca      	ldr	r2, [r1, #28]
 8005a44:	f402 62e0 	and.w	r2, r2, #1792	; 0x700
 8005a48:	4290      	cmp	r0, r2
 8005a4a:	d204      	bcs.n	8005a56 <HAL_RCC_ClockConfig+0xee>
 8005a4c:	69ca      	ldr	r2, [r1, #28]
 8005a4e:	f422 62e0 	bic.w	r2, r2, #1792	; 0x700
 8005a52:	4302      	orrs	r2, r0
 8005a54:	61ca      	str	r2, [r1, #28]
 8005a56:	069b      	lsls	r3, r3, #26
 8005a58:	d50b      	bpl.n	8005a72 <HAL_RCC_ClockConfig+0x10a>
 8005a5a:	4a51      	ldr	r2, [pc, #324]	; (8005ba0 <HAL_RCC_ClockConfig+0x238>)
 8005a5c:	69e1      	ldr	r1, [r4, #28]
 8005a5e:	6a13      	ldr	r3, [r2, #32]
 8005a60:	f003 0370 	and.w	r3, r3, #112	; 0x70
 8005a64:	4299      	cmp	r1, r3
 8005a66:	d204      	bcs.n	8005a72 <HAL_RCC_ClockConfig+0x10a>
 8005a68:	6a13      	ldr	r3, [r2, #32]
 8005a6a:	f023 0370 	bic.w	r3, r3, #112	; 0x70
 8005a6e:	430b      	orrs	r3, r1
 8005a70:	6213      	str	r3, [r2, #32]
 8005a72:	f7ff fed7 	bl	8005824 <HAL_RCC_GetSysClockFreq>
 8005a76:	494a      	ldr	r1, [pc, #296]	; (8005ba0 <HAL_RCC_ClockConfig+0x238>)
 8005a78:	4a4a      	ldr	r2, [pc, #296]	; (8005ba4 <HAL_RCC_ClockConfig+0x23c>)
 8005a7a:	698b      	ldr	r3, [r1, #24]
 8005a7c:	f3c3 2303 	ubfx	r3, r3, #8, #4
 8005a80:	5cd3      	ldrb	r3, [r2, r3]
 8005a82:	f003 031f 	and.w	r3, r3, #31
 8005a86:	40d8      	lsrs	r0, r3
 8005a88:	698b      	ldr	r3, [r1, #24]
 8005a8a:	f003 030f 	and.w	r3, r3, #15
 8005a8e:	5cd3      	ldrb	r3, [r2, r3]
 8005a90:	4a45      	ldr	r2, [pc, #276]	; (8005ba8 <HAL_RCC_ClockConfig+0x240>)
 8005a92:	f003 031f 	and.w	r3, r3, #31
 8005a96:	fa20 f303 	lsr.w	r3, r0, r3
 8005a9a:	6013      	str	r3, [r2, #0]
 8005a9c:	4b43      	ldr	r3, [pc, #268]	; (8005bac <HAL_RCC_ClockConfig+0x244>)
 8005a9e:	6018      	str	r0, [r3, #0]
 8005aa0:	4b43      	ldr	r3, [pc, #268]	; (8005bb0 <HAL_RCC_ClockConfig+0x248>)
 8005aa2:	e8bd 41f0 	ldmia.w	sp!, {r4, r5, r6, r7, r8, lr}
 8005aa6:	6818      	ldr	r0, [r3, #0]
 8005aa8:	f7fd bab2 	b.w	8003010 <HAL_InitTick>
 8005aac:	6813      	ldr	r3, [r2, #0]
 8005aae:	f023 030f 	bic.w	r3, r3, #15
 8005ab2:	430b      	orrs	r3, r1
 8005ab4:	6013      	str	r3, [r2, #0]
 8005ab6:	6813      	ldr	r3, [r2, #0]
 8005ab8:	f003 030f 	and.w	r3, r3, #15
 8005abc:	428b      	cmp	r3, r1
 8005abe:	f47f af58 	bne.w	8005972 <HAL_RCC_ClockConfig+0xa>
 8005ac2:	e760      	b.n	8005986 <HAL_RCC_ClockConfig+0x1e>
 8005ac4:	4936      	ldr	r1, [pc, #216]	; (8005ba0 <HAL_RCC_ClockConfig+0x238>)
 8005ac6:	6920      	ldr	r0, [r4, #16]
 8005ac8:	698a      	ldr	r2, [r1, #24]
 8005aca:	f002 0270 	and.w	r2, r2, #112	; 0x70
 8005ace:	4290      	cmp	r0, r2
 8005ad0:	f67f af5d 	bls.w	800598e <HAL_RCC_ClockConfig+0x26>
 8005ad4:	698a      	ldr	r2, [r1, #24]
 8005ad6:	f022 0270 	bic.w	r2, r2, #112	; 0x70
 8005ada:	4302      	orrs	r2, r0
 8005adc:	618a      	str	r2, [r1, #24]
 8005ade:	e756      	b.n	800598e <HAL_RCC_ClockConfig+0x26>
 8005ae0:	4b2f      	ldr	r3, [pc, #188]	; (8005ba0 <HAL_RCC_ClockConfig+0x238>)
 8005ae2:	68a1      	ldr	r1, [r4, #8]
 8005ae4:	699a      	ldr	r2, [r3, #24]
 8005ae6:	f422 6270 	bic.w	r2, r2, #3840	; 0xf00
 8005aea:	430a      	orrs	r2, r1
 8005aec:	619a      	str	r2, [r3, #24]
 8005aee:	6861      	ldr	r1, [r4, #4]
 8005af0:	681a      	ldr	r2, [r3, #0]
 8005af2:	2902      	cmp	r1, #2
 8005af4:	d11d      	bne.n	8005b32 <HAL_RCC_ClockConfig+0x1ca>
 8005af6:	f412 3f00 	tst.w	r2, #131072	; 0x20000
 8005afa:	f43f af3a 	beq.w	8005972 <HAL_RCC_ClockConfig+0xa>
 8005afe:	691a      	ldr	r2, [r3, #16]
 8005b00:	f241 3888 	movw	r8, #5000	; 0x1388
 8005b04:	4f26      	ldr	r7, [pc, #152]	; (8005ba0 <HAL_RCC_ClockConfig+0x238>)
 8005b06:	f022 0207 	bic.w	r2, r2, #7
 8005b0a:	430a      	orrs	r2, r1
 8005b0c:	611a      	str	r2, [r3, #16]
 8005b0e:	f7fd fadf 	bl	80030d0 <HAL_GetTick>
 8005b12:	4606      	mov	r6, r0
 8005b14:	693b      	ldr	r3, [r7, #16]
 8005b16:	6862      	ldr	r2, [r4, #4]
 8005b18:	f003 0338 	and.w	r3, r3, #56	; 0x38
 8005b1c:	ebb3 0fc2 	cmp.w	r3, r2, lsl #3
 8005b20:	f43f af6f 	beq.w	8005a02 <HAL_RCC_ClockConfig+0x9a>
 8005b24:	f7fd fad4 	bl	80030d0 <HAL_GetTick>
 8005b28:	1b80      	subs	r0, r0, r6
 8005b2a:	4540      	cmp	r0, r8
 8005b2c:	d9f2      	bls.n	8005b14 <HAL_RCC_ClockConfig+0x1ac>
 8005b2e:	2003      	movs	r0, #3
 8005b30:	e720      	b.n	8005974 <HAL_RCC_ClockConfig+0xc>
 8005b32:	2903      	cmp	r1, #3
 8005b34:	d102      	bne.n	8005b3c <HAL_RCC_ClockConfig+0x1d4>
 8005b36:	f012 7f00 	tst.w	r2, #33554432	; 0x2000000
 8005b3a:	e7de      	b.n	8005afa <HAL_RCC_ClockConfig+0x192>
 8005b3c:	2901      	cmp	r1, #1
 8005b3e:	d102      	bne.n	8005b46 <HAL_RCC_ClockConfig+0x1de>
 8005b40:	f412 7f80 	tst.w	r2, #256	; 0x100
 8005b44:	e7d9      	b.n	8005afa <HAL_RCC_ClockConfig+0x192>
 8005b46:	f012 0f04 	tst.w	r2, #4
 8005b4a:	e7d6      	b.n	8005afa <HAL_RCC_ClockConfig+0x192>
 8005b4c:	4914      	ldr	r1, [pc, #80]	; (8005ba0 <HAL_RCC_ClockConfig+0x238>)
 8005b4e:	68e0      	ldr	r0, [r4, #12]
 8005b50:	698a      	ldr	r2, [r1, #24]
 8005b52:	f002 020f 	and.w	r2, r2, #15
 8005b56:	4290      	cmp	r0, r2
 8005b58:	f4bf af57 	bcs.w	8005a0a <HAL_RCC_ClockConfig+0xa2>
 8005b5c:	698a      	ldr	r2, [r1, #24]
 8005b5e:	f022 020f 	bic.w	r2, r2, #15
 8005b62:	4302      	orrs	r2, r0
 8005b64:	618a      	str	r2, [r1, #24]
 8005b66:	e750      	b.n	8005a0a <HAL_RCC_ClockConfig+0xa2>
 8005b68:	680a      	ldr	r2, [r1, #0]
 8005b6a:	f022 020f 	bic.w	r2, r2, #15
 8005b6e:	432a      	orrs	r2, r5
 8005b70:	600a      	str	r2, [r1, #0]
 8005b72:	680a      	ldr	r2, [r1, #0]
 8005b74:	f002 020f 	and.w	r2, r2, #15
 8005b78:	42aa      	cmp	r2, r5
 8005b7a:	f47f aefa 	bne.w	8005972 <HAL_RCC_ClockConfig+0xa>
 8005b7e:	e74b      	b.n	8005a18 <HAL_RCC_ClockConfig+0xb0>
 8005b80:	4907      	ldr	r1, [pc, #28]	; (8005ba0 <HAL_RCC_ClockConfig+0x238>)
 8005b82:	6920      	ldr	r0, [r4, #16]
 8005b84:	698a      	ldr	r2, [r1, #24]
 8005b86:	f002 0270 	and.w	r2, r2, #112	; 0x70
 8005b8a:	4290      	cmp	r0, r2
 8005b8c:	f4bf af47 	bcs.w	8005a1e <HAL_RCC_ClockConfig+0xb6>
 8005b90:	698a      	ldr	r2, [r1, #24]
 8005b92:	f022 0270 	bic.w	r2, r2, #112	; 0x70
 8005b96:	4302      	orrs	r2, r0
 8005b98:	618a      	str	r2, [r1, #24]
 8005b9a:	e740      	b.n	8005a1e <HAL_RCC_ClockConfig+0xb6>
 8005b9c:	52002000 	.word	0x52002000
 8005ba0:	58024400 	.word	0x58024400
 8005ba4:	0800f699 	.word	0x0800f699
 8005ba8:	24000078 	.word	0x24000078
 8005bac:	24000074 	.word	0x24000074
 8005bb0:	24000080 	.word	0x24000080

08005bb4 <RCCEx_PLL2_Config>:
 8005bb4:	b5f8      	push	{r3, r4, r5, r6, r7, lr}
 8005bb6:	4c3a      	ldr	r4, [pc, #232]	; (8005ca0 <RCCEx_PLL2_Config+0xec>)
 8005bb8:	4606      	mov	r6, r0
 8005bba:	460d      	mov	r5, r1
 8005bbc:	6aa3      	ldr	r3, [r4, #40]	; 0x28
 8005bbe:	f003 0303 	and.w	r3, r3, #3
 8005bc2:	2b03      	cmp	r3, #3
 8005bc4:	d069      	beq.n	8005c9a <RCCEx_PLL2_Config+0xe6>
 8005bc6:	6823      	ldr	r3, [r4, #0]
 8005bc8:	f023 6380 	bic.w	r3, r3, #67108864	; 0x4000000
 8005bcc:	6023      	str	r3, [r4, #0]
 8005bce:	f7fd fa7f 	bl	80030d0 <HAL_GetTick>
 8005bd2:	4607      	mov	r7, r0
 8005bd4:	6823      	ldr	r3, [r4, #0]
 8005bd6:	011a      	lsls	r2, r3, #4
 8005bd8:	d44b      	bmi.n	8005c72 <RCCEx_PLL2_Config+0xbe>
 8005bda:	6aa3      	ldr	r3, [r4, #40]	; 0x28
 8005bdc:	6832      	ldr	r2, [r6, #0]
 8005bde:	f423 337c 	bic.w	r3, r3, #258048	; 0x3f000
 8005be2:	ea43 3302 	orr.w	r3, r3, r2, lsl #12
 8005be6:	62a3      	str	r3, [r4, #40]	; 0x28
 8005be8:	68b3      	ldr	r3, [r6, #8]
 8005bea:	68f2      	ldr	r2, [r6, #12]
 8005bec:	3b01      	subs	r3, #1
 8005bee:	3a01      	subs	r2, #1
 8005bf0:	025b      	lsls	r3, r3, #9
 8005bf2:	0412      	lsls	r2, r2, #16
 8005bf4:	b29b      	uxth	r3, r3
 8005bf6:	f402 02fe 	and.w	r2, r2, #8323072	; 0x7f0000
 8005bfa:	4313      	orrs	r3, r2
 8005bfc:	6872      	ldr	r2, [r6, #4]
 8005bfe:	3a01      	subs	r2, #1
 8005c00:	f3c2 0208 	ubfx	r2, r2, #0, #9
 8005c04:	4313      	orrs	r3, r2
 8005c06:	6932      	ldr	r2, [r6, #16]
 8005c08:	3a01      	subs	r2, #1
 8005c0a:	0612      	lsls	r2, r2, #24
 8005c0c:	f002 42fe 	and.w	r2, r2, #2130706432	; 0x7f000000
 8005c10:	4313      	orrs	r3, r2
 8005c12:	63a3      	str	r3, [r4, #56]	; 0x38
 8005c14:	6ae3      	ldr	r3, [r4, #44]	; 0x2c
 8005c16:	6972      	ldr	r2, [r6, #20]
 8005c18:	f023 03c0 	bic.w	r3, r3, #192	; 0xc0
 8005c1c:	4313      	orrs	r3, r2
 8005c1e:	62e3      	str	r3, [r4, #44]	; 0x2c
 8005c20:	6ae3      	ldr	r3, [r4, #44]	; 0x2c
 8005c22:	69b2      	ldr	r2, [r6, #24]
 8005c24:	f023 0320 	bic.w	r3, r3, #32
 8005c28:	4313      	orrs	r3, r2
 8005c2a:	62e3      	str	r3, [r4, #44]	; 0x2c
 8005c2c:	6ae3      	ldr	r3, [r4, #44]	; 0x2c
 8005c2e:	f023 0310 	bic.w	r3, r3, #16
 8005c32:	62e3      	str	r3, [r4, #44]	; 0x2c
 8005c34:	6be3      	ldr	r3, [r4, #60]	; 0x3c
 8005c36:	69f2      	ldr	r2, [r6, #28]
 8005c38:	f423 437f 	bic.w	r3, r3, #65280	; 0xff00
 8005c3c:	f023 03f8 	bic.w	r3, r3, #248	; 0xf8
 8005c40:	ea43 03c2 	orr.w	r3, r3, r2, lsl #3
 8005c44:	63e3      	str	r3, [r4, #60]	; 0x3c
 8005c46:	6ae3      	ldr	r3, [r4, #44]	; 0x2c
 8005c48:	f043 0310 	orr.w	r3, r3, #16
 8005c4c:	62e3      	str	r3, [r4, #44]	; 0x2c
 8005c4e:	6ae3      	ldr	r3, [r4, #44]	; 0x2c
 8005c50:	b9b5      	cbnz	r5, 8005c80 <RCCEx_PLL2_Config+0xcc>
 8005c52:	f443 2300 	orr.w	r3, r3, #524288	; 0x80000
 8005c56:	62e3      	str	r3, [r4, #44]	; 0x2c
 8005c58:	4c11      	ldr	r4, [pc, #68]	; (8005ca0 <RCCEx_PLL2_Config+0xec>)
 8005c5a:	6823      	ldr	r3, [r4, #0]
 8005c5c:	f043 6380 	orr.w	r3, r3, #67108864	; 0x4000000
 8005c60:	6023      	str	r3, [r4, #0]
 8005c62:	f7fd fa35 	bl	80030d0 <HAL_GetTick>
 8005c66:	4605      	mov	r5, r0
 8005c68:	6823      	ldr	r3, [r4, #0]
 8005c6a:	011b      	lsls	r3, r3, #4
 8005c6c:	d50f      	bpl.n	8005c8e <RCCEx_PLL2_Config+0xda>
 8005c6e:	2000      	movs	r0, #0
 8005c70:	e005      	b.n	8005c7e <RCCEx_PLL2_Config+0xca>
 8005c72:	f7fd fa2d 	bl	80030d0 <HAL_GetTick>
 8005c76:	1bc0      	subs	r0, r0, r7
 8005c78:	2802      	cmp	r0, #2
 8005c7a:	d9ab      	bls.n	8005bd4 <RCCEx_PLL2_Config+0x20>
 8005c7c:	2003      	movs	r0, #3
 8005c7e:	bdf8      	pop	{r3, r4, r5, r6, r7, pc}
 8005c80:	2d01      	cmp	r5, #1
 8005c82:	bf0c      	ite	eq
 8005c84:	f443 1380 	orreq.w	r3, r3, #1048576	; 0x100000
 8005c88:	f443 1300 	orrne.w	r3, r3, #2097152	; 0x200000
 8005c8c:	e7e3      	b.n	8005c56 <RCCEx_PLL2_Config+0xa2>
 8005c8e:	f7fd fa1f 	bl	80030d0 <HAL_GetTick>
 8005c92:	1b40      	subs	r0, r0, r5
 8005c94:	2802      	cmp	r0, #2
 8005c96:	d9e7      	bls.n	8005c68 <RCCEx_PLL2_Config+0xb4>
 8005c98:	e7f0      	b.n	8005c7c <RCCEx_PLL2_Config+0xc8>
 8005c9a:	2001      	movs	r0, #1
 8005c9c:	e7ef      	b.n	8005c7e <RCCEx_PLL2_Config+0xca>
 8005c9e:	bf00      	nop
 8005ca0:	58024400 	.word	0x58024400

08005ca4 <RCCEx_PLL3_Config>:
 8005ca4:	b5f8      	push	{r3, r4, r5, r6, r7, lr}
 8005ca6:	4c3a      	ldr	r4, [pc, #232]	; (8005d90 <RCCEx_PLL3_Config+0xec>)
 8005ca8:	4606      	mov	r6, r0
 8005caa:	460d      	mov	r5, r1
 8005cac:	6aa3      	ldr	r3, [r4, #40]	; 0x28
 8005cae:	f003 0303 	and.w	r3, r3, #3
 8005cb2:	2b03      	cmp	r3, #3
 8005cb4:	d069      	beq.n	8005d8a <RCCEx_PLL3_Config+0xe6>
 8005cb6:	6823      	ldr	r3, [r4, #0]
 8005cb8:	f023 5380 	bic.w	r3, r3, #268435456	; 0x10000000
 8005cbc:	6023      	str	r3, [r4, #0]
 8005cbe:	f7fd fa07 	bl	80030d0 <HAL_GetTick>
 8005cc2:	4607      	mov	r7, r0
 8005cc4:	6823      	ldr	r3, [r4, #0]
 8005cc6:	009a      	lsls	r2, r3, #2
 8005cc8:	d44b      	bmi.n	8005d62 <RCCEx_PLL3_Config+0xbe>
 8005cca:	6aa3      	ldr	r3, [r4, #40]	; 0x28
 8005ccc:	6832      	ldr	r2, [r6, #0]
 8005cce:	f023 737c 	bic.w	r3, r3, #66060288	; 0x3f00000
 8005cd2:	ea43 5302 	orr.w	r3, r3, r2, lsl #20
 8005cd6:	62a3      	str	r3, [r4, #40]	; 0x28
 8005cd8:	68b3      	ldr	r3, [r6, #8]
 8005cda:	68f2      	ldr	r2, [r6, #12]
 8005cdc:	3b01      	subs	r3, #1
 8005cde:	3a01      	subs	r2, #1
 8005ce0:	025b      	lsls	r3, r3, #9
 8005ce2:	0412      	lsls	r2, r2, #16
 8005ce4:	b29b      	uxth	r3, r3
 8005ce6:	f402 02fe 	and.w	r2, r2, #8323072	; 0x7f0000
 8005cea:	4313      	orrs	r3, r2
 8005cec:	6872      	ldr	r2, [r6, #4]
 8005cee:	3a01      	subs	r2, #1
 8005cf0:	f3c2 0208 	ubfx	r2, r2, #0, #9
 8005cf4:	4313      	orrs	r3, r2
 8005cf6:	6932      	ldr	r2, [r6, #16]
 8005cf8:	3a01      	subs	r2, #1
 8005cfa:	0612      	lsls	r2, r2, #24
 8005cfc:	f002 42fe 	and.w	r2, r2, #2130706432	; 0x7f000000
 8005d00:	4313      	orrs	r3, r2
 8005d02:	6423      	str	r3, [r4, #64]	; 0x40
 8005d04:	6ae3      	ldr	r3, [r4, #44]	; 0x2c
 8005d06:	6972      	ldr	r2, [r6, #20]
 8005d08:	f423 6340 	bic.w	r3, r3, #3072	; 0xc00
 8005d0c:	4313      	orrs	r3, r2
 8005d0e:	62e3      	str	r3, [r4, #44]	; 0x2c
 8005d10:	6ae3      	ldr	r3, [r4, #44]	; 0x2c
 8005d12:	69b2      	ldr	r2, [r6, #24]
 8005d14:	f423 7300 	bic.w	r3, r3, #512	; 0x200
 8005d18:	4313      	orrs	r3, r2
 8005d1a:	62e3      	str	r3, [r4, #44]	; 0x2c
 8005d1c:	6ae3      	ldr	r3, [r4, #44]	; 0x2c
 8005d1e:	f423 7380 	bic.w	r3, r3, #256	; 0x100
 8005d22:	62e3      	str	r3, [r4, #44]	; 0x2c
 8005d24:	6c63      	ldr	r3, [r4, #68]	; 0x44
 8005d26:	69f2      	ldr	r2, [r6, #28]
 8005d28:	f423 437f 	bic.w	r3, r3, #65280	; 0xff00
 8005d2c:	f023 03f8 	bic.w	r3, r3, #248	; 0xf8
 8005d30:	ea43 03c2 	orr.w	r3, r3, r2, lsl #3
 8005d34:	6463      	str	r3, [r4, #68]	; 0x44
 8005d36:	6ae3      	ldr	r3, [r4, #44]	; 0x2c
 8005d38:	f443 7380 	orr.w	r3, r3, #256	; 0x100
 8005d3c:	62e3      	str	r3, [r4, #44]	; 0x2c
 8005d3e:	6ae3      	ldr	r3, [r4, #44]	; 0x2c
 8005d40:	b9b5      	cbnz	r5, 8005d70 <RCCEx_PLL3_Config+0xcc>
 8005d42:	f443 0380 	orr.w	r3, r3, #4194304	; 0x400000
 8005d46:	62e3      	str	r3, [r4, #44]	; 0x2c
 8005d48:	4c11      	ldr	r4, [pc, #68]	; (8005d90 <RCCEx_PLL3_Config+0xec>)
 8005d4a:	6823      	ldr	r3, [r4, #0]
 8005d4c:	f043 5380 	orr.w	r3, r3, #268435456	; 0x10000000
 8005d50:	6023      	str	r3, [r4, #0]
 8005d52:	f7fd f9bd 	bl	80030d0 <HAL_GetTick>
 8005d56:	4605      	mov	r5, r0
 8005d58:	6823      	ldr	r3, [r4, #0]
 8005d5a:	009b      	lsls	r3, r3, #2
 8005d5c:	d50f      	bpl.n	8005d7e <RCCEx_PLL3_Config+0xda>
 8005d5e:	2000      	movs	r0, #0
 8005d60:	e005      	b.n	8005d6e <RCCEx_PLL3_Config+0xca>
 8005d62:	f7fd f9b5 	bl	80030d0 <HAL_GetTick>
 8005d66:	1bc0      	subs	r0, r0, r7
 8005d68:	2802      	cmp	r0, #2
 8005d6a:	d9ab      	bls.n	8005cc4 <RCCEx_PLL3_Config+0x20>
 8005d6c:	2003      	movs	r0, #3
 8005d6e:	bdf8      	pop	{r3, r4, r5, r6, r7, pc}
 8005d70:	2d01      	cmp	r5, #1
 8005d72:	bf0c      	ite	eq
 8005d74:	f443 0300 	orreq.w	r3, r3, #8388608	; 0x800000
 8005d78:	f043 7380 	orrne.w	r3, r3, #16777216	; 0x1000000
 8005d7c:	e7e3      	b.n	8005d46 <RCCEx_PLL3_Config+0xa2>
 8005d7e:	f7fd f9a7 	bl	80030d0 <HAL_GetTick>
 8005d82:	1b40      	subs	r0, r0, r5
 8005d84:	2802      	cmp	r0, #2
 8005d86:	d9e7      	bls.n	8005d58 <RCCEx_PLL3_Config+0xb4>
 8005d88:	e7f0      	b.n	8005d6c <RCCEx_PLL3_Config+0xc8>
 8005d8a:	2001      	movs	r0, #1
 8005d8c:	e7ef      	b.n	8005d6e <RCCEx_PLL3_Config+0xca>
 8005d8e:	bf00      	nop
 8005d90:	58024400 	.word	0x58024400

08005d94 <HAL_RCCEx_PeriphCLKConfig>:
 8005d94:	e92d 43f8 	stmdb	sp!, {r3, r4, r5, r6, r7, r8, r9, lr}
 8005d98:	6803      	ldr	r3, [r0, #0]
 8005d9a:	4605      	mov	r5, r0
 8005d9c:	0118      	lsls	r0, r3, #4
 8005d9e:	f003 6600 	and.w	r6, r3, #134217728	; 0x8000000
 8005da2:	d509      	bpl.n	8005db8 <HAL_RCCEx_PeriphCLKConfig+0x24>
 8005da4:	6eab      	ldr	r3, [r5, #104]	; 0x68
 8005da6:	f5b3 1f00 	cmp.w	r3, #2097152	; 0x200000
 8005daa:	d02f      	beq.n	8005e0c <HAL_RCCEx_PeriphCLKConfig+0x78>
 8005dac:	d813      	bhi.n	8005dd6 <HAL_RCCEx_PeriphCLKConfig+0x42>
 8005dae:	b1f3      	cbz	r3, 8005dee <HAL_RCCEx_PeriphCLKConfig+0x5a>
 8005db0:	f5b3 1f80 	cmp.w	r3, #1048576	; 0x100000
 8005db4:	d021      	beq.n	8005dfa <HAL_RCCEx_PeriphCLKConfig+0x66>
 8005db6:	2601      	movs	r6, #1
 8005db8:	682b      	ldr	r3, [r5, #0]
 8005dba:	05d9      	lsls	r1, r3, #23
 8005dbc:	f140 80ed 	bpl.w	8005f9a <HAL_RCCEx_PeriphCLKConfig+0x206>
 8005dc0:	6dab      	ldr	r3, [r5, #88]	; 0x58
 8005dc2:	2b04      	cmp	r3, #4
 8005dc4:	f200 80e8 	bhi.w	8005f98 <HAL_RCCEx_PeriphCLKConfig+0x204>
 8005dc8:	e8df f013 	tbh	[pc, r3, lsl #1]
 8005dcc:	002d0026 	.word	0x002d0026
 8005dd0:	002b00e0 	.word	0x002b00e0
 8005dd4:	002b      	.short	0x002b
 8005dd6:	f5b3 1f40 	cmp.w	r3, #3145728	; 0x300000
 8005dda:	d1ec      	bne.n	8005db6 <HAL_RCCEx_PeriphCLKConfig+0x22>
 8005ddc:	4aa9      	ldr	r2, [pc, #676]	; (8006084 <HAL_RCCEx_PeriphCLKConfig+0x2f0>)
 8005dde:	2600      	movs	r6, #0
 8005de0:	6ea9      	ldr	r1, [r5, #104]	; 0x68
 8005de2:	6d13      	ldr	r3, [r2, #80]	; 0x50
 8005de4:	f423 1340 	bic.w	r3, r3, #3145728	; 0x300000
 8005de8:	430b      	orrs	r3, r1
 8005dea:	6513      	str	r3, [r2, #80]	; 0x50
 8005dec:	e7e4      	b.n	8005db8 <HAL_RCCEx_PeriphCLKConfig+0x24>
 8005dee:	4aa5      	ldr	r2, [pc, #660]	; (8006084 <HAL_RCCEx_PeriphCLKConfig+0x2f0>)
 8005df0:	6ad3      	ldr	r3, [r2, #44]	; 0x2c
 8005df2:	f443 3300 	orr.w	r3, r3, #131072	; 0x20000
 8005df6:	62d3      	str	r3, [r2, #44]	; 0x2c
 8005df8:	e7f0      	b.n	8005ddc <HAL_RCCEx_PeriphCLKConfig+0x48>
 8005dfa:	2102      	movs	r1, #2
 8005dfc:	f105 0008 	add.w	r0, r5, #8
 8005e00:	f7ff fed8 	bl	8005bb4 <RCCEx_PLL2_Config>
 8005e04:	4606      	mov	r6, r0
 8005e06:	2800      	cmp	r0, #0
 8005e08:	d1d6      	bne.n	8005db8 <HAL_RCCEx_PeriphCLKConfig+0x24>
 8005e0a:	e7e7      	b.n	8005ddc <HAL_RCCEx_PeriphCLKConfig+0x48>
 8005e0c:	2102      	movs	r1, #2
 8005e0e:	f105 0028 	add.w	r0, r5, #40	; 0x28
 8005e12:	f7ff ff47 	bl	8005ca4 <RCCEx_PLL3_Config>
 8005e16:	e7f5      	b.n	8005e04 <HAL_RCCEx_PeriphCLKConfig+0x70>
 8005e18:	4a9a      	ldr	r2, [pc, #616]	; (8006084 <HAL_RCCEx_PeriphCLKConfig+0x2f0>)
 8005e1a:	6ad3      	ldr	r3, [r2, #44]	; 0x2c
 8005e1c:	f443 3300 	orr.w	r3, r3, #131072	; 0x20000
 8005e20:	62d3      	str	r3, [r2, #44]	; 0x2c
 8005e22:	4634      	mov	r4, r6
 8005e24:	e005      	b.n	8005e32 <HAL_RCCEx_PeriphCLKConfig+0x9e>
 8005e26:	2100      	movs	r1, #0
 8005e28:	f105 0008 	add.w	r0, r5, #8
 8005e2c:	f7ff fec2 	bl	8005bb4 <RCCEx_PLL2_Config>
 8005e30:	4604      	mov	r4, r0
 8005e32:	2c00      	cmp	r4, #0
 8005e34:	f040 80b3 	bne.w	8005f9e <HAL_RCCEx_PeriphCLKConfig+0x20a>
 8005e38:	4a92      	ldr	r2, [pc, #584]	; (8006084 <HAL_RCCEx_PeriphCLKConfig+0x2f0>)
 8005e3a:	6da9      	ldr	r1, [r5, #88]	; 0x58
 8005e3c:	6d13      	ldr	r3, [r2, #80]	; 0x50
 8005e3e:	f023 0307 	bic.w	r3, r3, #7
 8005e42:	430b      	orrs	r3, r1
 8005e44:	6513      	str	r3, [r2, #80]	; 0x50
 8005e46:	682b      	ldr	r3, [r5, #0]
 8005e48:	059a      	lsls	r2, r3, #22
 8005e4a:	d50d      	bpl.n	8005e68 <HAL_RCCEx_PeriphCLKConfig+0xd4>
 8005e4c:	6deb      	ldr	r3, [r5, #92]	; 0x5c
 8005e4e:	2b80      	cmp	r3, #128	; 0x80
 8005e50:	f000 80c3 	beq.w	8005fda <HAL_RCCEx_PeriphCLKConfig+0x246>
 8005e54:	f200 80a5 	bhi.w	8005fa2 <HAL_RCCEx_PeriphCLKConfig+0x20e>
 8005e58:	2b00      	cmp	r3, #0
 8005e5a:	f000 80b1 	beq.w	8005fc0 <HAL_RCCEx_PeriphCLKConfig+0x22c>
 8005e5e:	2b40      	cmp	r3, #64	; 0x40
 8005e60:	f000 80b4 	beq.w	8005fcc <HAL_RCCEx_PeriphCLKConfig+0x238>
 8005e64:	2601      	movs	r6, #1
 8005e66:	4634      	mov	r4, r6
 8005e68:	682b      	ldr	r3, [r5, #0]
 8005e6a:	055b      	lsls	r3, r3, #21
 8005e6c:	d510      	bpl.n	8005e90 <HAL_RCCEx_PeriphCLKConfig+0xfc>
 8005e6e:	f8d5 30a8 	ldr.w	r3, [r5, #168]	; 0xa8
 8005e72:	f5b3 0f80 	cmp.w	r3, #4194304	; 0x400000
 8005e76:	f000 80d6 	beq.w	8006026 <HAL_RCCEx_PeriphCLKConfig+0x292>
 8005e7a:	f200 80b6 	bhi.w	8005fea <HAL_RCCEx_PeriphCLKConfig+0x256>
 8005e7e:	2b00      	cmp	r3, #0
 8005e80:	f000 80c4 	beq.w	800600c <HAL_RCCEx_PeriphCLKConfig+0x278>
 8005e84:	f5b3 1f00 	cmp.w	r3, #2097152	; 0x200000
 8005e88:	f000 80c6 	beq.w	8006018 <HAL_RCCEx_PeriphCLKConfig+0x284>
 8005e8c:	2601      	movs	r6, #1
 8005e8e:	4634      	mov	r4, r6
 8005e90:	682b      	ldr	r3, [r5, #0]
 8005e92:	051f      	lsls	r7, r3, #20
 8005e94:	d510      	bpl.n	8005eb8 <HAL_RCCEx_PeriphCLKConfig+0x124>
 8005e96:	f8d5 30ac 	ldr.w	r3, [r5, #172]	; 0xac
 8005e9a:	f1b3 7f00 	cmp.w	r3, #33554432	; 0x2000000
 8005e9e:	f000 80e8 	beq.w	8006072 <HAL_RCCEx_PeriphCLKConfig+0x2de>
 8005ea2:	f200 80c8 	bhi.w	8006036 <HAL_RCCEx_PeriphCLKConfig+0x2a2>
 8005ea6:	2b00      	cmp	r3, #0
 8005ea8:	f000 80d6 	beq.w	8006058 <HAL_RCCEx_PeriphCLKConfig+0x2c4>
 8005eac:	f1b3 7f80 	cmp.w	r3, #16777216	; 0x1000000
 8005eb0:	f000 80d8 	beq.w	8006064 <HAL_RCCEx_PeriphCLKConfig+0x2d0>
 8005eb4:	2601      	movs	r6, #1
 8005eb6:	4634      	mov	r4, r6
 8005eb8:	682b      	ldr	r3, [r5, #0]
 8005eba:	0198      	lsls	r0, r3, #6
 8005ebc:	d50d      	bpl.n	8005eda <HAL_RCCEx_PeriphCLKConfig+0x146>
 8005ebe:	6ceb      	ldr	r3, [r5, #76]	; 0x4c
 8005ec0:	2b20      	cmp	r3, #32
 8005ec2:	f000 80f3 	beq.w	80060ac <HAL_RCCEx_PeriphCLKConfig+0x318>
 8005ec6:	f200 80df 	bhi.w	8006088 <HAL_RCCEx_PeriphCLKConfig+0x2f4>
 8005eca:	2b00      	cmp	r3, #0
 8005ecc:	f000 80df 	beq.w	800608e <HAL_RCCEx_PeriphCLKConfig+0x2fa>
 8005ed0:	2b10      	cmp	r3, #16
 8005ed2:	f000 80e5 	beq.w	80060a0 <HAL_RCCEx_PeriphCLKConfig+0x30c>
 8005ed6:	2601      	movs	r6, #1
 8005ed8:	4634      	mov	r4, r6
 8005eda:	682b      	ldr	r3, [r5, #0]
 8005edc:	04d9      	lsls	r1, r3, #19
 8005ede:	d50f      	bpl.n	8005f00 <HAL_RCCEx_PeriphCLKConfig+0x16c>
 8005ee0:	6e2b      	ldr	r3, [r5, #96]	; 0x60
 8005ee2:	f5b3 5f00 	cmp.w	r3, #8192	; 0x2000
 8005ee6:	f000 8107 	beq.w	80060f8 <HAL_RCCEx_PeriphCLKConfig+0x364>
 8005eea:	f200 80e8 	bhi.w	80060be <HAL_RCCEx_PeriphCLKConfig+0x32a>
 8005eee:	2b00      	cmp	r3, #0
 8005ef0:	f000 80f5 	beq.w	80060de <HAL_RCCEx_PeriphCLKConfig+0x34a>
 8005ef4:	f5b3 5f80 	cmp.w	r3, #4096	; 0x1000
 8005ef8:	f000 80f7 	beq.w	80060ea <HAL_RCCEx_PeriphCLKConfig+0x356>
 8005efc:	2601      	movs	r6, #1
 8005efe:	4634      	mov	r4, r6
 8005f00:	682b      	ldr	r3, [r5, #0]
 8005f02:	049a      	lsls	r2, r3, #18
 8005f04:	d50f      	bpl.n	8005f26 <HAL_RCCEx_PeriphCLKConfig+0x192>
 8005f06:	6e6b      	ldr	r3, [r5, #100]	; 0x64
 8005f08:	f5b3 3f00 	cmp.w	r3, #131072	; 0x20000
 8005f0c:	f000 8115 	beq.w	800613a <HAL_RCCEx_PeriphCLKConfig+0x3a6>
 8005f10:	f200 80fa 	bhi.w	8006108 <HAL_RCCEx_PeriphCLKConfig+0x374>
 8005f14:	2b00      	cmp	r3, #0
 8005f16:	f000 8100 	beq.w	800611a <HAL_RCCEx_PeriphCLKConfig+0x386>
 8005f1a:	f5b3 3f80 	cmp.w	r3, #65536	; 0x10000
 8005f1e:	f000 8105 	beq.w	800612c <HAL_RCCEx_PeriphCLKConfig+0x398>
 8005f22:	2601      	movs	r6, #1
 8005f24:	4634      	mov	r4, r6
 8005f26:	682b      	ldr	r3, [r5, #0]
 8005f28:	045b      	lsls	r3, r3, #17
 8005f2a:	d510      	bpl.n	8005f4e <HAL_RCCEx_PeriphCLKConfig+0x1ba>
 8005f2c:	f8d5 30b0 	ldr.w	r3, [r5, #176]	; 0xb0
 8005f30:	f1b3 5f00 	cmp.w	r3, #536870912	; 0x20000000
 8005f34:	f000 8123 	beq.w	800617e <HAL_RCCEx_PeriphCLKConfig+0x3ea>
 8005f38:	f200 8107 	bhi.w	800614a <HAL_RCCEx_PeriphCLKConfig+0x3b6>
 8005f3c:	2b00      	cmp	r3, #0
 8005f3e:	f000 810d 	beq.w	800615c <HAL_RCCEx_PeriphCLKConfig+0x3c8>
 8005f42:	f1b3 5f80 	cmp.w	r3, #268435456	; 0x10000000
 8005f46:	f000 8113 	beq.w	8006170 <HAL_RCCEx_PeriphCLKConfig+0x3dc>
 8005f4a:	2601      	movs	r6, #1
 8005f4c:	4634      	mov	r4, r6
 8005f4e:	682b      	ldr	r3, [r5, #0]
 8005f50:	041f      	lsls	r7, r3, #16
 8005f52:	d50d      	bpl.n	8005f70 <HAL_RCCEx_PeriphCLKConfig+0x1dc>
 8005f54:	6f2b      	ldr	r3, [r5, #112]	; 0x70
 8005f56:	f1b3 5f80 	cmp.w	r3, #268435456	; 0x10000000
 8005f5a:	f000 8118 	beq.w	800618e <HAL_RCCEx_PeriphCLKConfig+0x3fa>
 8005f5e:	f1b3 5f00 	cmp.w	r3, #536870912	; 0x20000000
 8005f62:	f000 8122 	beq.w	80061aa <HAL_RCCEx_PeriphCLKConfig+0x416>
 8005f66:	2b00      	cmp	r3, #0
 8005f68:	f000 8116 	beq.w	8006198 <HAL_RCCEx_PeriphCLKConfig+0x404>
 8005f6c:	2601      	movs	r6, #1
 8005f6e:	4634      	mov	r4, r6
 8005f70:	682b      	ldr	r3, [r5, #0]
 8005f72:	01d8      	lsls	r0, r3, #7
 8005f74:	f140 8130 	bpl.w	80061d8 <HAL_RCCEx_PeriphCLKConfig+0x444>
 8005f78:	6cab      	ldr	r3, [r5, #72]	; 0x48
 8005f7a:	2b03      	cmp	r3, #3
 8005f7c:	f200 8171 	bhi.w	8006262 <HAL_RCCEx_PeriphCLKConfig+0x4ce>
 8005f80:	e8df f013 	tbh	[pc, r3, lsl #1]
 8005f84:	011c0121 	.word	0x011c0121
 8005f88:	01210168 	.word	0x01210168
 8005f8c:	2100      	movs	r1, #0
 8005f8e:	f105 0028 	add.w	r0, r5, #40	; 0x28
 8005f92:	f7ff fe87 	bl	8005ca4 <RCCEx_PLL3_Config>
 8005f96:	e74b      	b.n	8005e30 <HAL_RCCEx_PeriphCLKConfig+0x9c>
 8005f98:	2601      	movs	r6, #1
 8005f9a:	4634      	mov	r4, r6
 8005f9c:	e753      	b.n	8005e46 <HAL_RCCEx_PeriphCLKConfig+0xb2>
 8005f9e:	4626      	mov	r6, r4
 8005fa0:	e751      	b.n	8005e46 <HAL_RCCEx_PeriphCLKConfig+0xb2>
 8005fa2:	2bc0      	cmp	r3, #192	; 0xc0
 8005fa4:	d003      	beq.n	8005fae <HAL_RCCEx_PeriphCLKConfig+0x21a>
 8005fa6:	f5b3 7f80 	cmp.w	r3, #256	; 0x100
 8005faa:	f47f af5b 	bne.w	8005e64 <HAL_RCCEx_PeriphCLKConfig+0xd0>
 8005fae:	b9d4      	cbnz	r4, 8005fe6 <HAL_RCCEx_PeriphCLKConfig+0x252>
 8005fb0:	4a34      	ldr	r2, [pc, #208]	; (8006084 <HAL_RCCEx_PeriphCLKConfig+0x2f0>)
 8005fb2:	6de9      	ldr	r1, [r5, #92]	; 0x5c
 8005fb4:	6d13      	ldr	r3, [r2, #80]	; 0x50
 8005fb6:	f423 73e0 	bic.w	r3, r3, #448	; 0x1c0
 8005fba:	430b      	orrs	r3, r1
 8005fbc:	6513      	str	r3, [r2, #80]	; 0x50
 8005fbe:	e753      	b.n	8005e68 <HAL_RCCEx_PeriphCLKConfig+0xd4>
 8005fc0:	4a30      	ldr	r2, [pc, #192]	; (8006084 <HAL_RCCEx_PeriphCLKConfig+0x2f0>)
 8005fc2:	6ad3      	ldr	r3, [r2, #44]	; 0x2c
 8005fc4:	f443 3300 	orr.w	r3, r3, #131072	; 0x20000
 8005fc8:	62d3      	str	r3, [r2, #44]	; 0x2c
 8005fca:	e7f0      	b.n	8005fae <HAL_RCCEx_PeriphCLKConfig+0x21a>
 8005fcc:	2100      	movs	r1, #0
 8005fce:	f105 0008 	add.w	r0, r5, #8
 8005fd2:	f7ff fdef 	bl	8005bb4 <RCCEx_PLL2_Config>
 8005fd6:	4604      	mov	r4, r0
 8005fd8:	e7e9      	b.n	8005fae <HAL_RCCEx_PeriphCLKConfig+0x21a>
 8005fda:	2100      	movs	r1, #0
 8005fdc:	f105 0028 	add.w	r0, r5, #40	; 0x28
 8005fe0:	f7ff fe60 	bl	8005ca4 <RCCEx_PLL3_Config>
 8005fe4:	e7f7      	b.n	8005fd6 <HAL_RCCEx_PeriphCLKConfig+0x242>
 8005fe6:	4626      	mov	r6, r4
 8005fe8:	e73e      	b.n	8005e68 <HAL_RCCEx_PeriphCLKConfig+0xd4>
 8005fea:	f5b3 0fc0 	cmp.w	r3, #6291456	; 0x600000
 8005fee:	d003      	beq.n	8005ff8 <HAL_RCCEx_PeriphCLKConfig+0x264>
 8005ff0:	f5b3 0f00 	cmp.w	r3, #8388608	; 0x800000
 8005ff4:	f47f af4a 	bne.w	8005e8c <HAL_RCCEx_PeriphCLKConfig+0xf8>
 8005ff8:	b9dc      	cbnz	r4, 8006032 <HAL_RCCEx_PeriphCLKConfig+0x29e>
 8005ffa:	4a22      	ldr	r2, [pc, #136]	; (8006084 <HAL_RCCEx_PeriphCLKConfig+0x2f0>)
 8005ffc:	f8d5 10a8 	ldr.w	r1, [r5, #168]	; 0xa8
 8006000:	6d93      	ldr	r3, [r2, #88]	; 0x58
 8006002:	f423 0360 	bic.w	r3, r3, #14680064	; 0xe00000
 8006006:	430b      	orrs	r3, r1
 8006008:	6593      	str	r3, [r2, #88]	; 0x58
 800600a:	e741      	b.n	8005e90 <HAL_RCCEx_PeriphCLKConfig+0xfc>
 800600c:	4a1d      	ldr	r2, [pc, #116]	; (8006084 <HAL_RCCEx_PeriphCLKConfig+0x2f0>)
 800600e:	6ad3      	ldr	r3, [r2, #44]	; 0x2c
 8006010:	f443 3300 	orr.w	r3, r3, #131072	; 0x20000
 8006014:	62d3      	str	r3, [r2, #44]	; 0x2c
 8006016:	e7ef      	b.n	8005ff8 <HAL_RCCEx_PeriphCLKConfig+0x264>
 8006018:	2100      	movs	r1, #0
 800601a:	f105 0008 	add.w	r0, r5, #8
 800601e:	f7ff fdc9 	bl	8005bb4 <RCCEx_PLL2_Config>
 8006022:	4604      	mov	r4, r0
 8006024:	e7e8      	b.n	8005ff8 <HAL_RCCEx_PeriphCLKConfig+0x264>
 8006026:	2100      	movs	r1, #0
 8006028:	f105 0028 	add.w	r0, r5, #40	; 0x28
 800602c:	f7ff fe3a 	bl	8005ca4 <RCCEx_PLL3_Config>
 8006030:	e7f7      	b.n	8006022 <HAL_RCCEx_PeriphCLKConfig+0x28e>
 8006032:	4626      	mov	r6, r4
 8006034:	e72c      	b.n	8005e90 <HAL_RCCEx_PeriphCLKConfig+0xfc>
 8006036:	f1b3 7f40 	cmp.w	r3, #50331648	; 0x3000000
 800603a:	d003      	beq.n	8006044 <HAL_RCCEx_PeriphCLKConfig+0x2b0>
 800603c:	f1b3 6f80 	cmp.w	r3, #67108864	; 0x4000000
 8006040:	f47f af38 	bne.w	8005eb4 <HAL_RCCEx_PeriphCLKConfig+0x120>
 8006044:	b9dc      	cbnz	r4, 800607e <HAL_RCCEx_PeriphCLKConfig+0x2ea>
 8006046:	4a0f      	ldr	r2, [pc, #60]	; (8006084 <HAL_RCCEx_PeriphCLKConfig+0x2f0>)
 8006048:	f8d5 10ac 	ldr.w	r1, [r5, #172]	; 0xac
 800604c:	6d93      	ldr	r3, [r2, #88]	; 0x58
 800604e:	f023 63e0 	bic.w	r3, r3, #117440512	; 0x7000000
 8006052:	430b      	orrs	r3, r1
 8006054:	6593      	str	r3, [r2, #88]	; 0x58
 8006056:	e72f      	b.n	8005eb8 <HAL_RCCEx_PeriphCLKConfig+0x124>
 8006058:	4a0a      	ldr	r2, [pc, #40]	; (8006084 <HAL_RCCEx_PeriphCLKConfig+0x2f0>)
 800605a:	6ad3      	ldr	r3, [r2, #44]	; 0x2c
 800605c:	f443 3300 	orr.w	r3, r3, #131072	; 0x20000
 8006060:	62d3      	str	r3, [r2, #44]	; 0x2c
 8006062:	e7ef      	b.n	8006044 <HAL_RCCEx_PeriphCLKConfig+0x2b0>
 8006064:	2100      	movs	r1, #0
 8006066:	f105 0008 	add.w	r0, r5, #8
 800606a:	f7ff fda3 	bl	8005bb4 <RCCEx_PLL2_Config>
 800606e:	4604      	mov	r4, r0
 8006070:	e7e8      	b.n	8006044 <HAL_RCCEx_PeriphCLKConfig+0x2b0>
 8006072:	2100      	movs	r1, #0
 8006074:	f105 0028 	add.w	r0, r5, #40	; 0x28
 8006078:	f7ff fe14 	bl	8005ca4 <RCCEx_PLL3_Config>
 800607c:	e7f7      	b.n	800606e <HAL_RCCEx_PeriphCLKConfig+0x2da>
 800607e:	4626      	mov	r6, r4
 8006080:	e71a      	b.n	8005eb8 <HAL_RCCEx_PeriphCLKConfig+0x124>
 8006082:	bf00      	nop
 8006084:	58024400 	.word	0x58024400
 8006088:	2b30      	cmp	r3, #48	; 0x30
 800608a:	f47f af24 	bne.w	8005ed6 <HAL_RCCEx_PeriphCLKConfig+0x142>
 800608e:	b9a4      	cbnz	r4, 80060ba <HAL_RCCEx_PeriphCLKConfig+0x326>
 8006090:	4aa0      	ldr	r2, [pc, #640]	; (8006314 <HAL_RCCEx_PeriphCLKConfig+0x580>)
 8006092:	6ce9      	ldr	r1, [r5, #76]	; 0x4c
 8006094:	6cd3      	ldr	r3, [r2, #76]	; 0x4c
 8006096:	f023 0330 	bic.w	r3, r3, #48	; 0x30
 800609a:	430b      	orrs	r3, r1
 800609c:	64d3      	str	r3, [r2, #76]	; 0x4c
 800609e:	e71c      	b.n	8005eda <HAL_RCCEx_PeriphCLKConfig+0x146>
 80060a0:	4a9c      	ldr	r2, [pc, #624]	; (8006314 <HAL_RCCEx_PeriphCLKConfig+0x580>)
 80060a2:	6ad3      	ldr	r3, [r2, #44]	; 0x2c
 80060a4:	f443 3300 	orr.w	r3, r3, #131072	; 0x20000
 80060a8:	62d3      	str	r3, [r2, #44]	; 0x2c
 80060aa:	e7f0      	b.n	800608e <HAL_RCCEx_PeriphCLKConfig+0x2fa>
 80060ac:	2102      	movs	r1, #2
 80060ae:	f105 0008 	add.w	r0, r5, #8
 80060b2:	f7ff fd7f 	bl	8005bb4 <RCCEx_PLL2_Config>
 80060b6:	4604      	mov	r4, r0
 80060b8:	e7e9      	b.n	800608e <HAL_RCCEx_PeriphCLKConfig+0x2fa>
 80060ba:	4626      	mov	r6, r4
 80060bc:	e70d      	b.n	8005eda <HAL_RCCEx_PeriphCLKConfig+0x146>
 80060be:	f5b3 5f40 	cmp.w	r3, #12288	; 0x3000
 80060c2:	d003      	beq.n	80060cc <HAL_RCCEx_PeriphCLKConfig+0x338>
 80060c4:	f5b3 4f80 	cmp.w	r3, #16384	; 0x4000
 80060c8:	f47f af18 	bne.w	8005efc <HAL_RCCEx_PeriphCLKConfig+0x168>
 80060cc:	b9d4      	cbnz	r4, 8006104 <HAL_RCCEx_PeriphCLKConfig+0x370>
 80060ce:	4a91      	ldr	r2, [pc, #580]	; (8006314 <HAL_RCCEx_PeriphCLKConfig+0x580>)
 80060d0:	6e29      	ldr	r1, [r5, #96]	; 0x60
 80060d2:	6d13      	ldr	r3, [r2, #80]	; 0x50
 80060d4:	f423 43e0 	bic.w	r3, r3, #28672	; 0x7000
 80060d8:	430b      	orrs	r3, r1
 80060da:	6513      	str	r3, [r2, #80]	; 0x50
 80060dc:	e710      	b.n	8005f00 <HAL_RCCEx_PeriphCLKConfig+0x16c>
 80060de:	4a8d      	ldr	r2, [pc, #564]	; (8006314 <HAL_RCCEx_PeriphCLKConfig+0x580>)
 80060e0:	6ad3      	ldr	r3, [r2, #44]	; 0x2c
 80060e2:	f443 3300 	orr.w	r3, r3, #131072	; 0x20000
 80060e6:	62d3      	str	r3, [r2, #44]	; 0x2c
 80060e8:	e7f0      	b.n	80060cc <HAL_RCCEx_PeriphCLKConfig+0x338>
 80060ea:	2100      	movs	r1, #0
 80060ec:	f105 0008 	add.w	r0, r5, #8
 80060f0:	f7ff fd60 	bl	8005bb4 <RCCEx_PLL2_Config>
 80060f4:	4604      	mov	r4, r0
 80060f6:	e7e9      	b.n	80060cc <HAL_RCCEx_PeriphCLKConfig+0x338>
 80060f8:	2100      	movs	r1, #0
 80060fa:	f105 0028 	add.w	r0, r5, #40	; 0x28
 80060fe:	f7ff fdd1 	bl	8005ca4 <RCCEx_PLL3_Config>
 8006102:	e7f7      	b.n	80060f4 <HAL_RCCEx_PeriphCLKConfig+0x360>
 8006104:	4626      	mov	r6, r4
 8006106:	e6fb      	b.n	8005f00 <HAL_RCCEx_PeriphCLKConfig+0x16c>
 8006108:	f423 3280 	bic.w	r2, r3, #65536	; 0x10000
 800610c:	f5b2 2f80 	cmp.w	r2, #262144	; 0x40000
 8006110:	d003      	beq.n	800611a <HAL_RCCEx_PeriphCLKConfig+0x386>
 8006112:	f5b3 3f40 	cmp.w	r3, #196608	; 0x30000
 8006116:	f47f af04 	bne.w	8005f22 <HAL_RCCEx_PeriphCLKConfig+0x18e>
 800611a:	b9a4      	cbnz	r4, 8006146 <HAL_RCCEx_PeriphCLKConfig+0x3b2>
 800611c:	4a7d      	ldr	r2, [pc, #500]	; (8006314 <HAL_RCCEx_PeriphCLKConfig+0x580>)
 800611e:	6e69      	ldr	r1, [r5, #100]	; 0x64
 8006120:	6d13      	ldr	r3, [r2, #80]	; 0x50
 8006122:	f423 23e0 	bic.w	r3, r3, #458752	; 0x70000
 8006126:	430b      	orrs	r3, r1
 8006128:	6513      	str	r3, [r2, #80]	; 0x50
 800612a:	e6fc      	b.n	8005f26 <HAL_RCCEx_PeriphCLKConfig+0x192>
 800612c:	2101      	movs	r1, #1
 800612e:	f105 0008 	add.w	r0, r5, #8
 8006132:	f7ff fd3f 	bl	8005bb4 <RCCEx_PLL2_Config>
 8006136:	4604      	mov	r4, r0
 8006138:	e7ef      	b.n	800611a <HAL_RCCEx_PeriphCLKConfig+0x386>
 800613a:	2101      	movs	r1, #1
 800613c:	f105 0028 	add.w	r0, r5, #40	; 0x28
 8006140:	f7ff fdb0 	bl	8005ca4 <RCCEx_PLL3_Config>
 8006144:	e7f7      	b.n	8006136 <HAL_RCCEx_PeriphCLKConfig+0x3a2>
 8006146:	4626      	mov	r6, r4
 8006148:	e6ed      	b.n	8005f26 <HAL_RCCEx_PeriphCLKConfig+0x192>
 800614a:	f023 5280 	bic.w	r2, r3, #268435456	; 0x10000000
 800614e:	f1b2 4f80 	cmp.w	r2, #1073741824	; 0x40000000
 8006152:	d003      	beq.n	800615c <HAL_RCCEx_PeriphCLKConfig+0x3c8>
 8006154:	f1b3 5f40 	cmp.w	r3, #805306368	; 0x30000000
 8006158:	f47f aef7 	bne.w	8005f4a <HAL_RCCEx_PeriphCLKConfig+0x1b6>
 800615c:	b9ac      	cbnz	r4, 800618a <HAL_RCCEx_PeriphCLKConfig+0x3f6>
 800615e:	4a6d      	ldr	r2, [pc, #436]	; (8006314 <HAL_RCCEx_PeriphCLKConfig+0x580>)
 8006160:	f8d5 10b0 	ldr.w	r1, [r5, #176]	; 0xb0
 8006164:	6d93      	ldr	r3, [r2, #88]	; 0x58
 8006166:	f023 43e0 	bic.w	r3, r3, #1879048192	; 0x70000000
 800616a:	430b      	orrs	r3, r1
 800616c:	6593      	str	r3, [r2, #88]	; 0x58
 800616e:	e6ee      	b.n	8005f4e <HAL_RCCEx_PeriphCLKConfig+0x1ba>
 8006170:	2101      	movs	r1, #1
 8006172:	f105 0008 	add.w	r0, r5, #8
 8006176:	f7ff fd1d 	bl	8005bb4 <RCCEx_PLL2_Config>
 800617a:	4604      	mov	r4, r0
 800617c:	e7ee      	b.n	800615c <HAL_RCCEx_PeriphCLKConfig+0x3c8>
 800617e:	2101      	movs	r1, #1
 8006180:	f105 0028 	add.w	r0, r5, #40	; 0x28
 8006184:	f7ff fd8e 	bl	8005ca4 <RCCEx_PLL3_Config>
 8006188:	e7f7      	b.n	800617a <HAL_RCCEx_PeriphCLKConfig+0x3e6>
 800618a:	4626      	mov	r6, r4
 800618c:	e6df      	b.n	8005f4e <HAL_RCCEx_PeriphCLKConfig+0x1ba>
 800618e:	4a61      	ldr	r2, [pc, #388]	; (8006314 <HAL_RCCEx_PeriphCLKConfig+0x580>)
 8006190:	6ad3      	ldr	r3, [r2, #44]	; 0x2c
 8006192:	f443 3300 	orr.w	r3, r3, #131072	; 0x20000
 8006196:	62d3      	str	r3, [r2, #44]	; 0x2c
 8006198:	b974      	cbnz	r4, 80061b8 <HAL_RCCEx_PeriphCLKConfig+0x424>
 800619a:	4a5e      	ldr	r2, [pc, #376]	; (8006314 <HAL_RCCEx_PeriphCLKConfig+0x580>)
 800619c:	6f29      	ldr	r1, [r5, #112]	; 0x70
 800619e:	6d13      	ldr	r3, [r2, #80]	; 0x50
 80061a0:	f023 5340 	bic.w	r3, r3, #805306368	; 0x30000000
 80061a4:	430b      	orrs	r3, r1
 80061a6:	6513      	str	r3, [r2, #80]	; 0x50
 80061a8:	e6e2      	b.n	8005f70 <HAL_RCCEx_PeriphCLKConfig+0x1dc>
 80061aa:	2101      	movs	r1, #1
 80061ac:	f105 0008 	add.w	r0, r5, #8
 80061b0:	f7ff fd00 	bl	8005bb4 <RCCEx_PLL2_Config>
 80061b4:	4604      	mov	r4, r0
 80061b6:	e7ef      	b.n	8006198 <HAL_RCCEx_PeriphCLKConfig+0x404>
 80061b8:	4626      	mov	r6, r4
 80061ba:	e6d9      	b.n	8005f70 <HAL_RCCEx_PeriphCLKConfig+0x1dc>
 80061bc:	4a55      	ldr	r2, [pc, #340]	; (8006314 <HAL_RCCEx_PeriphCLKConfig+0x580>)
 80061be:	6ad3      	ldr	r3, [r2, #44]	; 0x2c
 80061c0:	f443 3300 	orr.w	r3, r3, #131072	; 0x20000
 80061c4:	62d3      	str	r3, [r2, #44]	; 0x2c
 80061c6:	2c00      	cmp	r4, #0
 80061c8:	d14e      	bne.n	8006268 <HAL_RCCEx_PeriphCLKConfig+0x4d4>
 80061ca:	4a52      	ldr	r2, [pc, #328]	; (8006314 <HAL_RCCEx_PeriphCLKConfig+0x580>)
 80061cc:	6ca9      	ldr	r1, [r5, #72]	; 0x48
 80061ce:	6cd3      	ldr	r3, [r2, #76]	; 0x4c
 80061d0:	f023 0303 	bic.w	r3, r3, #3
 80061d4:	430b      	orrs	r3, r1
 80061d6:	64d3      	str	r3, [r2, #76]	; 0x4c
 80061d8:	682b      	ldr	r3, [r5, #0]
 80061da:	0259      	lsls	r1, r3, #9
 80061dc:	d54e      	bpl.n	800627c <HAL_RCCEx_PeriphCLKConfig+0x4e8>
 80061de:	4f4e      	ldr	r7, [pc, #312]	; (8006318 <HAL_RCCEx_PeriphCLKConfig+0x584>)
 80061e0:	683b      	ldr	r3, [r7, #0]
 80061e2:	f443 7380 	orr.w	r3, r3, #256	; 0x100
 80061e6:	603b      	str	r3, [r7, #0]
 80061e8:	f7fc ff72 	bl	80030d0 <HAL_GetTick>
 80061ec:	4680      	mov	r8, r0
 80061ee:	683b      	ldr	r3, [r7, #0]
 80061f0:	05da      	lsls	r2, r3, #23
 80061f2:	d53b      	bpl.n	800626c <HAL_RCCEx_PeriphCLKConfig+0x4d8>
 80061f4:	2c00      	cmp	r4, #0
 80061f6:	d16d      	bne.n	80062d4 <HAL_RCCEx_PeriphCLKConfig+0x540>
 80061f8:	4b46      	ldr	r3, [pc, #280]	; (8006314 <HAL_RCCEx_PeriphCLKConfig+0x580>)
 80061fa:	f8d5 00b4 	ldr.w	r0, [r5, #180]	; 0xb4
 80061fe:	6f1a      	ldr	r2, [r3, #112]	; 0x70
 8006200:	4042      	eors	r2, r0
 8006202:	f412 7f40 	tst.w	r2, #768	; 0x300
 8006206:	d00b      	beq.n	8006220 <HAL_RCCEx_PeriphCLKConfig+0x48c>
 8006208:	6f1a      	ldr	r2, [r3, #112]	; 0x70
 800620a:	6f19      	ldr	r1, [r3, #112]	; 0x70
 800620c:	f422 7240 	bic.w	r2, r2, #768	; 0x300
 8006210:	f441 3180 	orr.w	r1, r1, #65536	; 0x10000
 8006214:	6719      	str	r1, [r3, #112]	; 0x70
 8006216:	6f19      	ldr	r1, [r3, #112]	; 0x70
 8006218:	f421 3180 	bic.w	r1, r1, #65536	; 0x10000
 800621c:	6719      	str	r1, [r3, #112]	; 0x70
 800621e:	671a      	str	r2, [r3, #112]	; 0x70
 8006220:	f5b0 7f80 	cmp.w	r0, #256	; 0x100
 8006224:	d041      	beq.n	80062aa <HAL_RCCEx_PeriphCLKConfig+0x516>
 8006226:	f8d5 30b4 	ldr.w	r3, [r5, #180]	; 0xb4
 800622a:	493a      	ldr	r1, [pc, #232]	; (8006314 <HAL_RCCEx_PeriphCLKConfig+0x580>)
 800622c:	f403 7240 	and.w	r2, r3, #768	; 0x300
 8006230:	f5b2 7f40 	cmp.w	r2, #768	; 0x300
 8006234:	d14a      	bne.n	80062cc <HAL_RCCEx_PeriphCLKConfig+0x538>
 8006236:	6908      	ldr	r0, [r1, #16]
 8006238:	4a38      	ldr	r2, [pc, #224]	; (800631c <HAL_RCCEx_PeriphCLKConfig+0x588>)
 800623a:	f420 507c 	bic.w	r0, r0, #16128	; 0x3f00
 800623e:	ea02 1213 	and.w	r2, r2, r3, lsr #4
 8006242:	4302      	orrs	r2, r0
 8006244:	610a      	str	r2, [r1, #16]
 8006246:	f3c3 030b 	ubfx	r3, r3, #0, #12
 800624a:	4a32      	ldr	r2, [pc, #200]	; (8006314 <HAL_RCCEx_PeriphCLKConfig+0x580>)
 800624c:	6f11      	ldr	r1, [r2, #112]	; 0x70
 800624e:	430b      	orrs	r3, r1
 8006250:	6713      	str	r3, [r2, #112]	; 0x70
 8006252:	e013      	b.n	800627c <HAL_RCCEx_PeriphCLKConfig+0x4e8>
 8006254:	2102      	movs	r1, #2
 8006256:	f105 0008 	add.w	r0, r5, #8
 800625a:	f7ff fcab 	bl	8005bb4 <RCCEx_PLL2_Config>
 800625e:	4604      	mov	r4, r0
 8006260:	e7b1      	b.n	80061c6 <HAL_RCCEx_PeriphCLKConfig+0x432>
 8006262:	2601      	movs	r6, #1
 8006264:	4634      	mov	r4, r6
 8006266:	e7b7      	b.n	80061d8 <HAL_RCCEx_PeriphCLKConfig+0x444>
 8006268:	4626      	mov	r6, r4
 800626a:	e7b5      	b.n	80061d8 <HAL_RCCEx_PeriphCLKConfig+0x444>
 800626c:	f7fc ff30 	bl	80030d0 <HAL_GetTick>
 8006270:	eba0 0008 	sub.w	r0, r0, r8
 8006274:	2864      	cmp	r0, #100	; 0x64
 8006276:	d9ba      	bls.n	80061ee <HAL_RCCEx_PeriphCLKConfig+0x45a>
 8006278:	2603      	movs	r6, #3
 800627a:	4634      	mov	r4, r6
 800627c:	682b      	ldr	r3, [r5, #0]
 800627e:	07d8      	lsls	r0, r3, #31
 8006280:	d508      	bpl.n	8006294 <HAL_RCCEx_PeriphCLKConfig+0x500>
 8006282:	6feb      	ldr	r3, [r5, #124]	; 0x7c
 8006284:	2b10      	cmp	r3, #16
 8006286:	d03d      	beq.n	8006304 <HAL_RCCEx_PeriphCLKConfig+0x570>
 8006288:	d826      	bhi.n	80062d8 <HAL_RCCEx_PeriphCLKConfig+0x544>
 800628a:	b35b      	cbz	r3, 80062e4 <HAL_RCCEx_PeriphCLKConfig+0x550>
 800628c:	2b08      	cmp	r3, #8
 800628e:	d032      	beq.n	80062f6 <HAL_RCCEx_PeriphCLKConfig+0x562>
 8006290:	2601      	movs	r6, #1
 8006292:	4634      	mov	r4, r6
 8006294:	682b      	ldr	r3, [r5, #0]
 8006296:	0799      	lsls	r1, r3, #30
 8006298:	d550      	bpl.n	800633c <HAL_RCCEx_PeriphCLKConfig+0x5a8>
 800629a:	6fab      	ldr	r3, [r5, #120]	; 0x78
 800629c:	2b05      	cmp	r3, #5
 800629e:	d863      	bhi.n	8006368 <HAL_RCCEx_PeriphCLKConfig+0x5d4>
 80062a0:	e8df f003 	tbb	[pc, r3]
 80062a4:	445c3e44 	.word	0x445c3e44
 80062a8:	4444      	.short	0x4444
 80062aa:	f7fc ff11 	bl	80030d0 <HAL_GetTick>
 80062ae:	f8df 8064 	ldr.w	r8, [pc, #100]	; 8006314 <HAL_RCCEx_PeriphCLKConfig+0x580>
 80062b2:	4607      	mov	r7, r0
 80062b4:	f241 3988 	movw	r9, #5000	; 0x1388
 80062b8:	f8d8 3070 	ldr.w	r3, [r8, #112]	; 0x70
 80062bc:	079b      	lsls	r3, r3, #30
 80062be:	d4b2      	bmi.n	8006226 <HAL_RCCEx_PeriphCLKConfig+0x492>
 80062c0:	f7fc ff06 	bl	80030d0 <HAL_GetTick>
 80062c4:	1bc0      	subs	r0, r0, r7
 80062c6:	4548      	cmp	r0, r9
 80062c8:	d9f6      	bls.n	80062b8 <HAL_RCCEx_PeriphCLKConfig+0x524>
 80062ca:	e7d5      	b.n	8006278 <HAL_RCCEx_PeriphCLKConfig+0x4e4>
 80062cc:	690a      	ldr	r2, [r1, #16]
 80062ce:	f422 527c 	bic.w	r2, r2, #16128	; 0x3f00
 80062d2:	e7b7      	b.n	8006244 <HAL_RCCEx_PeriphCLKConfig+0x4b0>
 80062d4:	4626      	mov	r6, r4
 80062d6:	e7d1      	b.n	800627c <HAL_RCCEx_PeriphCLKConfig+0x4e8>
 80062d8:	f023 0208 	bic.w	r2, r3, #8
 80062dc:	2a20      	cmp	r2, #32
 80062de:	d001      	beq.n	80062e4 <HAL_RCCEx_PeriphCLKConfig+0x550>
 80062e0:	2b18      	cmp	r3, #24
 80062e2:	d1d5      	bne.n	8006290 <HAL_RCCEx_PeriphCLKConfig+0x4fc>
 80062e4:	b9a4      	cbnz	r4, 8006310 <HAL_RCCEx_PeriphCLKConfig+0x57c>
 80062e6:	4a0b      	ldr	r2, [pc, #44]	; (8006314 <HAL_RCCEx_PeriphCLKConfig+0x580>)
 80062e8:	6fe9      	ldr	r1, [r5, #124]	; 0x7c
 80062ea:	6d53      	ldr	r3, [r2, #84]	; 0x54
 80062ec:	f023 0338 	bic.w	r3, r3, #56	; 0x38
 80062f0:	430b      	orrs	r3, r1
 80062f2:	6553      	str	r3, [r2, #84]	; 0x54
 80062f4:	e7ce      	b.n	8006294 <HAL_RCCEx_PeriphCLKConfig+0x500>
 80062f6:	2101      	movs	r1, #1
 80062f8:	f105 0008 	add.w	r0, r5, #8
 80062fc:	f7ff fc5a 	bl	8005bb4 <RCCEx_PLL2_Config>
 8006300:	4604      	mov	r4, r0
 8006302:	e7ef      	b.n	80062e4 <HAL_RCCEx_PeriphCLKConfig+0x550>
 8006304:	2101      	movs	r1, #1
 8006306:	f105 0028 	add.w	r0, r5, #40	; 0x28
 800630a:	f7ff fccb 	bl	8005ca4 <RCCEx_PLL3_Config>
 800630e:	e7f7      	b.n	8006300 <HAL_RCCEx_PeriphCLKConfig+0x56c>
 8006310:	4626      	mov	r6, r4
 8006312:	e7bf      	b.n	8006294 <HAL_RCCEx_PeriphCLKConfig+0x500>
 8006314:	58024400 	.word	0x58024400
 8006318:	58024800 	.word	0x58024800
 800631c:	00ffffcf 	.word	0x00ffffcf
 8006320:	2101      	movs	r1, #1
 8006322:	f105 0008 	add.w	r0, r5, #8
 8006326:	f7ff fc45 	bl	8005bb4 <RCCEx_PLL2_Config>
 800632a:	4604      	mov	r4, r0
 800632c:	b9fc      	cbnz	r4, 800636e <HAL_RCCEx_PeriphCLKConfig+0x5da>
 800632e:	4a11      	ldr	r2, [pc, #68]	; (8006374 <HAL_RCCEx_PeriphCLKConfig+0x5e0>)
 8006330:	6fa9      	ldr	r1, [r5, #120]	; 0x78
 8006332:	6d53      	ldr	r3, [r2, #84]	; 0x54
 8006334:	f023 0307 	bic.w	r3, r3, #7
 8006338:	430b      	orrs	r3, r1
 800633a:	6553      	str	r3, [r2, #84]	; 0x54
 800633c:	682b      	ldr	r3, [r5, #0]
 800633e:	075a      	lsls	r2, r3, #29
 8006340:	d52b      	bpl.n	800639a <HAL_RCCEx_PeriphCLKConfig+0x606>
 8006342:	f8d5 3094 	ldr.w	r3, [r5, #148]	; 0x94
 8006346:	2b05      	cmp	r3, #5
 8006348:	f200 817c 	bhi.w	8006644 <HAL_RCCEx_PeriphCLKConfig+0x8b0>
 800634c:	e8df f013 	tbh	[pc, r3, lsl #1]
 8006350:	0014001a 	.word	0x0014001a
 8006354:	001a0174 	.word	0x001a0174
 8006358:	001a001a 	.word	0x001a001a
 800635c:	2101      	movs	r1, #1
 800635e:	f105 0028 	add.w	r0, r5, #40	; 0x28
 8006362:	f7ff fc9f 	bl	8005ca4 <RCCEx_PLL3_Config>
 8006366:	e7e0      	b.n	800632a <HAL_RCCEx_PeriphCLKConfig+0x596>
 8006368:	2601      	movs	r6, #1
 800636a:	4634      	mov	r4, r6
 800636c:	e7e6      	b.n	800633c <HAL_RCCEx_PeriphCLKConfig+0x5a8>
 800636e:	4626      	mov	r6, r4
 8006370:	e7e4      	b.n	800633c <HAL_RCCEx_PeriphCLKConfig+0x5a8>
 8006372:	bf00      	nop
 8006374:	58024400 	.word	0x58024400
 8006378:	2101      	movs	r1, #1
 800637a:	f105 0008 	add.w	r0, r5, #8
 800637e:	f7ff fc19 	bl	8005bb4 <RCCEx_PLL2_Config>
 8006382:	4604      	mov	r4, r0
 8006384:	2c00      	cmp	r4, #0
 8006386:	f040 8160 	bne.w	800664a <HAL_RCCEx_PeriphCLKConfig+0x8b6>
 800638a:	4aaa      	ldr	r2, [pc, #680]	; (8006634 <HAL_RCCEx_PeriphCLKConfig+0x8a0>)
 800638c:	f8d5 1094 	ldr.w	r1, [r5, #148]	; 0x94
 8006390:	6d93      	ldr	r3, [r2, #88]	; 0x58
 8006392:	f023 0307 	bic.w	r3, r3, #7
 8006396:	430b      	orrs	r3, r1
 8006398:	6593      	str	r3, [r2, #88]	; 0x58
 800639a:	682b      	ldr	r3, [r5, #0]
 800639c:	069b      	lsls	r3, r3, #26
 800639e:	d510      	bpl.n	80063c2 <HAL_RCCEx_PeriphCLKConfig+0x62e>
 80063a0:	f8d5 3090 	ldr.w	r3, [r5, #144]	; 0x90
 80063a4:	f1b3 5f00 	cmp.w	r3, #536870912	; 0x20000000
 80063a8:	f000 816b 	beq.w	8006682 <HAL_RCCEx_PeriphCLKConfig+0x8ee>
 80063ac:	f200 814f 	bhi.w	800664e <HAL_RCCEx_PeriphCLKConfig+0x8ba>
 80063b0:	2b00      	cmp	r3, #0
 80063b2:	f000 8155 	beq.w	8006660 <HAL_RCCEx_PeriphCLKConfig+0x8cc>
 80063b6:	f1b3 5f80 	cmp.w	r3, #268435456	; 0x10000000
 80063ba:	f000 815b 	beq.w	8006674 <HAL_RCCEx_PeriphCLKConfig+0x8e0>
 80063be:	2601      	movs	r6, #1
 80063c0:	4634      	mov	r4, r6
 80063c2:	682b      	ldr	r3, [r5, #0]
 80063c4:	065f      	lsls	r7, r3, #25
 80063c6:	d510      	bpl.n	80063ea <HAL_RCCEx_PeriphCLKConfig+0x656>
 80063c8:	f8d5 309c 	ldr.w	r3, [r5, #156]	; 0x9c
 80063cc:	f5b3 6f00 	cmp.w	r3, #2048	; 0x800
 80063d0:	f000 8179 	beq.w	80066c6 <HAL_RCCEx_PeriphCLKConfig+0x932>
 80063d4:	f200 815d 	bhi.w	8006692 <HAL_RCCEx_PeriphCLKConfig+0x8fe>
 80063d8:	2b00      	cmp	r3, #0
 80063da:	f000 8163 	beq.w	80066a4 <HAL_RCCEx_PeriphCLKConfig+0x910>
 80063de:	f5b3 6f80 	cmp.w	r3, #1024	; 0x400
 80063e2:	f000 8169 	beq.w	80066b8 <HAL_RCCEx_PeriphCLKConfig+0x924>
 80063e6:	2601      	movs	r6, #1
 80063e8:	4634      	mov	r4, r6
 80063ea:	682b      	ldr	r3, [r5, #0]
 80063ec:	0618      	lsls	r0, r3, #24
 80063ee:	d510      	bpl.n	8006412 <HAL_RCCEx_PeriphCLKConfig+0x67e>
 80063f0:	f8d5 30a0 	ldr.w	r3, [r5, #160]	; 0xa0
 80063f4:	f5b3 4f80 	cmp.w	r3, #16384	; 0x4000
 80063f8:	f000 8187 	beq.w	800670a <HAL_RCCEx_PeriphCLKConfig+0x976>
 80063fc:	f200 816b 	bhi.w	80066d6 <HAL_RCCEx_PeriphCLKConfig+0x942>
 8006400:	2b00      	cmp	r3, #0
 8006402:	f000 8171 	beq.w	80066e8 <HAL_RCCEx_PeriphCLKConfig+0x954>
 8006406:	f5b3 5f00 	cmp.w	r3, #8192	; 0x2000
 800640a:	f000 8177 	beq.w	80066fc <HAL_RCCEx_PeriphCLKConfig+0x968>
 800640e:	2601      	movs	r6, #1
 8006410:	4634      	mov	r4, r6
 8006412:	682b      	ldr	r3, [r5, #0]
 8006414:	0719      	lsls	r1, r3, #28
 8006416:	d514      	bpl.n	8006442 <HAL_RCCEx_PeriphCLKConfig+0x6ae>
 8006418:	f8d5 3084 	ldr.w	r3, [r5, #132]	; 0x84
 800641c:	f5b3 5f80 	cmp.w	r3, #4096	; 0x1000
 8006420:	d107      	bne.n	8006432 <HAL_RCCEx_PeriphCLKConfig+0x69e>
 8006422:	2102      	movs	r1, #2
 8006424:	f105 0028 	add.w	r0, r5, #40	; 0x28
 8006428:	f7ff fc3c 	bl	8005ca4 <RCCEx_PLL3_Config>
 800642c:	2800      	cmp	r0, #0
 800642e:	bf18      	it	ne
 8006430:	2601      	movne	r6, #1
 8006432:	4a80      	ldr	r2, [pc, #512]	; (8006634 <HAL_RCCEx_PeriphCLKConfig+0x8a0>)
 8006434:	f8d5 1084 	ldr.w	r1, [r5, #132]	; 0x84
 8006438:	6d53      	ldr	r3, [r2, #84]	; 0x54
 800643a:	f423 5340 	bic.w	r3, r3, #12288	; 0x3000
 800643e:	430b      	orrs	r3, r1
 8006440:	6553      	str	r3, [r2, #84]	; 0x54
 8006442:	682b      	ldr	r3, [r5, #0]
 8006444:	06da      	lsls	r2, r3, #27
 8006446:	d514      	bpl.n	8006472 <HAL_RCCEx_PeriphCLKConfig+0x6de>
 8006448:	f8d5 3098 	ldr.w	r3, [r5, #152]	; 0x98
 800644c:	f5b3 7f80 	cmp.w	r3, #256	; 0x100
 8006450:	d107      	bne.n	8006462 <HAL_RCCEx_PeriphCLKConfig+0x6ce>
 8006452:	2102      	movs	r1, #2
 8006454:	f105 0028 	add.w	r0, r5, #40	; 0x28
 8006458:	f7ff fc24 	bl	8005ca4 <RCCEx_PLL3_Config>
 800645c:	2800      	cmp	r0, #0
 800645e:	bf18      	it	ne
 8006460:	2601      	movne	r6, #1
 8006462:	4a74      	ldr	r2, [pc, #464]	; (8006634 <HAL_RCCEx_PeriphCLKConfig+0x8a0>)
 8006464:	f8d5 1098 	ldr.w	r1, [r5, #152]	; 0x98
 8006468:	6d93      	ldr	r3, [r2, #88]	; 0x58
 800646a:	f423 7340 	bic.w	r3, r3, #768	; 0x300
 800646e:	430b      	orrs	r3, r1
 8006470:	6593      	str	r3, [r2, #88]	; 0x58
 8006472:	682b      	ldr	r3, [r5, #0]
 8006474:	031b      	lsls	r3, r3, #12
 8006476:	d51b      	bpl.n	80064b0 <HAL_RCCEx_PeriphCLKConfig+0x71c>
 8006478:	f8d5 10a4 	ldr.w	r1, [r5, #164]	; 0xa4
 800647c:	f5b1 3f80 	cmp.w	r1, #65536	; 0x10000
 8006480:	f000 814b 	beq.w	800671a <HAL_RCCEx_PeriphCLKConfig+0x986>
 8006484:	f5b1 3f00 	cmp.w	r1, #131072	; 0x20000
 8006488:	d007      	beq.n	800649a <HAL_RCCEx_PeriphCLKConfig+0x706>
 800648a:	2900      	cmp	r1, #0
 800648c:	f040 814b 	bne.w	8006726 <HAL_RCCEx_PeriphCLKConfig+0x992>
 8006490:	f105 0008 	add.w	r0, r5, #8
 8006494:	f7ff fb8e 	bl	8005bb4 <RCCEx_PLL2_Config>
 8006498:	4604      	mov	r4, r0
 800649a:	2c00      	cmp	r4, #0
 800649c:	f040 8146 	bne.w	800672c <HAL_RCCEx_PeriphCLKConfig+0x998>
 80064a0:	4a64      	ldr	r2, [pc, #400]	; (8006634 <HAL_RCCEx_PeriphCLKConfig+0x8a0>)
 80064a2:	f8d5 10a4 	ldr.w	r1, [r5, #164]	; 0xa4
 80064a6:	6d93      	ldr	r3, [r2, #88]	; 0x58
 80064a8:	f423 3340 	bic.w	r3, r3, #196608	; 0x30000
 80064ac:	430b      	orrs	r3, r1
 80064ae:	6593      	str	r3, [r2, #88]	; 0x58
 80064b0:	682b      	ldr	r3, [r5, #0]
 80064b2:	035f      	lsls	r7, r3, #13
 80064b4:	d51c      	bpl.n	80064f0 <HAL_RCCEx_PeriphCLKConfig+0x75c>
 80064b6:	f8d5 3088 	ldr.w	r3, [r5, #136]	; 0x88
 80064ba:	f5b3 1f00 	cmp.w	r3, #2097152	; 0x200000
 80064be:	f000 8137 	beq.w	8006730 <HAL_RCCEx_PeriphCLKConfig+0x99c>
 80064c2:	f5b3 1f40 	cmp.w	r3, #3145728	; 0x300000
 80064c6:	d008      	beq.n	80064da <HAL_RCCEx_PeriphCLKConfig+0x746>
 80064c8:	f5b3 1f80 	cmp.w	r3, #1048576	; 0x100000
 80064cc:	f040 8137 	bne.w	800673e <HAL_RCCEx_PeriphCLKConfig+0x9aa>
 80064d0:	4a58      	ldr	r2, [pc, #352]	; (8006634 <HAL_RCCEx_PeriphCLKConfig+0x8a0>)
 80064d2:	6ad3      	ldr	r3, [r2, #44]	; 0x2c
 80064d4:	f443 3300 	orr.w	r3, r3, #131072	; 0x20000
 80064d8:	62d3      	str	r3, [r2, #44]	; 0x2c
 80064da:	2c00      	cmp	r4, #0
 80064dc:	f040 8132 	bne.w	8006744 <HAL_RCCEx_PeriphCLKConfig+0x9b0>
 80064e0:	4a54      	ldr	r2, [pc, #336]	; (8006634 <HAL_RCCEx_PeriphCLKConfig+0x8a0>)
 80064e2:	f8d5 1088 	ldr.w	r1, [r5, #136]	; 0x88
 80064e6:	6d53      	ldr	r3, [r2, #84]	; 0x54
 80064e8:	f423 1340 	bic.w	r3, r3, #3145728	; 0x300000
 80064ec:	430b      	orrs	r3, r1
 80064ee:	6553      	str	r3, [r2, #84]	; 0x54
 80064f0:	682b      	ldr	r3, [r5, #0]
 80064f2:	03d8      	lsls	r0, r3, #15
 80064f4:	d509      	bpl.n	800650a <HAL_RCCEx_PeriphCLKConfig+0x776>
 80064f6:	6d2b      	ldr	r3, [r5, #80]	; 0x50
 80064f8:	2b00      	cmp	r3, #0
 80064fa:	f000 8125 	beq.w	8006748 <HAL_RCCEx_PeriphCLKConfig+0x9b4>
 80064fe:	f5b3 3f80 	cmp.w	r3, #65536	; 0x10000
 8006502:	f000 812f 	beq.w	8006764 <HAL_RCCEx_PeriphCLKConfig+0x9d0>
 8006506:	2601      	movs	r6, #1
 8006508:	4634      	mov	r4, r6
 800650a:	682b      	ldr	r3, [r5, #0]
 800650c:	0099      	lsls	r1, r3, #2
 800650e:	d507      	bpl.n	8006520 <HAL_RCCEx_PeriphCLKConfig+0x78c>
 8006510:	2102      	movs	r1, #2
 8006512:	f105 0028 	add.w	r0, r5, #40	; 0x28
 8006516:	f7ff fbc5 	bl	8005ca4 <RCCEx_PLL3_Config>
 800651a:	2800      	cmp	r0, #0
 800651c:	bf18      	it	ne
 800651e:	2601      	movne	r6, #1
 8006520:	e9d5 3100 	ldrd	r3, r1, [r5]
 8006524:	039a      	lsls	r2, r3, #14
 8006526:	d50b      	bpl.n	8006540 <HAL_RCCEx_PeriphCLKConfig+0x7ac>
 8006528:	f8d5 0080 	ldr.w	r0, [r5, #128]	; 0x80
 800652c:	f5b0 7f80 	cmp.w	r0, #256	; 0x100
 8006530:	f000 812f 	beq.w	8006792 <HAL_RCCEx_PeriphCLKConfig+0x9fe>
 8006534:	f200 811f 	bhi.w	8006776 <HAL_RCCEx_PeriphCLKConfig+0x9e2>
 8006538:	2800      	cmp	r0, #0
 800653a:	f000 8122 	beq.w	8006782 <HAL_RCCEx_PeriphCLKConfig+0x9ee>
 800653e:	2601      	movs	r6, #1
 8006540:	02df      	lsls	r7, r3, #11
 8006542:	d506      	bpl.n	8006552 <HAL_RCCEx_PeriphCLKConfig+0x7be>
 8006544:	483b      	ldr	r0, [pc, #236]	; (8006634 <HAL_RCCEx_PeriphCLKConfig+0x8a0>)
 8006546:	6f6c      	ldr	r4, [r5, #116]	; 0x74
 8006548:	6d02      	ldr	r2, [r0, #80]	; 0x50
 800654a:	f022 4200 	bic.w	r2, r2, #2147483648	; 0x80000000
 800654e:	4322      	orrs	r2, r4
 8006550:	6502      	str	r2, [r0, #80]	; 0x50
 8006552:	00dc      	lsls	r4, r3, #3
 8006554:	d507      	bpl.n	8006566 <HAL_RCCEx_PeriphCLKConfig+0x7d2>
 8006556:	4837      	ldr	r0, [pc, #220]	; (8006634 <HAL_RCCEx_PeriphCLKConfig+0x8a0>)
 8006558:	f8d5 40b8 	ldr.w	r4, [r5, #184]	; 0xb8
 800655c:	6902      	ldr	r2, [r0, #16]
 800655e:	f422 4280 	bic.w	r2, r2, #16384	; 0x4000
 8006562:	4322      	orrs	r2, r4
 8006564:	6102      	str	r2, [r0, #16]
 8006566:	0298      	lsls	r0, r3, #10
 8006568:	d506      	bpl.n	8006578 <HAL_RCCEx_PeriphCLKConfig+0x7e4>
 800656a:	4832      	ldr	r0, [pc, #200]	; (8006634 <HAL_RCCEx_PeriphCLKConfig+0x8a0>)
 800656c:	6eec      	ldr	r4, [r5, #108]	; 0x6c
 800656e:	6d02      	ldr	r2, [r0, #80]	; 0x50
 8006570:	f022 7280 	bic.w	r2, r2, #16777216	; 0x1000000
 8006574:	4322      	orrs	r2, r4
 8006576:	6502      	str	r2, [r0, #80]	; 0x50
 8006578:	005a      	lsls	r2, r3, #1
 800657a:	d509      	bpl.n	8006590 <HAL_RCCEx_PeriphCLKConfig+0x7fc>
 800657c:	4a2d      	ldr	r2, [pc, #180]	; (8006634 <HAL_RCCEx_PeriphCLKConfig+0x8a0>)
 800657e:	6910      	ldr	r0, [r2, #16]
 8006580:	f420 4000 	bic.w	r0, r0, #32768	; 0x8000
 8006584:	6110      	str	r0, [r2, #16]
 8006586:	6910      	ldr	r0, [r2, #16]
 8006588:	f8d5 40bc 	ldr.w	r4, [r5, #188]	; 0xbc
 800658c:	4320      	orrs	r0, r4
 800658e:	6110      	str	r0, [r2, #16]
 8006590:	2b00      	cmp	r3, #0
 8006592:	da06      	bge.n	80065a2 <HAL_RCCEx_PeriphCLKConfig+0x80e>
 8006594:	4827      	ldr	r0, [pc, #156]	; (8006634 <HAL_RCCEx_PeriphCLKConfig+0x8a0>)
 8006596:	6d6c      	ldr	r4, [r5, #84]	; 0x54
 8006598:	6cc2      	ldr	r2, [r0, #76]	; 0x4c
 800659a:	f022 5240 	bic.w	r2, r2, #805306368	; 0x30000000
 800659e:	4322      	orrs	r2, r4
 80065a0:	64c2      	str	r2, [r0, #76]	; 0x4c
 80065a2:	021b      	lsls	r3, r3, #8
 80065a4:	d507      	bpl.n	80065b6 <HAL_RCCEx_PeriphCLKConfig+0x822>
 80065a6:	4a23      	ldr	r2, [pc, #140]	; (8006634 <HAL_RCCEx_PeriphCLKConfig+0x8a0>)
 80065a8:	f8d5 008c 	ldr.w	r0, [r5, #140]	; 0x8c
 80065ac:	6d53      	ldr	r3, [r2, #84]	; 0x54
 80065ae:	f423 0340 	bic.w	r3, r3, #12582912	; 0xc00000
 80065b2:	4303      	orrs	r3, r0
 80065b4:	6553      	str	r3, [r2, #84]	; 0x54
 80065b6:	07cf      	lsls	r7, r1, #31
 80065b8:	d507      	bpl.n	80065ca <HAL_RCCEx_PeriphCLKConfig+0x836>
 80065ba:	2100      	movs	r1, #0
 80065bc:	f105 0008 	add.w	r0, r5, #8
 80065c0:	f7ff faf8 	bl	8005bb4 <RCCEx_PLL2_Config>
 80065c4:	2800      	cmp	r0, #0
 80065c6:	bf18      	it	ne
 80065c8:	4606      	movne	r6, r0
 80065ca:	686b      	ldr	r3, [r5, #4]
 80065cc:	079c      	lsls	r4, r3, #30
 80065ce:	d507      	bpl.n	80065e0 <HAL_RCCEx_PeriphCLKConfig+0x84c>
 80065d0:	2101      	movs	r1, #1
 80065d2:	f105 0008 	add.w	r0, r5, #8
 80065d6:	f7ff faed 	bl	8005bb4 <RCCEx_PLL2_Config>
 80065da:	2800      	cmp	r0, #0
 80065dc:	bf18      	it	ne
 80065de:	4606      	movne	r6, r0
 80065e0:	686b      	ldr	r3, [r5, #4]
 80065e2:	0758      	lsls	r0, r3, #29
 80065e4:	d507      	bpl.n	80065f6 <HAL_RCCEx_PeriphCLKConfig+0x862>
 80065e6:	2102      	movs	r1, #2
 80065e8:	f105 0008 	add.w	r0, r5, #8
 80065ec:	f7ff fae2 	bl	8005bb4 <RCCEx_PLL2_Config>
 80065f0:	2800      	cmp	r0, #0
 80065f2:	bf18      	it	ne
 80065f4:	4606      	movne	r6, r0
 80065f6:	686b      	ldr	r3, [r5, #4]
 80065f8:	0719      	lsls	r1, r3, #28
 80065fa:	d507      	bpl.n	800660c <HAL_RCCEx_PeriphCLKConfig+0x878>
 80065fc:	2100      	movs	r1, #0
 80065fe:	f105 0028 	add.w	r0, r5, #40	; 0x28
 8006602:	f7ff fb4f 	bl	8005ca4 <RCCEx_PLL3_Config>
 8006606:	2800      	cmp	r0, #0
 8006608:	bf18      	it	ne
 800660a:	4606      	movne	r6, r0
 800660c:	686b      	ldr	r3, [r5, #4]
 800660e:	06da      	lsls	r2, r3, #27
 8006610:	d507      	bpl.n	8006622 <HAL_RCCEx_PeriphCLKConfig+0x88e>
 8006612:	2101      	movs	r1, #1
 8006614:	f105 0028 	add.w	r0, r5, #40	; 0x28
 8006618:	f7ff fb44 	bl	8005ca4 <RCCEx_PLL3_Config>
 800661c:	2800      	cmp	r0, #0
 800661e:	bf18      	it	ne
 8006620:	4606      	movne	r6, r0
 8006622:	686b      	ldr	r3, [r5, #4]
 8006624:	069b      	lsls	r3, r3, #26
 8006626:	f100 80bc 	bmi.w	80067a2 <HAL_RCCEx_PeriphCLKConfig+0xa0e>
 800662a:	1e30      	subs	r0, r6, #0
 800662c:	bf18      	it	ne
 800662e:	2001      	movne	r0, #1
 8006630:	e8bd 83f8 	ldmia.w	sp!, {r3, r4, r5, r6, r7, r8, r9, pc}
 8006634:	58024400 	.word	0x58024400
 8006638:	2101      	movs	r1, #1
 800663a:	f105 0028 	add.w	r0, r5, #40	; 0x28
 800663e:	f7ff fb31 	bl	8005ca4 <RCCEx_PLL3_Config>
 8006642:	e69e      	b.n	8006382 <HAL_RCCEx_PeriphCLKConfig+0x5ee>
 8006644:	2601      	movs	r6, #1
 8006646:	4634      	mov	r4, r6
 8006648:	e6a7      	b.n	800639a <HAL_RCCEx_PeriphCLKConfig+0x606>
 800664a:	4626      	mov	r6, r4
 800664c:	e6a5      	b.n	800639a <HAL_RCCEx_PeriphCLKConfig+0x606>
 800664e:	f023 5280 	bic.w	r2, r3, #268435456	; 0x10000000
 8006652:	f1b2 4f80 	cmp.w	r2, #1073741824	; 0x40000000
 8006656:	d003      	beq.n	8006660 <HAL_RCCEx_PeriphCLKConfig+0x8cc>
 8006658:	f1b3 5f40 	cmp.w	r3, #805306368	; 0x30000000
 800665c:	f47f aeaf 	bne.w	80063be <HAL_RCCEx_PeriphCLKConfig+0x62a>
 8006660:	b9ac      	cbnz	r4, 800668e <HAL_RCCEx_PeriphCLKConfig+0x8fa>
 8006662:	4a55      	ldr	r2, [pc, #340]	; (80067b8 <HAL_RCCEx_PeriphCLKConfig+0xa24>)
 8006664:	f8d5 1090 	ldr.w	r1, [r5, #144]	; 0x90
 8006668:	6d53      	ldr	r3, [r2, #84]	; 0x54
 800666a:	f023 43e0 	bic.w	r3, r3, #1879048192	; 0x70000000
 800666e:	430b      	orrs	r3, r1
 8006670:	6553      	str	r3, [r2, #84]	; 0x54
 8006672:	e6a6      	b.n	80063c2 <HAL_RCCEx_PeriphCLKConfig+0x62e>
 8006674:	2100      	movs	r1, #0
 8006676:	f105 0008 	add.w	r0, r5, #8
 800667a:	f7ff fa9b 	bl	8005bb4 <RCCEx_PLL2_Config>
 800667e:	4604      	mov	r4, r0
 8006680:	e7ee      	b.n	8006660 <HAL_RCCEx_PeriphCLKConfig+0x8cc>
 8006682:	2102      	movs	r1, #2
 8006684:	f105 0028 	add.w	r0, r5, #40	; 0x28
 8006688:	f7ff fb0c 	bl	8005ca4 <RCCEx_PLL3_Config>
 800668c:	e7f7      	b.n	800667e <HAL_RCCEx_PeriphCLKConfig+0x8ea>
 800668e:	4626      	mov	r6, r4
 8006690:	e697      	b.n	80063c2 <HAL_RCCEx_PeriphCLKConfig+0x62e>
 8006692:	f423 6280 	bic.w	r2, r3, #1024	; 0x400
 8006696:	f5b2 5f80 	cmp.w	r2, #4096	; 0x1000
 800669a:	d003      	beq.n	80066a4 <HAL_RCCEx_PeriphCLKConfig+0x910>
 800669c:	f5b3 6f40 	cmp.w	r3, #3072	; 0xc00
 80066a0:	f47f aea1 	bne.w	80063e6 <HAL_RCCEx_PeriphCLKConfig+0x652>
 80066a4:	b9ac      	cbnz	r4, 80066d2 <HAL_RCCEx_PeriphCLKConfig+0x93e>
 80066a6:	4a44      	ldr	r2, [pc, #272]	; (80067b8 <HAL_RCCEx_PeriphCLKConfig+0xa24>)
 80066a8:	f8d5 109c 	ldr.w	r1, [r5, #156]	; 0x9c
 80066ac:	6d93      	ldr	r3, [r2, #88]	; 0x58
 80066ae:	f423 53e0 	bic.w	r3, r3, #7168	; 0x1c00
 80066b2:	430b      	orrs	r3, r1
 80066b4:	6593      	str	r3, [r2, #88]	; 0x58
 80066b6:	e698      	b.n	80063ea <HAL_RCCEx_PeriphCLKConfig+0x656>
 80066b8:	2100      	movs	r1, #0
 80066ba:	f105 0008 	add.w	r0, r5, #8
 80066be:	f7ff fa79 	bl	8005bb4 <RCCEx_PLL2_Config>
 80066c2:	4604      	mov	r4, r0
 80066c4:	e7ee      	b.n	80066a4 <HAL_RCCEx_PeriphCLKConfig+0x910>
 80066c6:	2102      	movs	r1, #2
 80066c8:	f105 0028 	add.w	r0, r5, #40	; 0x28
 80066cc:	f7ff faea 	bl	8005ca4 <RCCEx_PLL3_Config>
 80066d0:	e7f7      	b.n	80066c2 <HAL_RCCEx_PeriphCLKConfig+0x92e>
 80066d2:	4626      	mov	r6, r4
 80066d4:	e689      	b.n	80063ea <HAL_RCCEx_PeriphCLKConfig+0x656>
 80066d6:	f423 5200 	bic.w	r2, r3, #8192	; 0x2000
 80066da:	f5b2 4f00 	cmp.w	r2, #32768	; 0x8000
 80066de:	d003      	beq.n	80066e8 <HAL_RCCEx_PeriphCLKConfig+0x954>
 80066e0:	f5b3 4fc0 	cmp.w	r3, #24576	; 0x6000
 80066e4:	f47f ae93 	bne.w	800640e <HAL_RCCEx_PeriphCLKConfig+0x67a>
 80066e8:	b9ac      	cbnz	r4, 8006716 <HAL_RCCEx_PeriphCLKConfig+0x982>
 80066ea:	4a33      	ldr	r2, [pc, #204]	; (80067b8 <HAL_RCCEx_PeriphCLKConfig+0xa24>)
 80066ec:	f8d5 10a0 	ldr.w	r1, [r5, #160]	; 0xa0
 80066f0:	6d93      	ldr	r3, [r2, #88]	; 0x58
 80066f2:	f423 4360 	bic.w	r3, r3, #57344	; 0xe000
 80066f6:	430b      	orrs	r3, r1
 80066f8:	6593      	str	r3, [r2, #88]	; 0x58
 80066fa:	e68a      	b.n	8006412 <HAL_RCCEx_PeriphCLKConfig+0x67e>
 80066fc:	2100      	movs	r1, #0
 80066fe:	f105 0008 	add.w	r0, r5, #8
 8006702:	f7ff fa57 	bl	8005bb4 <RCCEx_PLL2_Config>
 8006706:	4604      	mov	r4, r0
 8006708:	e7ee      	b.n	80066e8 <HAL_RCCEx_PeriphCLKConfig+0x954>
 800670a:	2102      	movs	r1, #2
 800670c:	f105 0028 	add.w	r0, r5, #40	; 0x28
 8006710:	f7ff fac8 	bl	8005ca4 <RCCEx_PLL3_Config>
 8006714:	e7f7      	b.n	8006706 <HAL_RCCEx_PeriphCLKConfig+0x972>
 8006716:	4626      	mov	r6, r4
 8006718:	e67b      	b.n	8006412 <HAL_RCCEx_PeriphCLKConfig+0x67e>
 800671a:	2102      	movs	r1, #2
 800671c:	f105 0028 	add.w	r0, r5, #40	; 0x28
 8006720:	f7ff fac0 	bl	8005ca4 <RCCEx_PLL3_Config>
 8006724:	e6b8      	b.n	8006498 <HAL_RCCEx_PeriphCLKConfig+0x704>
 8006726:	2601      	movs	r6, #1
 8006728:	4634      	mov	r4, r6
 800672a:	e6c1      	b.n	80064b0 <HAL_RCCEx_PeriphCLKConfig+0x71c>
 800672c:	4626      	mov	r6, r4
 800672e:	e6bf      	b.n	80064b0 <HAL_RCCEx_PeriphCLKConfig+0x71c>
 8006730:	2101      	movs	r1, #1
 8006732:	f105 0028 	add.w	r0, r5, #40	; 0x28
 8006736:	f7ff fab5 	bl	8005ca4 <RCCEx_PLL3_Config>
 800673a:	4604      	mov	r4, r0
 800673c:	e6cd      	b.n	80064da <HAL_RCCEx_PeriphCLKConfig+0x746>
 800673e:	2601      	movs	r6, #1
 8006740:	4634      	mov	r4, r6
 8006742:	e6d5      	b.n	80064f0 <HAL_RCCEx_PeriphCLKConfig+0x75c>
 8006744:	4626      	mov	r6, r4
 8006746:	e6d3      	b.n	80064f0 <HAL_RCCEx_PeriphCLKConfig+0x75c>
 8006748:	4a1b      	ldr	r2, [pc, #108]	; (80067b8 <HAL_RCCEx_PeriphCLKConfig+0xa24>)
 800674a:	6ad3      	ldr	r3, [r2, #44]	; 0x2c
 800674c:	f443 3300 	orr.w	r3, r3, #131072	; 0x20000
 8006750:	62d3      	str	r3, [r2, #44]	; 0x2c
 8006752:	b974      	cbnz	r4, 8006772 <HAL_RCCEx_PeriphCLKConfig+0x9de>
 8006754:	4a18      	ldr	r2, [pc, #96]	; (80067b8 <HAL_RCCEx_PeriphCLKConfig+0xa24>)
 8006756:	6d29      	ldr	r1, [r5, #80]	; 0x50
 8006758:	6cd3      	ldr	r3, [r2, #76]	; 0x4c
 800675a:	f423 3380 	bic.w	r3, r3, #65536	; 0x10000
 800675e:	430b      	orrs	r3, r1
 8006760:	64d3      	str	r3, [r2, #76]	; 0x4c
 8006762:	e6d2      	b.n	800650a <HAL_RCCEx_PeriphCLKConfig+0x776>
 8006764:	2102      	movs	r1, #2
 8006766:	f105 0008 	add.w	r0, r5, #8
 800676a:	f7ff fa23 	bl	8005bb4 <RCCEx_PLL2_Config>
 800676e:	4604      	mov	r4, r0
 8006770:	e7ef      	b.n	8006752 <HAL_RCCEx_PeriphCLKConfig+0x9be>
 8006772:	4626      	mov	r6, r4
 8006774:	e6c9      	b.n	800650a <HAL_RCCEx_PeriphCLKConfig+0x776>
 8006776:	f420 7280 	bic.w	r2, r0, #256	; 0x100
 800677a:	f5b2 7f00 	cmp.w	r2, #512	; 0x200
 800677e:	f47f aede 	bne.w	800653e <HAL_RCCEx_PeriphCLKConfig+0x7aa>
 8006782:	b964      	cbnz	r4, 800679e <HAL_RCCEx_PeriphCLKConfig+0xa0a>
 8006784:	4c0c      	ldr	r4, [pc, #48]	; (80067b8 <HAL_RCCEx_PeriphCLKConfig+0xa24>)
 8006786:	6d62      	ldr	r2, [r4, #84]	; 0x54
 8006788:	f422 7240 	bic.w	r2, r2, #768	; 0x300
 800678c:	4302      	orrs	r2, r0
 800678e:	6562      	str	r2, [r4, #84]	; 0x54
 8006790:	e6d6      	b.n	8006540 <HAL_RCCEx_PeriphCLKConfig+0x7ac>
 8006792:	4f09      	ldr	r7, [pc, #36]	; (80067b8 <HAL_RCCEx_PeriphCLKConfig+0xa24>)
 8006794:	6afa      	ldr	r2, [r7, #44]	; 0x2c
 8006796:	f442 3200 	orr.w	r2, r2, #131072	; 0x20000
 800679a:	62fa      	str	r2, [r7, #44]	; 0x2c
 800679c:	e7f1      	b.n	8006782 <HAL_RCCEx_PeriphCLKConfig+0x9ee>
 800679e:	4626      	mov	r6, r4
 80067a0:	e6ce      	b.n	8006540 <HAL_RCCEx_PeriphCLKConfig+0x7ac>
 80067a2:	2102      	movs	r1, #2
 80067a4:	f105 0028 	add.w	r0, r5, #40	; 0x28
 80067a8:	f7ff fa7c 	bl	8005ca4 <RCCEx_PLL3_Config>
 80067ac:	2800      	cmp	r0, #0
 80067ae:	f43f af3c 	beq.w	800662a <HAL_RCCEx_PeriphCLKConfig+0x896>
 80067b2:	2001      	movs	r0, #1
 80067b4:	e73c      	b.n	8006630 <HAL_RCCEx_PeriphCLKConfig+0x89c>
 80067b6:	bf00      	nop
 80067b8:	58024400 	.word	0x58024400

080067bc <SPI_CloseTransfer>:
 80067bc:	6803      	ldr	r3, [r0, #0]
 80067be:	6959      	ldr	r1, [r3, #20]
 80067c0:	699a      	ldr	r2, [r3, #24]
 80067c2:	f042 0208 	orr.w	r2, r2, #8
 80067c6:	619a      	str	r2, [r3, #24]
 80067c8:	699a      	ldr	r2, [r3, #24]
 80067ca:	f042 0210 	orr.w	r2, r2, #16
 80067ce:	619a      	str	r2, [r3, #24]
 80067d0:	681a      	ldr	r2, [r3, #0]
 80067d2:	f022 0201 	bic.w	r2, r2, #1
 80067d6:	601a      	str	r2, [r3, #0]
 80067d8:	691a      	ldr	r2, [r3, #16]
 80067da:	f422 725b 	bic.w	r2, r2, #876	; 0x36c
 80067de:	f022 0203 	bic.w	r2, r2, #3
 80067e2:	611a      	str	r2, [r3, #16]
 80067e4:	689a      	ldr	r2, [r3, #8]
 80067e6:	f422 4240 	bic.w	r2, r2, #49152	; 0xc000
 80067ea:	609a      	str	r2, [r3, #8]
 80067ec:	f890 2081 	ldrb.w	r2, [r0, #129]	; 0x81
 80067f0:	2a04      	cmp	r2, #4
 80067f2:	d00b      	beq.n	800680c <SPI_CloseTransfer+0x50>
 80067f4:	068a      	lsls	r2, r1, #26
 80067f6:	d509      	bpl.n	800680c <SPI_CloseTransfer+0x50>
 80067f8:	f8d0 2084 	ldr.w	r2, [r0, #132]	; 0x84
 80067fc:	f042 0280 	orr.w	r2, r2, #128	; 0x80
 8006800:	f8c0 2084 	str.w	r2, [r0, #132]	; 0x84
 8006804:	699a      	ldr	r2, [r3, #24]
 8006806:	f042 0220 	orr.w	r2, r2, #32
 800680a:	619a      	str	r2, [r3, #24]
 800680c:	f890 2081 	ldrb.w	r2, [r0, #129]	; 0x81
 8006810:	2a03      	cmp	r2, #3
 8006812:	d00b      	beq.n	800682c <SPI_CloseTransfer+0x70>
 8006814:	064a      	lsls	r2, r1, #25
 8006816:	d509      	bpl.n	800682c <SPI_CloseTransfer+0x70>
 8006818:	f8d0 2084 	ldr.w	r2, [r0, #132]	; 0x84
 800681c:	f042 0204 	orr.w	r2, r2, #4
 8006820:	f8c0 2084 	str.w	r2, [r0, #132]	; 0x84
 8006824:	699a      	ldr	r2, [r3, #24]
 8006826:	f042 0240 	orr.w	r2, r2, #64	; 0x40
 800682a:	619a      	str	r2, [r3, #24]
 800682c:	058a      	lsls	r2, r1, #22
 800682e:	d509      	bpl.n	8006844 <SPI_CloseTransfer+0x88>
 8006830:	f8d0 2084 	ldr.w	r2, [r0, #132]	; 0x84
 8006834:	f042 0201 	orr.w	r2, r2, #1
 8006838:	f8c0 2084 	str.w	r2, [r0, #132]	; 0x84
 800683c:	699a      	ldr	r2, [r3, #24]
 800683e:	f442 7200 	orr.w	r2, r2, #512	; 0x200
 8006842:	619a      	str	r2, [r3, #24]
 8006844:	05ca      	lsls	r2, r1, #23
 8006846:	d509      	bpl.n	800685c <SPI_CloseTransfer+0xa0>
 8006848:	f8d0 2084 	ldr.w	r2, [r0, #132]	; 0x84
 800684c:	f042 0208 	orr.w	r2, r2, #8
 8006850:	f8c0 2084 	str.w	r2, [r0, #132]	; 0x84
 8006854:	699a      	ldr	r2, [r3, #24]
 8006856:	f442 7280 	orr.w	r2, r2, #256	; 0x100
 800685a:	619a      	str	r2, [r3, #24]
 800685c:	2300      	movs	r3, #0
 800685e:	f8a0 3062 	strh.w	r3, [r0, #98]	; 0x62
 8006862:	f8a0 306a 	strh.w	r3, [r0, #106]	; 0x6a
 8006866:	4770      	bx	lr

08006868 <HAL_SPI_Init>:
 8006868:	b5f8      	push	{r3, r4, r5, r6, r7, lr}
 800686a:	4604      	mov	r4, r0
 800686c:	b908      	cbnz	r0, 8006872 <HAL_SPI_Init+0xa>
 800686e:	2001      	movs	r0, #1
 8006870:	bdf8      	pop	{r3, r4, r5, r6, r7, pc}
 8006872:	6802      	ldr	r2, [r0, #0]
 8006874:	2300      	movs	r3, #0
 8006876:	494d      	ldr	r1, [pc, #308]	; (80069ac <HAL_SPI_Init+0x144>)
 8006878:	6283      	str	r3, [r0, #40]	; 0x28
 800687a:	428a      	cmp	r2, r1
 800687c:	68c3      	ldr	r3, [r0, #12]
 800687e:	d009      	beq.n	8006894 <HAL_SPI_Init+0x2c>
 8006880:	f5a1 4178 	sub.w	r1, r1, #63488	; 0xf800
 8006884:	428a      	cmp	r2, r1
 8006886:	d005      	beq.n	8006894 <HAL_SPI_Init+0x2c>
 8006888:	f501 6180 	add.w	r1, r1, #1024	; 0x400
 800688c:	428a      	cmp	r2, r1
 800688e:	d001      	beq.n	8006894 <HAL_SPI_Init+0x2c>
 8006890:	2b0f      	cmp	r3, #15
 8006892:	d8ec      	bhi.n	800686e <HAL_SPI_Init+0x6>
 8006894:	6be1      	ldr	r1, [r4, #60]	; 0x3c
 8006896:	3308      	adds	r3, #8
 8006898:	0949      	lsrs	r1, r1, #5
 800689a:	08db      	lsrs	r3, r3, #3
 800689c:	fb01 3303 	mla	r3, r1, r3, r3
 80068a0:	4942      	ldr	r1, [pc, #264]	; (80069ac <HAL_SPI_Init+0x144>)
 80068a2:	428a      	cmp	r2, r1
 80068a4:	d073      	beq.n	800698e <HAL_SPI_Init+0x126>
 80068a6:	f5a1 4178 	sub.w	r1, r1, #63488	; 0xf800
 80068aa:	428a      	cmp	r2, r1
 80068ac:	d06f      	beq.n	800698e <HAL_SPI_Init+0x126>
 80068ae:	f501 6180 	add.w	r1, r1, #1024	; 0x400
 80068b2:	428a      	cmp	r2, r1
 80068b4:	d06b      	beq.n	800698e <HAL_SPI_Init+0x126>
 80068b6:	2b08      	cmp	r3, #8
 80068b8:	d8d9      	bhi.n	800686e <HAL_SPI_Init+0x6>
 80068ba:	f894 3081 	ldrb.w	r3, [r4, #129]	; 0x81
 80068be:	f003 02ff 	and.w	r2, r3, #255	; 0xff
 80068c2:	b923      	cbnz	r3, 80068ce <HAL_SPI_Init+0x66>
 80068c4:	4620      	mov	r0, r4
 80068c6:	f884 2080 	strb.w	r2, [r4, #128]	; 0x80
 80068ca:	f7fc f9db 	bl	8002c84 <HAL_SPI_MspInit>
 80068ce:	6822      	ldr	r2, [r4, #0]
 80068d0:	2302      	movs	r3, #2
 80068d2:	6861      	ldr	r1, [r4, #4]
 80068d4:	f884 3081 	strb.w	r3, [r4, #129]	; 0x81
 80068d8:	6813      	ldr	r3, [r2, #0]
 80068da:	6ba6      	ldr	r6, [r4, #56]	; 0x38
 80068dc:	f023 0301 	bic.w	r3, r3, #1
 80068e0:	6013      	str	r3, [r2, #0]
 80068e2:	6893      	ldr	r3, [r2, #8]
 80068e4:	f403 1cf8 	and.w	ip, r3, #2031616	; 0x1f0000
 80068e8:	69a3      	ldr	r3, [r4, #24]
 80068ea:	f1b3 6f80 	cmp.w	r3, #67108864	; 0x4000000
 80068ee:	d104      	bne.n	80068fa <HAL_SPI_Init+0x92>
 80068f0:	f5b1 0f80 	cmp.w	r1, #4194304	; 0x400000
 80068f4:	d14d      	bne.n	8006992 <HAL_SPI_Init+0x12a>
 80068f6:	2e00      	cmp	r6, #0
 80068f8:	d050      	beq.n	800699c <HAL_SPI_Init+0x134>
 80068fa:	f411 0080 	ands.w	r0, r1, #4194304	; 0x400000
 80068fe:	68e5      	ldr	r5, [r4, #12]
 8006900:	6817      	ldr	r7, [r2, #0]
 8006902:	d050      	beq.n	80069a6 <HAL_SPI_Init+0x13e>
 8006904:	2d06      	cmp	r5, #6
 8006906:	d94e      	bls.n	80069a6 <HAL_SPI_Init+0x13e>
 8006908:	f427 7e80 	bic.w	lr, r7, #256	; 0x100
 800690c:	6d27      	ldr	r7, [r4, #80]	; 0x50
 800690e:	ea4e 0707 	orr.w	r7, lr, r7
 8006912:	6017      	str	r7, [r2, #0]
 8006914:	430b      	orrs	r3, r1
 8006916:	69e7      	ldr	r7, [r4, #28]
 8006918:	4333      	orrs	r3, r6
 800691a:	433d      	orrs	r5, r7
 800691c:	6aa7      	ldr	r7, [r4, #40]	; 0x28
 800691e:	433d      	orrs	r5, r7
 8006920:	6be7      	ldr	r7, [r4, #60]	; 0x3c
 8006922:	433d      	orrs	r5, r7
 8006924:	ea45 050c 	orr.w	r5, r5, ip
 8006928:	6095      	str	r5, [r2, #8]
 800692a:	6b65      	ldr	r5, [r4, #52]	; 0x34
 800692c:	432b      	orrs	r3, r5
 800692e:	6a65      	ldr	r5, [r4, #36]	; 0x24
 8006930:	432b      	orrs	r3, r5
 8006932:	6925      	ldr	r5, [r4, #16]
 8006934:	432b      	orrs	r3, r5
 8006936:	6965      	ldr	r5, [r4, #20]
 8006938:	432b      	orrs	r3, r5
 800693a:	6a25      	ldr	r5, [r4, #32]
 800693c:	432b      	orrs	r3, r5
 800693e:	6ce5      	ldr	r5, [r4, #76]	; 0x4c
 8006940:	432b      	orrs	r3, r5
 8006942:	68a5      	ldr	r5, [r4, #8]
 8006944:	432b      	orrs	r3, r5
 8006946:	6ca5      	ldr	r5, [r4, #72]	; 0x48
 8006948:	432b      	orrs	r3, r5
 800694a:	6da5      	ldr	r5, [r4, #88]	; 0x58
 800694c:	432b      	orrs	r3, r5
 800694e:	60d3      	str	r3, [r2, #12]
 8006950:	b959      	cbnz	r1, 800696a <HAL_SPI_Init+0x102>
 8006952:	6893      	ldr	r3, [r2, #8]
 8006954:	f423 53c0 	bic.w	r3, r3, #6144	; 0x1800
 8006958:	f443 6300 	orr.w	r3, r3, #2048	; 0x800
 800695c:	6093      	str	r3, [r2, #8]
 800695e:	6893      	ldr	r3, [r2, #8]
 8006960:	f423 63c0 	bic.w	r3, r3, #1536	; 0x600
 8006964:	f443 6380 	orr.w	r3, r3, #1024	; 0x400
 8006968:	6093      	str	r3, [r2, #8]
 800696a:	6d13      	ldr	r3, [r2, #80]	; 0x50
 800696c:	f023 0301 	bic.w	r3, r3, #1
 8006970:	6513      	str	r3, [r2, #80]	; 0x50
 8006972:	b128      	cbz	r0, 8006980 <HAL_SPI_Init+0x118>
 8006974:	68d3      	ldr	r3, [r2, #12]
 8006976:	6d61      	ldr	r1, [r4, #84]	; 0x54
 8006978:	f023 4300 	bic.w	r3, r3, #2147483648	; 0x80000000
 800697c:	430b      	orrs	r3, r1
 800697e:	60d3      	str	r3, [r2, #12]
 8006980:	2000      	movs	r0, #0
 8006982:	2301      	movs	r3, #1
 8006984:	f8c4 0084 	str.w	r0, [r4, #132]	; 0x84
 8006988:	f884 3081 	strb.w	r3, [r4, #129]	; 0x81
 800698c:	e770      	b.n	8006870 <HAL_SPI_Init+0x8>
 800698e:	2b10      	cmp	r3, #16
 8006990:	e792      	b.n	80068b8 <HAL_SPI_Init+0x50>
 8006992:	2900      	cmp	r1, #0
 8006994:	d1b1      	bne.n	80068fa <HAL_SPI_Init+0x92>
 8006996:	f1b6 5f80 	cmp.w	r6, #268435456	; 0x10000000
 800699a:	d1ae      	bne.n	80068fa <HAL_SPI_Init+0x92>
 800699c:	6810      	ldr	r0, [r2, #0]
 800699e:	f440 5080 	orr.w	r0, r0, #4096	; 0x1000
 80069a2:	6010      	str	r0, [r2, #0]
 80069a4:	e7a9      	b.n	80068fa <HAL_SPI_Init+0x92>
 80069a6:	f427 7780 	bic.w	r7, r7, #256	; 0x100
 80069aa:	e7b2      	b.n	8006912 <HAL_SPI_Init+0xaa>
 80069ac:	40013000 	.word	0x40013000

080069b0 <HAL_SPI_Transmit>:
 80069b0:	e92d 43f8 	stmdb	sp!, {r3, r4, r5, r6, r7, r8, r9, lr}
 80069b4:	461d      	mov	r5, r3
 80069b6:	f890 3080 	ldrb.w	r3, [r0, #128]	; 0x80
 80069ba:	4604      	mov	r4, r0
 80069bc:	4689      	mov	r9, r1
 80069be:	2b01      	cmp	r3, #1
 80069c0:	4690      	mov	r8, r2
 80069c2:	d00e      	beq.n	80069e2 <HAL_SPI_Transmit+0x32>
 80069c4:	2301      	movs	r3, #1
 80069c6:	6807      	ldr	r7, [r0, #0]
 80069c8:	f880 3080 	strb.w	r3, [r0, #128]	; 0x80
 80069cc:	f7fc fb80 	bl	80030d0 <HAL_GetTick>
 80069d0:	f894 3081 	ldrb.w	r3, [r4, #129]	; 0x81
 80069d4:	4606      	mov	r6, r0
 80069d6:	2b01      	cmp	r3, #1
 80069d8:	b2d8      	uxtb	r0, r3
 80069da:	d004      	beq.n	80069e6 <HAL_SPI_Transmit+0x36>
 80069dc:	2300      	movs	r3, #0
 80069de:	f884 3080 	strb.w	r3, [r4, #128]	; 0x80
 80069e2:	2002      	movs	r0, #2
 80069e4:	e008      	b.n	80069f8 <HAL_SPI_Transmit+0x48>
 80069e6:	f1b9 0f00 	cmp.w	r9, #0
 80069ea:	d002      	beq.n	80069f2 <HAL_SPI_Transmit+0x42>
 80069ec:	f1b8 0f00 	cmp.w	r8, #0
 80069f0:	d104      	bne.n	80069fc <HAL_SPI_Transmit+0x4c>
 80069f2:	2300      	movs	r3, #0
 80069f4:	f884 3080 	strb.w	r3, [r4, #128]	; 0x80
 80069f8:	e8bd 83f8 	ldmia.w	sp!, {r3, r4, r5, r6, r7, r8, r9, pc}
 80069fc:	2303      	movs	r3, #3
 80069fe:	68a2      	ldr	r2, [r4, #8]
 8006a00:	f8c4 905c 	str.w	r9, [r4, #92]	; 0x5c
 8006a04:	f884 3081 	strb.w	r3, [r4, #129]	; 0x81
 8006a08:	f5b2 2fc0 	cmp.w	r2, #393216	; 0x60000
 8006a0c:	f04f 0300 	mov.w	r3, #0
 8006a10:	f8a4 8060 	strh.w	r8, [r4, #96]	; 0x60
 8006a14:	f8c4 3084 	str.w	r3, [r4, #132]	; 0x84
 8006a18:	6663      	str	r3, [r4, #100]	; 0x64
 8006a1a:	f8a4 8062 	strh.w	r8, [r4, #98]	; 0x62
 8006a1e:	f8a4 3068 	strh.w	r3, [r4, #104]	; 0x68
 8006a22:	f8a4 306a 	strh.w	r3, [r4, #106]	; 0x6a
 8006a26:	e9c4 331c 	strd	r3, r3, [r4, #112]	; 0x70
 8006a2a:	6823      	ldr	r3, [r4, #0]
 8006a2c:	d13b      	bne.n	8006aa6 <HAL_SPI_Transmit+0xf6>
 8006a2e:	681a      	ldr	r2, [r3, #0]
 8006a30:	f442 6200 	orr.w	r2, r2, #2048	; 0x800
 8006a34:	601a      	str	r2, [r3, #0]
 8006a36:	6859      	ldr	r1, [r3, #4]
 8006a38:	0c09      	lsrs	r1, r1, #16
 8006a3a:	0409      	lsls	r1, r1, #16
 8006a3c:	ea41 0108 	orr.w	r1, r1, r8
 8006a40:	6059      	str	r1, [r3, #4]
 8006a42:	681a      	ldr	r2, [r3, #0]
 8006a44:	f042 0201 	orr.w	r2, r2, #1
 8006a48:	601a      	str	r2, [r3, #0]
 8006a4a:	6862      	ldr	r2, [r4, #4]
 8006a4c:	f5b2 0f80 	cmp.w	r2, #4194304	; 0x400000
 8006a50:	d103      	bne.n	8006a5a <HAL_SPI_Transmit+0xaa>
 8006a52:	681a      	ldr	r2, [r3, #0]
 8006a54:	f442 7200 	orr.w	r2, r2, #512	; 0x200
 8006a58:	601a      	str	r2, [r3, #0]
 8006a5a:	68e3      	ldr	r3, [r4, #12]
 8006a5c:	2b0f      	cmp	r3, #15
 8006a5e:	d838      	bhi.n	8006ad2 <HAL_SPI_Transmit+0x122>
 8006a60:	2b07      	cmp	r3, #7
 8006a62:	d87c      	bhi.n	8006b5e <HAL_SPI_Transmit+0x1ae>
 8006a64:	f8b4 3062 	ldrh.w	r3, [r4, #98]	; 0x62
 8006a68:	6821      	ldr	r1, [r4, #0]
 8006a6a:	b29b      	uxth	r3, r3
 8006a6c:	2b00      	cmp	r3, #0
 8006a6e:	d036      	beq.n	8006ade <HAL_SPI_Transmit+0x12e>
 8006a70:	694b      	ldr	r3, [r1, #20]
 8006a72:	f013 0802 	ands.w	r8, r3, #2
 8006a76:	f000 80a7 	beq.w	8006bc8 <HAL_SPI_Transmit+0x218>
 8006a7a:	f8b4 3062 	ldrh.w	r3, [r4, #98]	; 0x62
 8006a7e:	6de2      	ldr	r2, [r4, #92]	; 0x5c
 8006a80:	b29b      	uxth	r3, r3
 8006a82:	2b03      	cmp	r3, #3
 8006a84:	f240 8087 	bls.w	8006b96 <HAL_SPI_Transmit+0x1e6>
 8006a88:	6be3      	ldr	r3, [r4, #60]	; 0x3c
 8006a8a:	2b40      	cmp	r3, #64	; 0x40
 8006a8c:	f240 8083 	bls.w	8006b96 <HAL_SPI_Transmit+0x1e6>
 8006a90:	f852 3b04 	ldr.w	r3, [r2], #4
 8006a94:	620b      	str	r3, [r1, #32]
 8006a96:	f8b4 3062 	ldrh.w	r3, [r4, #98]	; 0x62
 8006a9a:	65e2      	str	r2, [r4, #92]	; 0x5c
 8006a9c:	3b04      	subs	r3, #4
 8006a9e:	b29b      	uxth	r3, r3
 8006aa0:	f8a4 3062 	strh.w	r3, [r4, #98]	; 0x62
 8006aa4:	e7de      	b.n	8006a64 <HAL_SPI_Transmit+0xb4>
 8006aa6:	68da      	ldr	r2, [r3, #12]
 8006aa8:	f422 22c0 	bic.w	r2, r2, #393216	; 0x60000
 8006aac:	f442 3200 	orr.w	r2, r2, #131072	; 0x20000
 8006ab0:	60da      	str	r2, [r3, #12]
 8006ab2:	e7c0      	b.n	8006a36 <HAL_SPI_Transmit+0x86>
 8006ab4:	6957      	ldr	r7, [r2, #20]
 8006ab6:	f017 0702 	ands.w	r7, r7, #2
 8006aba:	d023      	beq.n	8006b04 <HAL_SPI_Transmit+0x154>
 8006abc:	6de3      	ldr	r3, [r4, #92]	; 0x5c
 8006abe:	f853 1b04 	ldr.w	r1, [r3], #4
 8006ac2:	6211      	str	r1, [r2, #32]
 8006ac4:	65e3      	str	r3, [r4, #92]	; 0x5c
 8006ac6:	f8b4 3062 	ldrh.w	r3, [r4, #98]	; 0x62
 8006aca:	3b01      	subs	r3, #1
 8006acc:	b29b      	uxth	r3, r3
 8006ace:	f8a4 3062 	strh.w	r3, [r4, #98]	; 0x62
 8006ad2:	f8b4 3062 	ldrh.w	r3, [r4, #98]	; 0x62
 8006ad6:	6822      	ldr	r2, [r4, #0]
 8006ad8:	b29b      	uxth	r3, r3
 8006ada:	2b00      	cmp	r3, #0
 8006adc:	d1ea      	bne.n	8006ab4 <HAL_SPI_Transmit+0x104>
 8006ade:	6823      	ldr	r3, [r4, #0]
 8006ae0:	695b      	ldr	r3, [r3, #20]
 8006ae2:	071b      	lsls	r3, r3, #28
 8006ae4:	d57a      	bpl.n	8006bdc <HAL_SPI_Transmit+0x22c>
 8006ae6:	4620      	mov	r0, r4
 8006ae8:	f7ff fe68 	bl	80067bc <SPI_CloseTransfer>
 8006aec:	2300      	movs	r3, #0
 8006aee:	f884 3080 	strb.w	r3, [r4, #128]	; 0x80
 8006af2:	2301      	movs	r3, #1
 8006af4:	f884 3081 	strb.w	r3, [r4, #129]	; 0x81
 8006af8:	f8d4 0084 	ldr.w	r0, [r4, #132]	; 0x84
 8006afc:	3800      	subs	r0, #0
 8006afe:	bf18      	it	ne
 8006b00:	2001      	movne	r0, #1
 8006b02:	e779      	b.n	80069f8 <HAL_SPI_Transmit+0x48>
 8006b04:	f7fc fae4 	bl	80030d0 <HAL_GetTick>
 8006b08:	1b80      	subs	r0, r0, r6
 8006b0a:	42a8      	cmp	r0, r5
 8006b0c:	d3e1      	bcc.n	8006ad2 <HAL_SPI_Transmit+0x122>
 8006b0e:	1c6b      	adds	r3, r5, #1
 8006b10:	d0df      	beq.n	8006ad2 <HAL_SPI_Transmit+0x122>
 8006b12:	4620      	mov	r0, r4
 8006b14:	f7ff fe52 	bl	80067bc <SPI_CloseTransfer>
 8006b18:	f884 7080 	strb.w	r7, [r4, #128]	; 0x80
 8006b1c:	f8d0 3084 	ldr.w	r3, [r0, #132]	; 0x84
 8006b20:	f443 7380 	orr.w	r3, r3, #256	; 0x100
 8006b24:	f8c0 3084 	str.w	r3, [r0, #132]	; 0x84
 8006b28:	2301      	movs	r3, #1
 8006b2a:	f880 3081 	strb.w	r3, [r0, #129]	; 0x81
 8006b2e:	2003      	movs	r0, #3
 8006b30:	e762      	b.n	80069f8 <HAL_SPI_Transmit+0x48>
 8006b32:	694b      	ldr	r3, [r1, #20]
 8006b34:	f013 0802 	ands.w	r8, r3, #2
 8006b38:	d020      	beq.n	8006b7c <HAL_SPI_Transmit+0x1cc>
 8006b3a:	f8b4 2062 	ldrh.w	r2, [r4, #98]	; 0x62
 8006b3e:	6de3      	ldr	r3, [r4, #92]	; 0x5c
 8006b40:	b292      	uxth	r2, r2
 8006b42:	2a01      	cmp	r2, #1
 8006b44:	d912      	bls.n	8006b6c <HAL_SPI_Transmit+0x1bc>
 8006b46:	6be2      	ldr	r2, [r4, #60]	; 0x3c
 8006b48:	b182      	cbz	r2, 8006b6c <HAL_SPI_Transmit+0x1bc>
 8006b4a:	f853 2b04 	ldr.w	r2, [r3], #4
 8006b4e:	620a      	str	r2, [r1, #32]
 8006b50:	65e3      	str	r3, [r4, #92]	; 0x5c
 8006b52:	f8b4 3062 	ldrh.w	r3, [r4, #98]	; 0x62
 8006b56:	3b02      	subs	r3, #2
 8006b58:	b29b      	uxth	r3, r3
 8006b5a:	f8a4 3062 	strh.w	r3, [r4, #98]	; 0x62
 8006b5e:	f8b4 3062 	ldrh.w	r3, [r4, #98]	; 0x62
 8006b62:	6821      	ldr	r1, [r4, #0]
 8006b64:	b29b      	uxth	r3, r3
 8006b66:	2b00      	cmp	r3, #0
 8006b68:	d1e3      	bne.n	8006b32 <HAL_SPI_Transmit+0x182>
 8006b6a:	e7b8      	b.n	8006ade <HAL_SPI_Transmit+0x12e>
 8006b6c:	f833 2b02 	ldrh.w	r2, [r3], #2
 8006b70:	843a      	strh	r2, [r7, #32]
 8006b72:	65e3      	str	r3, [r4, #92]	; 0x5c
 8006b74:	f8b4 3062 	ldrh.w	r3, [r4, #98]	; 0x62
 8006b78:	3b01      	subs	r3, #1
 8006b7a:	e7ed      	b.n	8006b58 <HAL_SPI_Transmit+0x1a8>
 8006b7c:	f7fc faa8 	bl	80030d0 <HAL_GetTick>
 8006b80:	1b80      	subs	r0, r0, r6
 8006b82:	42a8      	cmp	r0, r5
 8006b84:	d3eb      	bcc.n	8006b5e <HAL_SPI_Transmit+0x1ae>
 8006b86:	1c68      	adds	r0, r5, #1
 8006b88:	d0e9      	beq.n	8006b5e <HAL_SPI_Transmit+0x1ae>
 8006b8a:	4620      	mov	r0, r4
 8006b8c:	f7ff fe16 	bl	80067bc <SPI_CloseTransfer>
 8006b90:	f884 8080 	strb.w	r8, [r4, #128]	; 0x80
 8006b94:	e7c2      	b.n	8006b1c <HAL_SPI_Transmit+0x16c>
 8006b96:	f8b4 3062 	ldrh.w	r3, [r4, #98]	; 0x62
 8006b9a:	b29b      	uxth	r3, r3
 8006b9c:	2b01      	cmp	r3, #1
 8006b9e:	d909      	bls.n	8006bb4 <HAL_SPI_Transmit+0x204>
 8006ba0:	6be3      	ldr	r3, [r4, #60]	; 0x3c
 8006ba2:	b13b      	cbz	r3, 8006bb4 <HAL_SPI_Transmit+0x204>
 8006ba4:	f832 3b02 	ldrh.w	r3, [r2], #2
 8006ba8:	843b      	strh	r3, [r7, #32]
 8006baa:	f8b4 3062 	ldrh.w	r3, [r4, #98]	; 0x62
 8006bae:	65e2      	str	r2, [r4, #92]	; 0x5c
 8006bb0:	3b02      	subs	r3, #2
 8006bb2:	e774      	b.n	8006a9e <HAL_SPI_Transmit+0xee>
 8006bb4:	7813      	ldrb	r3, [r2, #0]
 8006bb6:	f881 3020 	strb.w	r3, [r1, #32]
 8006bba:	6de3      	ldr	r3, [r4, #92]	; 0x5c
 8006bbc:	3301      	adds	r3, #1
 8006bbe:	65e3      	str	r3, [r4, #92]	; 0x5c
 8006bc0:	f8b4 3062 	ldrh.w	r3, [r4, #98]	; 0x62
 8006bc4:	3b01      	subs	r3, #1
 8006bc6:	e76a      	b.n	8006a9e <HAL_SPI_Transmit+0xee>
 8006bc8:	f7fc fa82 	bl	80030d0 <HAL_GetTick>
 8006bcc:	1b80      	subs	r0, r0, r6
 8006bce:	42a8      	cmp	r0, r5
 8006bd0:	f4ff af48 	bcc.w	8006a64 <HAL_SPI_Transmit+0xb4>
 8006bd4:	1c69      	adds	r1, r5, #1
 8006bd6:	f43f af45 	beq.w	8006a64 <HAL_SPI_Transmit+0xb4>
 8006bda:	e7d6      	b.n	8006b8a <HAL_SPI_Transmit+0x1da>
 8006bdc:	f7fc fa78 	bl	80030d0 <HAL_GetTick>
 8006be0:	1b80      	subs	r0, r0, r6
 8006be2:	4285      	cmp	r5, r0
 8006be4:	f63f af7b 	bhi.w	8006ade <HAL_SPI_Transmit+0x12e>
 8006be8:	1c6a      	adds	r2, r5, #1
 8006bea:	f43f af78 	beq.w	8006ade <HAL_SPI_Transmit+0x12e>
 8006bee:	f8d4 3084 	ldr.w	r3, [r4, #132]	; 0x84
 8006bf2:	f043 0320 	orr.w	r3, r3, #32
 8006bf6:	f8c4 3084 	str.w	r3, [r4, #132]	; 0x84
 8006bfa:	e774      	b.n	8006ae6 <HAL_SPI_Transmit+0x136>

08006bfc <HAL_SPI_Receive>:
 8006bfc:	e92d 43f8 	stmdb	sp!, {r3, r4, r5, r6, r7, r8, r9, lr}
 8006c00:	461d      	mov	r5, r3
 8006c02:	f890 3080 	ldrb.w	r3, [r0, #128]	; 0x80
 8006c06:	4604      	mov	r4, r0
 8006c08:	4689      	mov	r9, r1
 8006c0a:	2b01      	cmp	r3, #1
 8006c0c:	4690      	mov	r8, r2
 8006c0e:	d00e      	beq.n	8006c2e <HAL_SPI_Receive+0x32>
 8006c10:	2301      	movs	r3, #1
 8006c12:	6807      	ldr	r7, [r0, #0]
 8006c14:	f880 3080 	strb.w	r3, [r0, #128]	; 0x80
 8006c18:	f7fc fa5a 	bl	80030d0 <HAL_GetTick>
 8006c1c:	f894 3081 	ldrb.w	r3, [r4, #129]	; 0x81
 8006c20:	4606      	mov	r6, r0
 8006c22:	2b01      	cmp	r3, #1
 8006c24:	b2d8      	uxtb	r0, r3
 8006c26:	d004      	beq.n	8006c32 <HAL_SPI_Receive+0x36>
 8006c28:	2300      	movs	r3, #0
 8006c2a:	f884 3080 	strb.w	r3, [r4, #128]	; 0x80
 8006c2e:	2002      	movs	r0, #2
 8006c30:	e008      	b.n	8006c44 <HAL_SPI_Receive+0x48>
 8006c32:	f1b9 0f00 	cmp.w	r9, #0
 8006c36:	d002      	beq.n	8006c3e <HAL_SPI_Receive+0x42>
 8006c38:	f1b8 0f00 	cmp.w	r8, #0
 8006c3c:	d104      	bne.n	8006c48 <HAL_SPI_Receive+0x4c>
 8006c3e:	2300      	movs	r3, #0
 8006c40:	f884 3080 	strb.w	r3, [r4, #128]	; 0x80
 8006c44:	e8bd 83f8 	ldmia.w	sp!, {r3, r4, r5, r6, r7, r8, r9, pc}
 8006c48:	2304      	movs	r3, #4
 8006c4a:	6821      	ldr	r1, [r4, #0]
 8006c4c:	f8c4 9064 	str.w	r9, [r4, #100]	; 0x64
 8006c50:	f884 3081 	strb.w	r3, [r4, #129]	; 0x81
 8006c54:	2300      	movs	r3, #0
 8006c56:	f8a4 8068 	strh.w	r8, [r4, #104]	; 0x68
 8006c5a:	f8c4 3084 	str.w	r3, [r4, #132]	; 0x84
 8006c5e:	65e3      	str	r3, [r4, #92]	; 0x5c
 8006c60:	f8a4 806a 	strh.w	r8, [r4, #106]	; 0x6a
 8006c64:	f8a4 3060 	strh.w	r3, [r4, #96]	; 0x60
 8006c68:	f8a4 3062 	strh.w	r3, [r4, #98]	; 0x62
 8006c6c:	e9c4 331c 	strd	r3, r3, [r4, #112]	; 0x70
 8006c70:	68a3      	ldr	r3, [r4, #8]
 8006c72:	f5b3 2fc0 	cmp.w	r3, #393216	; 0x60000
 8006c76:	d12d      	bne.n	8006cd4 <HAL_SPI_Receive+0xd8>
 8006c78:	680b      	ldr	r3, [r1, #0]
 8006c7a:	f423 6300 	bic.w	r3, r3, #2048	; 0x800
 8006c7e:	600b      	str	r3, [r1, #0]
 8006c80:	684b      	ldr	r3, [r1, #4]
 8006c82:	0c1b      	lsrs	r3, r3, #16
 8006c84:	041b      	lsls	r3, r3, #16
 8006c86:	ea43 0308 	orr.w	r3, r3, r8
 8006c8a:	604b      	str	r3, [r1, #4]
 8006c8c:	680b      	ldr	r3, [r1, #0]
 8006c8e:	f043 0301 	orr.w	r3, r3, #1
 8006c92:	600b      	str	r3, [r1, #0]
 8006c94:	6863      	ldr	r3, [r4, #4]
 8006c96:	f5b3 0f80 	cmp.w	r3, #4194304	; 0x400000
 8006c9a:	d103      	bne.n	8006ca4 <HAL_SPI_Receive+0xa8>
 8006c9c:	680b      	ldr	r3, [r1, #0]
 8006c9e:	f443 7300 	orr.w	r3, r3, #512	; 0x200
 8006ca2:	600b      	str	r3, [r1, #0]
 8006ca4:	68e3      	ldr	r3, [r4, #12]
 8006ca6:	2b0f      	cmp	r3, #15
 8006ca8:	d939      	bls.n	8006d1e <HAL_SPI_Receive+0x122>
 8006caa:	f248 0808 	movw	r8, #32776	; 0x8008
 8006cae:	f8b4 306a 	ldrh.w	r3, [r4, #106]	; 0x6a
 8006cb2:	b29b      	uxth	r3, r3
 8006cb4:	b9ab      	cbnz	r3, 8006ce2 <HAL_SPI_Receive+0xe6>
 8006cb6:	4620      	mov	r0, r4
 8006cb8:	f7ff fd80 	bl	80067bc <SPI_CloseTransfer>
 8006cbc:	2300      	movs	r3, #0
 8006cbe:	f884 3080 	strb.w	r3, [r4, #128]	; 0x80
 8006cc2:	2301      	movs	r3, #1
 8006cc4:	f884 3081 	strb.w	r3, [r4, #129]	; 0x81
 8006cc8:	f8d4 0084 	ldr.w	r0, [r4, #132]	; 0x84
 8006ccc:	3800      	subs	r0, #0
 8006cce:	bf18      	it	ne
 8006cd0:	2001      	movne	r0, #1
 8006cd2:	e7b7      	b.n	8006c44 <HAL_SPI_Receive+0x48>
 8006cd4:	68cb      	ldr	r3, [r1, #12]
 8006cd6:	f423 23c0 	bic.w	r3, r3, #393216	; 0x60000
 8006cda:	f443 2380 	orr.w	r3, r3, #262144	; 0x40000
 8006cde:	60cb      	str	r3, [r1, #12]
 8006ce0:	e7ce      	b.n	8006c80 <HAL_SPI_Receive+0x84>
 8006ce2:	6822      	ldr	r2, [r4, #0]
 8006ce4:	6957      	ldr	r7, [r2, #20]
 8006ce6:	ea17 0708 	ands.w	r7, r7, r8
 8006cea:	d00b      	beq.n	8006d04 <HAL_SPI_Receive+0x108>
 8006cec:	6b12      	ldr	r2, [r2, #48]	; 0x30
 8006cee:	6e63      	ldr	r3, [r4, #100]	; 0x64
 8006cf0:	f843 2b04 	str.w	r2, [r3], #4
 8006cf4:	6663      	str	r3, [r4, #100]	; 0x64
 8006cf6:	f8b4 306a 	ldrh.w	r3, [r4, #106]	; 0x6a
 8006cfa:	3b01      	subs	r3, #1
 8006cfc:	b29b      	uxth	r3, r3
 8006cfe:	f8a4 306a 	strh.w	r3, [r4, #106]	; 0x6a
 8006d02:	e7d4      	b.n	8006cae <HAL_SPI_Receive+0xb2>
 8006d04:	f7fc f9e4 	bl	80030d0 <HAL_GetTick>
 8006d08:	1b80      	subs	r0, r0, r6
 8006d0a:	42a8      	cmp	r0, r5
 8006d0c:	d3cf      	bcc.n	8006cae <HAL_SPI_Receive+0xb2>
 8006d0e:	1c69      	adds	r1, r5, #1
 8006d10:	d0cd      	beq.n	8006cae <HAL_SPI_Receive+0xb2>
 8006d12:	4620      	mov	r0, r4
 8006d14:	f7ff fd52 	bl	80067bc <SPI_CloseTransfer>
 8006d18:	f884 7080 	strb.w	r7, [r4, #128]	; 0x80
 8006d1c:	e03b      	b.n	8006d96 <HAL_SPI_Receive+0x19a>
 8006d1e:	2b07      	cmp	r3, #7
 8006d20:	d827      	bhi.n	8006d72 <HAL_SPI_Receive+0x176>
 8006d22:	f8b4 306a 	ldrh.w	r3, [r4, #106]	; 0x6a
 8006d26:	b29b      	uxth	r3, r3
 8006d28:	2b00      	cmp	r3, #0
 8006d2a:	d0c4      	beq.n	8006cb6 <HAL_SPI_Receive+0xba>
 8006d2c:	6822      	ldr	r2, [r4, #0]
 8006d2e:	6957      	ldr	r7, [r2, #20]
 8006d30:	f017 0701 	ands.w	r7, r7, #1
 8006d34:	d03a      	beq.n	8006dac <HAL_SPI_Receive+0x1b0>
 8006d36:	f892 2030 	ldrb.w	r2, [r2, #48]	; 0x30
 8006d3a:	6e63      	ldr	r3, [r4, #100]	; 0x64
 8006d3c:	701a      	strb	r2, [r3, #0]
 8006d3e:	6e63      	ldr	r3, [r4, #100]	; 0x64
 8006d40:	3301      	adds	r3, #1
 8006d42:	6663      	str	r3, [r4, #100]	; 0x64
 8006d44:	f8b4 306a 	ldrh.w	r3, [r4, #106]	; 0x6a
 8006d48:	3b01      	subs	r3, #1
 8006d4a:	b29b      	uxth	r3, r3
 8006d4c:	f8a4 306a 	strh.w	r3, [r4, #106]	; 0x6a
 8006d50:	e7e7      	b.n	8006d22 <HAL_SPI_Receive+0x126>
 8006d52:	6823      	ldr	r3, [r4, #0]
 8006d54:	695b      	ldr	r3, [r3, #20]
 8006d56:	f013 0801 	ands.w	r8, r3, #1
 8006d5a:	d010      	beq.n	8006d7e <HAL_SPI_Receive+0x182>
 8006d5c:	8e3a      	ldrh	r2, [r7, #48]	; 0x30
 8006d5e:	6e63      	ldr	r3, [r4, #100]	; 0x64
 8006d60:	f823 2b02 	strh.w	r2, [r3], #2
 8006d64:	6663      	str	r3, [r4, #100]	; 0x64
 8006d66:	f8b4 306a 	ldrh.w	r3, [r4, #106]	; 0x6a
 8006d6a:	3b01      	subs	r3, #1
 8006d6c:	b29b      	uxth	r3, r3
 8006d6e:	f8a4 306a 	strh.w	r3, [r4, #106]	; 0x6a
 8006d72:	f8b4 306a 	ldrh.w	r3, [r4, #106]	; 0x6a
 8006d76:	b29b      	uxth	r3, r3
 8006d78:	2b00      	cmp	r3, #0
 8006d7a:	d1ea      	bne.n	8006d52 <HAL_SPI_Receive+0x156>
 8006d7c:	e79b      	b.n	8006cb6 <HAL_SPI_Receive+0xba>
 8006d7e:	f7fc f9a7 	bl	80030d0 <HAL_GetTick>
 8006d82:	1b80      	subs	r0, r0, r6
 8006d84:	42a8      	cmp	r0, r5
 8006d86:	d3f4      	bcc.n	8006d72 <HAL_SPI_Receive+0x176>
 8006d88:	1c6a      	adds	r2, r5, #1
 8006d8a:	d0f2      	beq.n	8006d72 <HAL_SPI_Receive+0x176>
 8006d8c:	4620      	mov	r0, r4
 8006d8e:	f7ff fd15 	bl	80067bc <SPI_CloseTransfer>
 8006d92:	f884 8080 	strb.w	r8, [r4, #128]	; 0x80
 8006d96:	f8d0 3084 	ldr.w	r3, [r0, #132]	; 0x84
 8006d9a:	f443 7380 	orr.w	r3, r3, #256	; 0x100
 8006d9e:	f8c0 3084 	str.w	r3, [r0, #132]	; 0x84
 8006da2:	2301      	movs	r3, #1
 8006da4:	f880 3081 	strb.w	r3, [r0, #129]	; 0x81
 8006da8:	2003      	movs	r0, #3
 8006daa:	e74b      	b.n	8006c44 <HAL_SPI_Receive+0x48>
 8006dac:	f7fc f990 	bl	80030d0 <HAL_GetTick>
 8006db0:	1b80      	subs	r0, r0, r6
 8006db2:	42a8      	cmp	r0, r5
 8006db4:	d3b5      	bcc.n	8006d22 <HAL_SPI_Receive+0x126>
 8006db6:	1c6b      	adds	r3, r5, #1
 8006db8:	d0b3      	beq.n	8006d22 <HAL_SPI_Receive+0x126>
 8006dba:	e7aa      	b.n	8006d12 <HAL_SPI_Receive+0x116>

08006dbc <TIM_OC1_SetConfig>:
 8006dbc:	6a03      	ldr	r3, [r0, #32]
 8006dbe:	f023 0301 	bic.w	r3, r3, #1
 8006dc2:	b570      	push	{r4, r5, r6, lr}
 8006dc4:	6203      	str	r3, [r0, #32]
 8006dc6:	6a03      	ldr	r3, [r0, #32]
 8006dc8:	6844      	ldr	r4, [r0, #4]
 8006dca:	6982      	ldr	r2, [r0, #24]
 8006dcc:	f023 0302 	bic.w	r3, r3, #2
 8006dd0:	680d      	ldr	r5, [r1, #0]
 8006dd2:	f422 3280 	bic.w	r2, r2, #65536	; 0x10000
 8006dd6:	f022 0273 	bic.w	r2, r2, #115	; 0x73
 8006dda:	432a      	orrs	r2, r5
 8006ddc:	688d      	ldr	r5, [r1, #8]
 8006dde:	432b      	orrs	r3, r5
 8006de0:	4d1b      	ldr	r5, [pc, #108]	; (8006e50 <TIM_OC1_SetConfig+0x94>)
 8006de2:	42a8      	cmp	r0, r5
 8006de4:	d00f      	beq.n	8006e06 <TIM_OC1_SetConfig+0x4a>
 8006de6:	f505 6580 	add.w	r5, r5, #1024	; 0x400
 8006dea:	42a8      	cmp	r0, r5
 8006dec:	d00b      	beq.n	8006e06 <TIM_OC1_SetConfig+0x4a>
 8006dee:	f505 5570 	add.w	r5, r5, #15360	; 0x3c00
 8006df2:	42a8      	cmp	r0, r5
 8006df4:	d007      	beq.n	8006e06 <TIM_OC1_SetConfig+0x4a>
 8006df6:	f505 6580 	add.w	r5, r5, #1024	; 0x400
 8006dfa:	42a8      	cmp	r0, r5
 8006dfc:	d003      	beq.n	8006e06 <TIM_OC1_SetConfig+0x4a>
 8006dfe:	f505 6580 	add.w	r5, r5, #1024	; 0x400
 8006e02:	42a8      	cmp	r0, r5
 8006e04:	d11e      	bne.n	8006e44 <TIM_OC1_SetConfig+0x88>
 8006e06:	68cd      	ldr	r5, [r1, #12]
 8006e08:	f023 0308 	bic.w	r3, r3, #8
 8006e0c:	432b      	orrs	r3, r5
 8006e0e:	4d10      	ldr	r5, [pc, #64]	; (8006e50 <TIM_OC1_SetConfig+0x94>)
 8006e10:	42a8      	cmp	r0, r5
 8006e12:	f023 0304 	bic.w	r3, r3, #4
 8006e16:	d00f      	beq.n	8006e38 <TIM_OC1_SetConfig+0x7c>
 8006e18:	f505 6580 	add.w	r5, r5, #1024	; 0x400
 8006e1c:	42a8      	cmp	r0, r5
 8006e1e:	d00b      	beq.n	8006e38 <TIM_OC1_SetConfig+0x7c>
 8006e20:	f505 5570 	add.w	r5, r5, #15360	; 0x3c00
 8006e24:	42a8      	cmp	r0, r5
 8006e26:	d007      	beq.n	8006e38 <TIM_OC1_SetConfig+0x7c>
 8006e28:	f505 6580 	add.w	r5, r5, #1024	; 0x400
 8006e2c:	42a8      	cmp	r0, r5
 8006e2e:	d003      	beq.n	8006e38 <TIM_OC1_SetConfig+0x7c>
 8006e30:	f505 6580 	add.w	r5, r5, #1024	; 0x400
 8006e34:	42a8      	cmp	r0, r5
 8006e36:	d105      	bne.n	8006e44 <TIM_OC1_SetConfig+0x88>
 8006e38:	f424 7540 	bic.w	r5, r4, #768	; 0x300
 8006e3c:	e9d1 4605 	ldrd	r4, r6, [r1, #20]
 8006e40:	4334      	orrs	r4, r6
 8006e42:	432c      	orrs	r4, r5
 8006e44:	6044      	str	r4, [r0, #4]
 8006e46:	6182      	str	r2, [r0, #24]
 8006e48:	684a      	ldr	r2, [r1, #4]
 8006e4a:	6342      	str	r2, [r0, #52]	; 0x34
 8006e4c:	6203      	str	r3, [r0, #32]
 8006e4e:	bd70      	pop	{r4, r5, r6, pc}
 8006e50:	40010000 	.word	0x40010000

08006e54 <TIM_OC3_SetConfig>:
 8006e54:	6a03      	ldr	r3, [r0, #32]
 8006e56:	f423 7380 	bic.w	r3, r3, #256	; 0x100
 8006e5a:	b570      	push	{r4, r5, r6, lr}
 8006e5c:	6203      	str	r3, [r0, #32]
 8006e5e:	6a03      	ldr	r3, [r0, #32]
 8006e60:	6844      	ldr	r4, [r0, #4]
 8006e62:	69c2      	ldr	r2, [r0, #28]
 8006e64:	f423 7300 	bic.w	r3, r3, #512	; 0x200
 8006e68:	680d      	ldr	r5, [r1, #0]
 8006e6a:	f422 3280 	bic.w	r2, r2, #65536	; 0x10000
 8006e6e:	f022 0273 	bic.w	r2, r2, #115	; 0x73
 8006e72:	432a      	orrs	r2, r5
 8006e74:	688d      	ldr	r5, [r1, #8]
 8006e76:	ea43 2305 	orr.w	r3, r3, r5, lsl #8
 8006e7a:	4d16      	ldr	r5, [pc, #88]	; (8006ed4 <TIM_OC3_SetConfig+0x80>)
 8006e7c:	42a8      	cmp	r0, r5
 8006e7e:	d003      	beq.n	8006e88 <TIM_OC3_SetConfig+0x34>
 8006e80:	f505 6580 	add.w	r5, r5, #1024	; 0x400
 8006e84:	42a8      	cmp	r0, r5
 8006e86:	d10d      	bne.n	8006ea4 <TIM_OC3_SetConfig+0x50>
 8006e88:	68cd      	ldr	r5, [r1, #12]
 8006e8a:	f423 6300 	bic.w	r3, r3, #2048	; 0x800
 8006e8e:	ea43 2305 	orr.w	r3, r3, r5, lsl #8
 8006e92:	4d10      	ldr	r5, [pc, #64]	; (8006ed4 <TIM_OC3_SetConfig+0x80>)
 8006e94:	42a8      	cmp	r0, r5
 8006e96:	f423 6380 	bic.w	r3, r3, #1024	; 0x400
 8006e9a:	d00e      	beq.n	8006eba <TIM_OC3_SetConfig+0x66>
 8006e9c:	f505 6580 	add.w	r5, r5, #1024	; 0x400
 8006ea0:	42a8      	cmp	r0, r5
 8006ea2:	d00a      	beq.n	8006eba <TIM_OC3_SetConfig+0x66>
 8006ea4:	4d0c      	ldr	r5, [pc, #48]	; (8006ed8 <TIM_OC3_SetConfig+0x84>)
 8006ea6:	42a8      	cmp	r0, r5
 8006ea8:	d007      	beq.n	8006eba <TIM_OC3_SetConfig+0x66>
 8006eaa:	f505 6580 	add.w	r5, r5, #1024	; 0x400
 8006eae:	42a8      	cmp	r0, r5
 8006eb0:	d003      	beq.n	8006eba <TIM_OC3_SetConfig+0x66>
 8006eb2:	f505 6580 	add.w	r5, r5, #1024	; 0x400
 8006eb6:	42a8      	cmp	r0, r5
 8006eb8:	d106      	bne.n	8006ec8 <TIM_OC3_SetConfig+0x74>
 8006eba:	f424 5540 	bic.w	r5, r4, #12288	; 0x3000
 8006ebe:	e9d1 4605 	ldrd	r4, r6, [r1, #20]
 8006ec2:	4334      	orrs	r4, r6
 8006ec4:	ea45 1404 	orr.w	r4, r5, r4, lsl #4
 8006ec8:	6044      	str	r4, [r0, #4]
 8006eca:	61c2      	str	r2, [r0, #28]
 8006ecc:	684a      	ldr	r2, [r1, #4]
 8006ece:	63c2      	str	r2, [r0, #60]	; 0x3c
 8006ed0:	6203      	str	r3, [r0, #32]
 8006ed2:	bd70      	pop	{r4, r5, r6, pc}
 8006ed4:	40010000 	.word	0x40010000
 8006ed8:	40014000 	.word	0x40014000

08006edc <TIM_OC4_SetConfig>:
 8006edc:	6a03      	ldr	r3, [r0, #32]
 8006ede:	f423 5380 	bic.w	r3, r3, #4096	; 0x1000
 8006ee2:	b530      	push	{r4, r5, lr}
 8006ee4:	6203      	str	r3, [r0, #32]
 8006ee6:	6a03      	ldr	r3, [r0, #32]
 8006ee8:	6844      	ldr	r4, [r0, #4]
 8006eea:	69c2      	ldr	r2, [r0, #28]
 8006eec:	f423 5300 	bic.w	r3, r3, #8192	; 0x2000
 8006ef0:	680d      	ldr	r5, [r1, #0]
 8006ef2:	f022 7280 	bic.w	r2, r2, #16777216	; 0x1000000
 8006ef6:	f422 42e6 	bic.w	r2, r2, #29440	; 0x7300
 8006efa:	ea42 2205 	orr.w	r2, r2, r5, lsl #8
 8006efe:	688d      	ldr	r5, [r1, #8]
 8006f00:	ea43 3305 	orr.w	r3, r3, r5, lsl #12
 8006f04:	4d0e      	ldr	r5, [pc, #56]	; (8006f40 <TIM_OC4_SetConfig+0x64>)
 8006f06:	42a8      	cmp	r0, r5
 8006f08:	d00f      	beq.n	8006f2a <TIM_OC4_SetConfig+0x4e>
 8006f0a:	f505 6580 	add.w	r5, r5, #1024	; 0x400
 8006f0e:	42a8      	cmp	r0, r5
 8006f10:	d00b      	beq.n	8006f2a <TIM_OC4_SetConfig+0x4e>
 8006f12:	f505 5570 	add.w	r5, r5, #15360	; 0x3c00
 8006f16:	42a8      	cmp	r0, r5
 8006f18:	d007      	beq.n	8006f2a <TIM_OC4_SetConfig+0x4e>
 8006f1a:	f505 6580 	add.w	r5, r5, #1024	; 0x400
 8006f1e:	42a8      	cmp	r0, r5
 8006f20:	d003      	beq.n	8006f2a <TIM_OC4_SetConfig+0x4e>
 8006f22:	f505 6580 	add.w	r5, r5, #1024	; 0x400
 8006f26:	42a8      	cmp	r0, r5
 8006f28:	d104      	bne.n	8006f34 <TIM_OC4_SetConfig+0x58>
 8006f2a:	f424 4480 	bic.w	r4, r4, #16384	; 0x4000
 8006f2e:	694d      	ldr	r5, [r1, #20]
 8006f30:	ea44 1485 	orr.w	r4, r4, r5, lsl #6
 8006f34:	6044      	str	r4, [r0, #4]
 8006f36:	61c2      	str	r2, [r0, #28]
 8006f38:	684a      	ldr	r2, [r1, #4]
 8006f3a:	6402      	str	r2, [r0, #64]	; 0x40
 8006f3c:	6203      	str	r3, [r0, #32]
 8006f3e:	bd30      	pop	{r4, r5, pc}
 8006f40:	40010000 	.word	0x40010000

08006f44 <TIM_OC5_SetConfig>:
 8006f44:	6a03      	ldr	r3, [r0, #32]
 8006f46:	f423 3380 	bic.w	r3, r3, #65536	; 0x10000
 8006f4a:	b530      	push	{r4, r5, lr}
 8006f4c:	6203      	str	r3, [r0, #32]
 8006f4e:	6a03      	ldr	r3, [r0, #32]
 8006f50:	6844      	ldr	r4, [r0, #4]
 8006f52:	6d42      	ldr	r2, [r0, #84]	; 0x54
 8006f54:	f423 3300 	bic.w	r3, r3, #131072	; 0x20000
 8006f58:	680d      	ldr	r5, [r1, #0]
 8006f5a:	f422 3280 	bic.w	r2, r2, #65536	; 0x10000
 8006f5e:	f022 0270 	bic.w	r2, r2, #112	; 0x70
 8006f62:	432a      	orrs	r2, r5
 8006f64:	688d      	ldr	r5, [r1, #8]
 8006f66:	ea43 4305 	orr.w	r3, r3, r5, lsl #16
 8006f6a:	4d0f      	ldr	r5, [pc, #60]	; (8006fa8 <TIM_OC5_SetConfig+0x64>)
 8006f6c:	42a8      	cmp	r0, r5
 8006f6e:	d00f      	beq.n	8006f90 <TIM_OC5_SetConfig+0x4c>
 8006f70:	f505 6580 	add.w	r5, r5, #1024	; 0x400
 8006f74:	42a8      	cmp	r0, r5
 8006f76:	d00b      	beq.n	8006f90 <TIM_OC5_SetConfig+0x4c>
 8006f78:	f505 5570 	add.w	r5, r5, #15360	; 0x3c00
 8006f7c:	42a8      	cmp	r0, r5
 8006f7e:	d007      	beq.n	8006f90 <TIM_OC5_SetConfig+0x4c>
 8006f80:	f505 6580 	add.w	r5, r5, #1024	; 0x400
 8006f84:	42a8      	cmp	r0, r5
 8006f86:	d003      	beq.n	8006f90 <TIM_OC5_SetConfig+0x4c>
 8006f88:	f505 6580 	add.w	r5, r5, #1024	; 0x400
 8006f8c:	42a8      	cmp	r0, r5
 8006f8e:	d104      	bne.n	8006f9a <TIM_OC5_SetConfig+0x56>
 8006f90:	f424 3480 	bic.w	r4, r4, #65536	; 0x10000
 8006f94:	694d      	ldr	r5, [r1, #20]
 8006f96:	ea44 2405 	orr.w	r4, r4, r5, lsl #8
 8006f9a:	6044      	str	r4, [r0, #4]
 8006f9c:	6542      	str	r2, [r0, #84]	; 0x54
 8006f9e:	684a      	ldr	r2, [r1, #4]
 8006fa0:	6582      	str	r2, [r0, #88]	; 0x58
 8006fa2:	6203      	str	r3, [r0, #32]
 8006fa4:	bd30      	pop	{r4, r5, pc}
 8006fa6:	bf00      	nop
 8006fa8:	40010000 	.word	0x40010000

08006fac <TIM_OC6_SetConfig>:
 8006fac:	6a03      	ldr	r3, [r0, #32]
 8006fae:	f423 1380 	bic.w	r3, r3, #1048576	; 0x100000
 8006fb2:	b530      	push	{r4, r5, lr}
 8006fb4:	6203      	str	r3, [r0, #32]
 8006fb6:	6a03      	ldr	r3, [r0, #32]
 8006fb8:	6844      	ldr	r4, [r0, #4]
 8006fba:	6d42      	ldr	r2, [r0, #84]	; 0x54
 8006fbc:	f423 1300 	bic.w	r3, r3, #2097152	; 0x200000
 8006fc0:	680d      	ldr	r5, [r1, #0]
 8006fc2:	f022 7280 	bic.w	r2, r2, #16777216	; 0x1000000
 8006fc6:	f422 42e0 	bic.w	r2, r2, #28672	; 0x7000
 8006fca:	ea42 2205 	orr.w	r2, r2, r5, lsl #8
 8006fce:	688d      	ldr	r5, [r1, #8]
 8006fd0:	ea43 5305 	orr.w	r3, r3, r5, lsl #20
 8006fd4:	4d0e      	ldr	r5, [pc, #56]	; (8007010 <TIM_OC6_SetConfig+0x64>)
 8006fd6:	42a8      	cmp	r0, r5
 8006fd8:	d00f      	beq.n	8006ffa <TIM_OC6_SetConfig+0x4e>
 8006fda:	f505 6580 	add.w	r5, r5, #1024	; 0x400
 8006fde:	42a8      	cmp	r0, r5
 8006fe0:	d00b      	beq.n	8006ffa <TIM_OC6_SetConfig+0x4e>
 8006fe2:	f505 5570 	add.w	r5, r5, #15360	; 0x3c00
 8006fe6:	42a8      	cmp	r0, r5
 8006fe8:	d007      	beq.n	8006ffa <TIM_OC6_SetConfig+0x4e>
 8006fea:	f505 6580 	add.w	r5, r5, #1024	; 0x400
 8006fee:	42a8      	cmp	r0, r5
 8006ff0:	d003      	beq.n	8006ffa <TIM_OC6_SetConfig+0x4e>
 8006ff2:	f505 6580 	add.w	r5, r5, #1024	; 0x400
 8006ff6:	42a8      	cmp	r0, r5
 8006ff8:	d104      	bne.n	8007004 <TIM_OC6_SetConfig+0x58>
 8006ffa:	f424 2480 	bic.w	r4, r4, #262144	; 0x40000
 8006ffe:	694d      	ldr	r5, [r1, #20]
 8007000:	ea44 2485 	orr.w	r4, r4, r5, lsl #10
 8007004:	6044      	str	r4, [r0, #4]
 8007006:	6542      	str	r2, [r0, #84]	; 0x54
 8007008:	684a      	ldr	r2, [r1, #4]
 800700a:	65c2      	str	r2, [r0, #92]	; 0x5c
 800700c:	6203      	str	r3, [r0, #32]
 800700e:	bd30      	pop	{r4, r5, pc}
 8007010:	40010000 	.word	0x40010000

08007014 <HAL_TIM_OC_DelayElapsedCallback>:
 8007014:	4770      	bx	lr

08007016 <HAL_TIM_IC_CaptureCallback>:
 8007016:	4770      	bx	lr

08007018 <HAL_TIM_PWM_PulseFinishedCallback>:
 8007018:	4770      	bx	lr

0800701a <HAL_TIM_TriggerCallback>:
 800701a:	4770      	bx	lr

0800701c <HAL_TIM_IRQHandler>:
 800701c:	6803      	ldr	r3, [r0, #0]
 800701e:	691a      	ldr	r2, [r3, #16]
 8007020:	0791      	lsls	r1, r2, #30
 8007022:	b510      	push	{r4, lr}
 8007024:	4604      	mov	r4, r0
 8007026:	d50f      	bpl.n	8007048 <HAL_TIM_IRQHandler+0x2c>
 8007028:	68da      	ldr	r2, [r3, #12]
 800702a:	0792      	lsls	r2, r2, #30
 800702c:	d50c      	bpl.n	8007048 <HAL_TIM_IRQHandler+0x2c>
 800702e:	f06f 0202 	mvn.w	r2, #2
 8007032:	611a      	str	r2, [r3, #16]
 8007034:	2201      	movs	r2, #1
 8007036:	7702      	strb	r2, [r0, #28]
 8007038:	699b      	ldr	r3, [r3, #24]
 800703a:	0799      	lsls	r1, r3, #30
 800703c:	f000 8085 	beq.w	800714a <HAL_TIM_IRQHandler+0x12e>
 8007040:	f7ff ffe9 	bl	8007016 <HAL_TIM_IC_CaptureCallback>
 8007044:	2300      	movs	r3, #0
 8007046:	7723      	strb	r3, [r4, #28]
 8007048:	6823      	ldr	r3, [r4, #0]
 800704a:	691a      	ldr	r2, [r3, #16]
 800704c:	0752      	lsls	r2, r2, #29
 800704e:	d510      	bpl.n	8007072 <HAL_TIM_IRQHandler+0x56>
 8007050:	68da      	ldr	r2, [r3, #12]
 8007052:	0750      	lsls	r0, r2, #29
 8007054:	d50d      	bpl.n	8007072 <HAL_TIM_IRQHandler+0x56>
 8007056:	f06f 0204 	mvn.w	r2, #4
 800705a:	4620      	mov	r0, r4
 800705c:	611a      	str	r2, [r3, #16]
 800705e:	2202      	movs	r2, #2
 8007060:	7722      	strb	r2, [r4, #28]
 8007062:	699b      	ldr	r3, [r3, #24]
 8007064:	f413 7f40 	tst.w	r3, #768	; 0x300
 8007068:	d075      	beq.n	8007156 <HAL_TIM_IRQHandler+0x13a>
 800706a:	f7ff ffd4 	bl	8007016 <HAL_TIM_IC_CaptureCallback>
 800706e:	2300      	movs	r3, #0
 8007070:	7723      	strb	r3, [r4, #28]
 8007072:	6823      	ldr	r3, [r4, #0]
 8007074:	691a      	ldr	r2, [r3, #16]
 8007076:	0711      	lsls	r1, r2, #28
 8007078:	d50f      	bpl.n	800709a <HAL_TIM_IRQHandler+0x7e>
 800707a:	68da      	ldr	r2, [r3, #12]
 800707c:	0712      	lsls	r2, r2, #28
 800707e:	d50c      	bpl.n	800709a <HAL_TIM_IRQHandler+0x7e>
 8007080:	f06f 0208 	mvn.w	r2, #8
 8007084:	4620      	mov	r0, r4
 8007086:	611a      	str	r2, [r3, #16]
 8007088:	2204      	movs	r2, #4
 800708a:	7722      	strb	r2, [r4, #28]
 800708c:	69db      	ldr	r3, [r3, #28]
 800708e:	079b      	lsls	r3, r3, #30
 8007090:	d067      	beq.n	8007162 <HAL_TIM_IRQHandler+0x146>
 8007092:	f7ff ffc0 	bl	8007016 <HAL_TIM_IC_CaptureCallback>
 8007096:	2300      	movs	r3, #0
 8007098:	7723      	strb	r3, [r4, #28]
 800709a:	6823      	ldr	r3, [r4, #0]
 800709c:	691a      	ldr	r2, [r3, #16]
 800709e:	06d0      	lsls	r0, r2, #27
 80070a0:	d510      	bpl.n	80070c4 <HAL_TIM_IRQHandler+0xa8>
 80070a2:	68da      	ldr	r2, [r3, #12]
 80070a4:	06d1      	lsls	r1, r2, #27
 80070a6:	d50d      	bpl.n	80070c4 <HAL_TIM_IRQHandler+0xa8>
 80070a8:	f06f 0210 	mvn.w	r2, #16
 80070ac:	4620      	mov	r0, r4
 80070ae:	611a      	str	r2, [r3, #16]
 80070b0:	2208      	movs	r2, #8
 80070b2:	7722      	strb	r2, [r4, #28]
 80070b4:	69db      	ldr	r3, [r3, #28]
 80070b6:	f413 7f40 	tst.w	r3, #768	; 0x300
 80070ba:	d058      	beq.n	800716e <HAL_TIM_IRQHandler+0x152>
 80070bc:	f7ff ffab 	bl	8007016 <HAL_TIM_IC_CaptureCallback>
 80070c0:	2300      	movs	r3, #0
 80070c2:	7723      	strb	r3, [r4, #28]
 80070c4:	6823      	ldr	r3, [r4, #0]
 80070c6:	691a      	ldr	r2, [r3, #16]
 80070c8:	07d2      	lsls	r2, r2, #31
 80070ca:	d508      	bpl.n	80070de <HAL_TIM_IRQHandler+0xc2>
 80070cc:	68da      	ldr	r2, [r3, #12]
 80070ce:	07d0      	lsls	r0, r2, #31
 80070d0:	d505      	bpl.n	80070de <HAL_TIM_IRQHandler+0xc2>
 80070d2:	f06f 0201 	mvn.w	r2, #1
 80070d6:	4620      	mov	r0, r4
 80070d8:	611a      	str	r2, [r3, #16]
 80070da:	f7fa f8e9 	bl	80012b0 <HAL_TIM_PeriodElapsedCallback>
 80070de:	6823      	ldr	r3, [r4, #0]
 80070e0:	691a      	ldr	r2, [r3, #16]
 80070e2:	0611      	lsls	r1, r2, #24
 80070e4:	d508      	bpl.n	80070f8 <HAL_TIM_IRQHandler+0xdc>
 80070e6:	68da      	ldr	r2, [r3, #12]
 80070e8:	0612      	lsls	r2, r2, #24
 80070ea:	d505      	bpl.n	80070f8 <HAL_TIM_IRQHandler+0xdc>
 80070ec:	f06f 0280 	mvn.w	r2, #128	; 0x80
 80070f0:	4620      	mov	r0, r4
 80070f2:	611a      	str	r2, [r3, #16]
 80070f4:	f000 fa9b 	bl	800762e <HAL_TIMEx_BreakCallback>
 80070f8:	6823      	ldr	r3, [r4, #0]
 80070fa:	691a      	ldr	r2, [r3, #16]
 80070fc:	05d0      	lsls	r0, r2, #23
 80070fe:	d508      	bpl.n	8007112 <HAL_TIM_IRQHandler+0xf6>
 8007100:	68da      	ldr	r2, [r3, #12]
 8007102:	0611      	lsls	r1, r2, #24
 8007104:	d505      	bpl.n	8007112 <HAL_TIM_IRQHandler+0xf6>
 8007106:	f46f 7280 	mvn.w	r2, #256	; 0x100
 800710a:	4620      	mov	r0, r4
 800710c:	611a      	str	r2, [r3, #16]
 800710e:	f000 fa8f 	bl	8007630 <HAL_TIMEx_Break2Callback>
 8007112:	6823      	ldr	r3, [r4, #0]
 8007114:	691a      	ldr	r2, [r3, #16]
 8007116:	0652      	lsls	r2, r2, #25
 8007118:	d508      	bpl.n	800712c <HAL_TIM_IRQHandler+0x110>
 800711a:	68da      	ldr	r2, [r3, #12]
 800711c:	0650      	lsls	r0, r2, #25
 800711e:	d505      	bpl.n	800712c <HAL_TIM_IRQHandler+0x110>
 8007120:	f06f 0240 	mvn.w	r2, #64	; 0x40
 8007124:	4620      	mov	r0, r4
 8007126:	611a      	str	r2, [r3, #16]
 8007128:	f7ff ff77 	bl	800701a <HAL_TIM_TriggerCallback>
 800712c:	6823      	ldr	r3, [r4, #0]
 800712e:	691a      	ldr	r2, [r3, #16]
 8007130:	0691      	lsls	r1, r2, #26
 8007132:	d522      	bpl.n	800717a <HAL_TIM_IRQHandler+0x15e>
 8007134:	68da      	ldr	r2, [r3, #12]
 8007136:	0692      	lsls	r2, r2, #26
 8007138:	d51f      	bpl.n	800717a <HAL_TIM_IRQHandler+0x15e>
 800713a:	f06f 0220 	mvn.w	r2, #32
 800713e:	4620      	mov	r0, r4
 8007140:	611a      	str	r2, [r3, #16]
 8007142:	e8bd 4010 	ldmia.w	sp!, {r4, lr}
 8007146:	f000 ba71 	b.w	800762c <HAL_TIMEx_CommutCallback>
 800714a:	f7ff ff63 	bl	8007014 <HAL_TIM_OC_DelayElapsedCallback>
 800714e:	4620      	mov	r0, r4
 8007150:	f7ff ff62 	bl	8007018 <HAL_TIM_PWM_PulseFinishedCallback>
 8007154:	e776      	b.n	8007044 <HAL_TIM_IRQHandler+0x28>
 8007156:	f7ff ff5d 	bl	8007014 <HAL_TIM_OC_DelayElapsedCallback>
 800715a:	4620      	mov	r0, r4
 800715c:	f7ff ff5c 	bl	8007018 <HAL_TIM_PWM_PulseFinishedCallback>
 8007160:	e785      	b.n	800706e <HAL_TIM_IRQHandler+0x52>
 8007162:	f7ff ff57 	bl	8007014 <HAL_TIM_OC_DelayElapsedCallback>
 8007166:	4620      	mov	r0, r4
 8007168:	f7ff ff56 	bl	8007018 <HAL_TIM_PWM_PulseFinishedCallback>
 800716c:	e793      	b.n	8007096 <HAL_TIM_IRQHandler+0x7a>
 800716e:	f7ff ff51 	bl	8007014 <HAL_TIM_OC_DelayElapsedCallback>
 8007172:	4620      	mov	r0, r4
 8007174:	f7ff ff50 	bl	8007018 <HAL_TIM_PWM_PulseFinishedCallback>
 8007178:	e7a2      	b.n	80070c0 <HAL_TIM_IRQHandler+0xa4>
 800717a:	bd10      	pop	{r4, pc}

0800717c <TIM_Base_SetConfig>:
 800717c:	4a30      	ldr	r2, [pc, #192]	; (8007240 <TIM_Base_SetConfig+0xc4>)
 800717e:	6803      	ldr	r3, [r0, #0]
 8007180:	4290      	cmp	r0, r2
 8007182:	d012      	beq.n	80071aa <TIM_Base_SetConfig+0x2e>
 8007184:	f1b0 4f80 	cmp.w	r0, #1073741824	; 0x40000000
 8007188:	d00f      	beq.n	80071aa <TIM_Base_SetConfig+0x2e>
 800718a:	f5a2 427c 	sub.w	r2, r2, #64512	; 0xfc00
 800718e:	4290      	cmp	r0, r2
 8007190:	d00b      	beq.n	80071aa <TIM_Base_SetConfig+0x2e>
 8007192:	f502 6280 	add.w	r2, r2, #1024	; 0x400
 8007196:	4290      	cmp	r0, r2
 8007198:	d007      	beq.n	80071aa <TIM_Base_SetConfig+0x2e>
 800719a:	f502 6280 	add.w	r2, r2, #1024	; 0x400
 800719e:	4290      	cmp	r0, r2
 80071a0:	d003      	beq.n	80071aa <TIM_Base_SetConfig+0x2e>
 80071a2:	f502 4278 	add.w	r2, r2, #63488	; 0xf800
 80071a6:	4290      	cmp	r0, r2
 80071a8:	d119      	bne.n	80071de <TIM_Base_SetConfig+0x62>
 80071aa:	684a      	ldr	r2, [r1, #4]
 80071ac:	f023 0370 	bic.w	r3, r3, #112	; 0x70
 80071b0:	4313      	orrs	r3, r2
 80071b2:	4a23      	ldr	r2, [pc, #140]	; (8007240 <TIM_Base_SetConfig+0xc4>)
 80071b4:	4290      	cmp	r0, r2
 80071b6:	d01d      	beq.n	80071f4 <TIM_Base_SetConfig+0x78>
 80071b8:	f1b0 4f80 	cmp.w	r0, #1073741824	; 0x40000000
 80071bc:	d01a      	beq.n	80071f4 <TIM_Base_SetConfig+0x78>
 80071be:	f5a2 427c 	sub.w	r2, r2, #64512	; 0xfc00
 80071c2:	4290      	cmp	r0, r2
 80071c4:	d016      	beq.n	80071f4 <TIM_Base_SetConfig+0x78>
 80071c6:	f502 6280 	add.w	r2, r2, #1024	; 0x400
 80071ca:	4290      	cmp	r0, r2
 80071cc:	d012      	beq.n	80071f4 <TIM_Base_SetConfig+0x78>
 80071ce:	f502 6280 	add.w	r2, r2, #1024	; 0x400
 80071d2:	4290      	cmp	r0, r2
 80071d4:	d00e      	beq.n	80071f4 <TIM_Base_SetConfig+0x78>
 80071d6:	f502 4278 	add.w	r2, r2, #63488	; 0xf800
 80071da:	4290      	cmp	r0, r2
 80071dc:	d00a      	beq.n	80071f4 <TIM_Base_SetConfig+0x78>
 80071de:	4a19      	ldr	r2, [pc, #100]	; (8007244 <TIM_Base_SetConfig+0xc8>)
 80071e0:	4290      	cmp	r0, r2
 80071e2:	d007      	beq.n	80071f4 <TIM_Base_SetConfig+0x78>
 80071e4:	f502 6280 	add.w	r2, r2, #1024	; 0x400
 80071e8:	4290      	cmp	r0, r2
 80071ea:	d003      	beq.n	80071f4 <TIM_Base_SetConfig+0x78>
 80071ec:	f502 6280 	add.w	r2, r2, #1024	; 0x400
 80071f0:	4290      	cmp	r0, r2
 80071f2:	d103      	bne.n	80071fc <TIM_Base_SetConfig+0x80>
 80071f4:	f423 7340 	bic.w	r3, r3, #768	; 0x300
 80071f8:	68ca      	ldr	r2, [r1, #12]
 80071fa:	4313      	orrs	r3, r2
 80071fc:	694a      	ldr	r2, [r1, #20]
 80071fe:	f023 0380 	bic.w	r3, r3, #128	; 0x80
 8007202:	4313      	orrs	r3, r2
 8007204:	6003      	str	r3, [r0, #0]
 8007206:	688b      	ldr	r3, [r1, #8]
 8007208:	62c3      	str	r3, [r0, #44]	; 0x2c
 800720a:	680b      	ldr	r3, [r1, #0]
 800720c:	6283      	str	r3, [r0, #40]	; 0x28
 800720e:	4b0c      	ldr	r3, [pc, #48]	; (8007240 <TIM_Base_SetConfig+0xc4>)
 8007210:	4298      	cmp	r0, r3
 8007212:	d00f      	beq.n	8007234 <TIM_Base_SetConfig+0xb8>
 8007214:	f503 6380 	add.w	r3, r3, #1024	; 0x400
 8007218:	4298      	cmp	r0, r3
 800721a:	d00b      	beq.n	8007234 <TIM_Base_SetConfig+0xb8>
 800721c:	f503 5370 	add.w	r3, r3, #15360	; 0x3c00
 8007220:	4298      	cmp	r0, r3
 8007222:	d007      	beq.n	8007234 <TIM_Base_SetConfig+0xb8>
 8007224:	f503 6380 	add.w	r3, r3, #1024	; 0x400
 8007228:	4298      	cmp	r0, r3
 800722a:	d003      	beq.n	8007234 <TIM_Base_SetConfig+0xb8>
 800722c:	f503 6380 	add.w	r3, r3, #1024	; 0x400
 8007230:	4298      	cmp	r0, r3
 8007232:	d101      	bne.n	8007238 <TIM_Base_SetConfig+0xbc>
 8007234:	690b      	ldr	r3, [r1, #16]
 8007236:	6303      	str	r3, [r0, #48]	; 0x30
 8007238:	2301      	movs	r3, #1
 800723a:	6143      	str	r3, [r0, #20]
 800723c:	4770      	bx	lr
 800723e:	bf00      	nop
 8007240:	40010000 	.word	0x40010000
 8007244:	40014000 	.word	0x40014000

08007248 <HAL_TIM_PWM_Init>:
 8007248:	b510      	push	{r4, lr}
 800724a:	4604      	mov	r4, r0
 800724c:	b350      	cbz	r0, 80072a4 <HAL_TIM_PWM_Init+0x5c>
 800724e:	f890 303d 	ldrb.w	r3, [r0, #61]	; 0x3d
 8007252:	f003 02ff 	and.w	r2, r3, #255	; 0xff
 8007256:	b91b      	cbnz	r3, 8007260 <HAL_TIM_PWM_Init+0x18>
 8007258:	f880 203c 	strb.w	r2, [r0, #60]	; 0x3c
 800725c:	f7fb fe0c 	bl	8002e78 <HAL_TIM_PWM_MspInit>
 8007260:	2302      	movs	r3, #2
 8007262:	6820      	ldr	r0, [r4, #0]
 8007264:	1d21      	adds	r1, r4, #4
 8007266:	f884 303d 	strb.w	r3, [r4, #61]	; 0x3d
 800726a:	f7ff ff87 	bl	800717c <TIM_Base_SetConfig>
 800726e:	2301      	movs	r3, #1
 8007270:	2000      	movs	r0, #0
 8007272:	f884 3048 	strb.w	r3, [r4, #72]	; 0x48
 8007276:	f884 303e 	strb.w	r3, [r4, #62]	; 0x3e
 800727a:	f884 303f 	strb.w	r3, [r4, #63]	; 0x3f
 800727e:	f884 3040 	strb.w	r3, [r4, #64]	; 0x40
 8007282:	f884 3041 	strb.w	r3, [r4, #65]	; 0x41
 8007286:	f884 3042 	strb.w	r3, [r4, #66]	; 0x42
 800728a:	f884 3043 	strb.w	r3, [r4, #67]	; 0x43
 800728e:	f884 3044 	strb.w	r3, [r4, #68]	; 0x44
 8007292:	f884 3045 	strb.w	r3, [r4, #69]	; 0x45
 8007296:	f884 3046 	strb.w	r3, [r4, #70]	; 0x46
 800729a:	f884 3047 	strb.w	r3, [r4, #71]	; 0x47
 800729e:	f884 303d 	strb.w	r3, [r4, #61]	; 0x3d
 80072a2:	bd10      	pop	{r4, pc}
 80072a4:	2001      	movs	r0, #1
 80072a6:	e7fc      	b.n	80072a2 <HAL_TIM_PWM_Init+0x5a>

080072a8 <TIM_OC2_SetConfig>:
 80072a8:	6a03      	ldr	r3, [r0, #32]
 80072aa:	f023 0310 	bic.w	r3, r3, #16
 80072ae:	b570      	push	{r4, r5, r6, lr}
 80072b0:	6203      	str	r3, [r0, #32]
 80072b2:	6a03      	ldr	r3, [r0, #32]
 80072b4:	6844      	ldr	r4, [r0, #4]
 80072b6:	6982      	ldr	r2, [r0, #24]
 80072b8:	f023 0320 	bic.w	r3, r3, #32
 80072bc:	680d      	ldr	r5, [r1, #0]
 80072be:	f022 7280 	bic.w	r2, r2, #16777216	; 0x1000000
 80072c2:	f422 42e6 	bic.w	r2, r2, #29440	; 0x7300
 80072c6:	ea42 2205 	orr.w	r2, r2, r5, lsl #8
 80072ca:	688d      	ldr	r5, [r1, #8]
 80072cc:	ea43 1305 	orr.w	r3, r3, r5, lsl #4
 80072d0:	4d16      	ldr	r5, [pc, #88]	; (800732c <TIM_OC2_SetConfig+0x84>)
 80072d2:	42a8      	cmp	r0, r5
 80072d4:	d003      	beq.n	80072de <TIM_OC2_SetConfig+0x36>
 80072d6:	f505 6580 	add.w	r5, r5, #1024	; 0x400
 80072da:	42a8      	cmp	r0, r5
 80072dc:	d10d      	bne.n	80072fa <TIM_OC2_SetConfig+0x52>
 80072de:	68cd      	ldr	r5, [r1, #12]
 80072e0:	f023 0380 	bic.w	r3, r3, #128	; 0x80
 80072e4:	ea43 1305 	orr.w	r3, r3, r5, lsl #4
 80072e8:	4d10      	ldr	r5, [pc, #64]	; (800732c <TIM_OC2_SetConfig+0x84>)
 80072ea:	42a8      	cmp	r0, r5
 80072ec:	f023 0340 	bic.w	r3, r3, #64	; 0x40
 80072f0:	d00e      	beq.n	8007310 <TIM_OC2_SetConfig+0x68>
 80072f2:	f505 6580 	add.w	r5, r5, #1024	; 0x400
 80072f6:	42a8      	cmp	r0, r5
 80072f8:	d00a      	beq.n	8007310 <TIM_OC2_SetConfig+0x68>
 80072fa:	4d0d      	ldr	r5, [pc, #52]	; (8007330 <TIM_OC2_SetConfig+0x88>)
 80072fc:	42a8      	cmp	r0, r5
 80072fe:	d007      	beq.n	8007310 <TIM_OC2_SetConfig+0x68>
 8007300:	f505 6580 	add.w	r5, r5, #1024	; 0x400
 8007304:	42a8      	cmp	r0, r5
 8007306:	d003      	beq.n	8007310 <TIM_OC2_SetConfig+0x68>
 8007308:	f505 6580 	add.w	r5, r5, #1024	; 0x400
 800730c:	42a8      	cmp	r0, r5
 800730e:	d106      	bne.n	800731e <TIM_OC2_SetConfig+0x76>
 8007310:	f424 6540 	bic.w	r5, r4, #3072	; 0xc00
 8007314:	e9d1 4605 	ldrd	r4, r6, [r1, #20]
 8007318:	4334      	orrs	r4, r6
 800731a:	ea45 0484 	orr.w	r4, r5, r4, lsl #2
 800731e:	6044      	str	r4, [r0, #4]
 8007320:	6182      	str	r2, [r0, #24]
 8007322:	684a      	ldr	r2, [r1, #4]
 8007324:	6382      	str	r2, [r0, #56]	; 0x38
 8007326:	6203      	str	r3, [r0, #32]
 8007328:	bd70      	pop	{r4, r5, r6, pc}
 800732a:	bf00      	nop
 800732c:	40010000 	.word	0x40010000
 8007330:	40014000 	.word	0x40014000

08007334 <HAL_TIM_PWM_ConfigChannel>:
 8007334:	b570      	push	{r4, r5, r6, lr}
 8007336:	f890 303c 	ldrb.w	r3, [r0, #60]	; 0x3c
 800733a:	4605      	mov	r5, r0
 800733c:	2b01      	cmp	r3, #1
 800733e:	d074      	beq.n	800742a <HAL_TIM_PWM_ConfigChannel+0xf6>
 8007340:	2301      	movs	r3, #1
 8007342:	2a0c      	cmp	r2, #12
 8007344:	f880 303c 	strb.w	r3, [r0, #60]	; 0x3c
 8007348:	d04f      	beq.n	80073ea <HAL_TIM_PWM_ConfigChannel+0xb6>
 800734a:	d809      	bhi.n	8007360 <HAL_TIM_PWM_ConfigChannel+0x2c>
 800734c:	2a04      	cmp	r2, #4
 800734e:	d02c      	beq.n	80073aa <HAL_TIM_PWM_ConfigChannel+0x76>
 8007350:	2a08      	cmp	r2, #8
 8007352:	d03a      	beq.n	80073ca <HAL_TIM_PWM_ConfigChannel+0x96>
 8007354:	b1c2      	cbz	r2, 8007388 <HAL_TIM_PWM_ConfigChannel+0x54>
 8007356:	4618      	mov	r0, r3
 8007358:	2300      	movs	r3, #0
 800735a:	f885 303c 	strb.w	r3, [r5, #60]	; 0x3c
 800735e:	bd70      	pop	{r4, r5, r6, pc}
 8007360:	2a10      	cmp	r2, #16
 8007362:	d052      	beq.n	800740a <HAL_TIM_PWM_ConfigChannel+0xd6>
 8007364:	2a14      	cmp	r2, #20
 8007366:	d1f6      	bne.n	8007356 <HAL_TIM_PWM_ConfigChannel+0x22>
 8007368:	6800      	ldr	r0, [r0, #0]
 800736a:	f7ff fe1f 	bl	8006fac <TIM_OC6_SetConfig>
 800736e:	690a      	ldr	r2, [r1, #16]
 8007370:	6d43      	ldr	r3, [r0, #84]	; 0x54
 8007372:	f443 6300 	orr.w	r3, r3, #2048	; 0x800
 8007376:	6543      	str	r3, [r0, #84]	; 0x54
 8007378:	6d43      	ldr	r3, [r0, #84]	; 0x54
 800737a:	f423 6380 	bic.w	r3, r3, #1024	; 0x400
 800737e:	6543      	str	r3, [r0, #84]	; 0x54
 8007380:	6d43      	ldr	r3, [r0, #84]	; 0x54
 8007382:	ea43 2302 	orr.w	r3, r3, r2, lsl #8
 8007386:	e04e      	b.n	8007426 <HAL_TIM_PWM_ConfigChannel+0xf2>
 8007388:	6800      	ldr	r0, [r0, #0]
 800738a:	f7ff fd17 	bl	8006dbc <TIM_OC1_SetConfig>
 800738e:	690a      	ldr	r2, [r1, #16]
 8007390:	6983      	ldr	r3, [r0, #24]
 8007392:	f043 0308 	orr.w	r3, r3, #8
 8007396:	6183      	str	r3, [r0, #24]
 8007398:	6983      	ldr	r3, [r0, #24]
 800739a:	f023 0304 	bic.w	r3, r3, #4
 800739e:	6183      	str	r3, [r0, #24]
 80073a0:	6983      	ldr	r3, [r0, #24]
 80073a2:	4313      	orrs	r3, r2
 80073a4:	6183      	str	r3, [r0, #24]
 80073a6:	2000      	movs	r0, #0
 80073a8:	e7d6      	b.n	8007358 <HAL_TIM_PWM_ConfigChannel+0x24>
 80073aa:	6800      	ldr	r0, [r0, #0]
 80073ac:	f7ff ff7c 	bl	80072a8 <TIM_OC2_SetConfig>
 80073b0:	690a      	ldr	r2, [r1, #16]
 80073b2:	6983      	ldr	r3, [r0, #24]
 80073b4:	f443 6300 	orr.w	r3, r3, #2048	; 0x800
 80073b8:	6183      	str	r3, [r0, #24]
 80073ba:	6983      	ldr	r3, [r0, #24]
 80073bc:	f423 6380 	bic.w	r3, r3, #1024	; 0x400
 80073c0:	6183      	str	r3, [r0, #24]
 80073c2:	6983      	ldr	r3, [r0, #24]
 80073c4:	ea43 2302 	orr.w	r3, r3, r2, lsl #8
 80073c8:	e7ec      	b.n	80073a4 <HAL_TIM_PWM_ConfigChannel+0x70>
 80073ca:	6800      	ldr	r0, [r0, #0]
 80073cc:	f7ff fd42 	bl	8006e54 <TIM_OC3_SetConfig>
 80073d0:	690a      	ldr	r2, [r1, #16]
 80073d2:	69c3      	ldr	r3, [r0, #28]
 80073d4:	f043 0308 	orr.w	r3, r3, #8
 80073d8:	61c3      	str	r3, [r0, #28]
 80073da:	69c3      	ldr	r3, [r0, #28]
 80073dc:	f023 0304 	bic.w	r3, r3, #4
 80073e0:	61c3      	str	r3, [r0, #28]
 80073e2:	69c3      	ldr	r3, [r0, #28]
 80073e4:	4313      	orrs	r3, r2
 80073e6:	61c3      	str	r3, [r0, #28]
 80073e8:	e7dd      	b.n	80073a6 <HAL_TIM_PWM_ConfigChannel+0x72>
 80073ea:	6800      	ldr	r0, [r0, #0]
 80073ec:	f7ff fd76 	bl	8006edc <TIM_OC4_SetConfig>
 80073f0:	690a      	ldr	r2, [r1, #16]
 80073f2:	69c3      	ldr	r3, [r0, #28]
 80073f4:	f443 6300 	orr.w	r3, r3, #2048	; 0x800
 80073f8:	61c3      	str	r3, [r0, #28]
 80073fa:	69c3      	ldr	r3, [r0, #28]
 80073fc:	f423 6380 	bic.w	r3, r3, #1024	; 0x400
 8007400:	61c3      	str	r3, [r0, #28]
 8007402:	69c3      	ldr	r3, [r0, #28]
 8007404:	ea43 2302 	orr.w	r3, r3, r2, lsl #8
 8007408:	e7ed      	b.n	80073e6 <HAL_TIM_PWM_ConfigChannel+0xb2>
 800740a:	6800      	ldr	r0, [r0, #0]
 800740c:	f7ff fd9a 	bl	8006f44 <TIM_OC5_SetConfig>
 8007410:	690a      	ldr	r2, [r1, #16]
 8007412:	6d43      	ldr	r3, [r0, #84]	; 0x54
 8007414:	f043 0308 	orr.w	r3, r3, #8
 8007418:	6543      	str	r3, [r0, #84]	; 0x54
 800741a:	6d43      	ldr	r3, [r0, #84]	; 0x54
 800741c:	f023 0304 	bic.w	r3, r3, #4
 8007420:	6543      	str	r3, [r0, #84]	; 0x54
 8007422:	6d43      	ldr	r3, [r0, #84]	; 0x54
 8007424:	4313      	orrs	r3, r2
 8007426:	6543      	str	r3, [r0, #84]	; 0x54
 8007428:	e7bd      	b.n	80073a6 <HAL_TIM_PWM_ConfigChannel+0x72>
 800742a:	2002      	movs	r0, #2
 800742c:	e797      	b.n	800735e <HAL_TIM_PWM_ConfigChannel+0x2a>

0800742e <TIM_CCxNChannelCmd>:
 800742e:	f001 011f 	and.w	r1, r1, #31
 8007432:	6a03      	ldr	r3, [r0, #32]
 8007434:	b510      	push	{r4, lr}
 8007436:	2404      	movs	r4, #4
 8007438:	408a      	lsls	r2, r1
 800743a:	408c      	lsls	r4, r1
 800743c:	ea23 0304 	bic.w	r3, r3, r4
 8007440:	6203      	str	r3, [r0, #32]
 8007442:	6a03      	ldr	r3, [r0, #32]
 8007444:	431a      	orrs	r2, r3
 8007446:	6202      	str	r2, [r0, #32]
 8007448:	bd10      	pop	{r4, pc}
	...

0800744c <HAL_TIMEx_OCN_Start>:
 800744c:	b508      	push	{r3, lr}
 800744e:	b929      	cbnz	r1, 800745c <HAL_TIMEx_OCN_Start+0x10>
 8007450:	f890 3044 	ldrb.w	r3, [r0, #68]	; 0x44
 8007454:	2b01      	cmp	r3, #1
 8007456:	d01d      	beq.n	8007494 <HAL_TIMEx_OCN_Start+0x48>
 8007458:	2001      	movs	r0, #1
 800745a:	bd08      	pop	{r3, pc}
 800745c:	2904      	cmp	r1, #4
 800745e:	d107      	bne.n	8007470 <HAL_TIMEx_OCN_Start+0x24>
 8007460:	f890 3045 	ldrb.w	r3, [r0, #69]	; 0x45
 8007464:	2b01      	cmp	r3, #1
 8007466:	d1f7      	bne.n	8007458 <HAL_TIMEx_OCN_Start+0xc>
 8007468:	2302      	movs	r3, #2
 800746a:	f880 3045 	strb.w	r3, [r0, #69]	; 0x45
 800746e:	e014      	b.n	800749a <HAL_TIMEx_OCN_Start+0x4e>
 8007470:	2908      	cmp	r1, #8
 8007472:	d107      	bne.n	8007484 <HAL_TIMEx_OCN_Start+0x38>
 8007474:	f890 3046 	ldrb.w	r3, [r0, #70]	; 0x46
 8007478:	2b01      	cmp	r3, #1
 800747a:	d1ed      	bne.n	8007458 <HAL_TIMEx_OCN_Start+0xc>
 800747c:	2302      	movs	r3, #2
 800747e:	f880 3046 	strb.w	r3, [r0, #70]	; 0x46
 8007482:	e00a      	b.n	800749a <HAL_TIMEx_OCN_Start+0x4e>
 8007484:	f890 3047 	ldrb.w	r3, [r0, #71]	; 0x47
 8007488:	2b01      	cmp	r3, #1
 800748a:	d1e5      	bne.n	8007458 <HAL_TIMEx_OCN_Start+0xc>
 800748c:	2302      	movs	r3, #2
 800748e:	f880 3047 	strb.w	r3, [r0, #71]	; 0x47
 8007492:	e002      	b.n	800749a <HAL_TIMEx_OCN_Start+0x4e>
 8007494:	2302      	movs	r3, #2
 8007496:	f880 3044 	strb.w	r3, [r0, #68]	; 0x44
 800749a:	6800      	ldr	r0, [r0, #0]
 800749c:	2204      	movs	r2, #4
 800749e:	f7ff ffc6 	bl	800742e <TIM_CCxNChannelCmd>
 80074a2:	6c43      	ldr	r3, [r0, #68]	; 0x44
 80074a4:	f443 4300 	orr.w	r3, r3, #32768	; 0x8000
 80074a8:	6443      	str	r3, [r0, #68]	; 0x44
 80074aa:	4b16      	ldr	r3, [pc, #88]	; (8007504 <HAL_TIMEx_OCN_Start+0xb8>)
 80074ac:	4298      	cmp	r0, r3
 80074ae:	d01a      	beq.n	80074e6 <HAL_TIMEx_OCN_Start+0x9a>
 80074b0:	f1b0 4f80 	cmp.w	r0, #1073741824	; 0x40000000
 80074b4:	d017      	beq.n	80074e6 <HAL_TIMEx_OCN_Start+0x9a>
 80074b6:	f5a3 437c 	sub.w	r3, r3, #64512	; 0xfc00
 80074ba:	4298      	cmp	r0, r3
 80074bc:	d013      	beq.n	80074e6 <HAL_TIMEx_OCN_Start+0x9a>
 80074be:	f503 6380 	add.w	r3, r3, #1024	; 0x400
 80074c2:	4298      	cmp	r0, r3
 80074c4:	d00f      	beq.n	80074e6 <HAL_TIMEx_OCN_Start+0x9a>
 80074c6:	f503 6380 	add.w	r3, r3, #1024	; 0x400
 80074ca:	4298      	cmp	r0, r3
 80074cc:	d00b      	beq.n	80074e6 <HAL_TIMEx_OCN_Start+0x9a>
 80074ce:	f503 4378 	add.w	r3, r3, #63488	; 0xf800
 80074d2:	4298      	cmp	r0, r3
 80074d4:	d007      	beq.n	80074e6 <HAL_TIMEx_OCN_Start+0x9a>
 80074d6:	f5a3 436c 	sub.w	r3, r3, #60416	; 0xec00
 80074da:	4298      	cmp	r0, r3
 80074dc:	d003      	beq.n	80074e6 <HAL_TIMEx_OCN_Start+0x9a>
 80074de:	f503 3394 	add.w	r3, r3, #75776	; 0x12800
 80074e2:	4298      	cmp	r0, r3
 80074e4:	d107      	bne.n	80074f6 <HAL_TIMEx_OCN_Start+0xaa>
 80074e6:	6882      	ldr	r2, [r0, #8]
 80074e8:	4b07      	ldr	r3, [pc, #28]	; (8007508 <HAL_TIMEx_OCN_Start+0xbc>)
 80074ea:	4013      	ands	r3, r2
 80074ec:	2b06      	cmp	r3, #6
 80074ee:	d006      	beq.n	80074fe <HAL_TIMEx_OCN_Start+0xb2>
 80074f0:	f5b3 3f80 	cmp.w	r3, #65536	; 0x10000
 80074f4:	d003      	beq.n	80074fe <HAL_TIMEx_OCN_Start+0xb2>
 80074f6:	6803      	ldr	r3, [r0, #0]
 80074f8:	f043 0301 	orr.w	r3, r3, #1
 80074fc:	6003      	str	r3, [r0, #0]
 80074fe:	2000      	movs	r0, #0
 8007500:	e7ab      	b.n	800745a <HAL_TIMEx_OCN_Start+0xe>
 8007502:	bf00      	nop
 8007504:	40010000 	.word	0x40010000
 8007508:	00010007 	.word	0x00010007

0800750c <HAL_TIMEx_PWMN_Start>:
 800750c:	f7ff bf9e 	b.w	800744c <HAL_TIMEx_OCN_Start>

08007510 <HAL_TIMEx_MasterConfigSynchronization>:
 8007510:	b570      	push	{r4, r5, r6, lr}
 8007512:	f890 303c 	ldrb.w	r3, [r0, #60]	; 0x3c
 8007516:	2b01      	cmp	r3, #1
 8007518:	f04f 0302 	mov.w	r3, #2
 800751c:	d03b      	beq.n	8007596 <HAL_TIMEx_MasterConfigSynchronization+0x86>
 800751e:	f880 303d 	strb.w	r3, [r0, #61]	; 0x3d
 8007522:	4d1e      	ldr	r5, [pc, #120]	; (800759c <HAL_TIMEx_MasterConfigSynchronization+0x8c>)
 8007524:	6803      	ldr	r3, [r0, #0]
 8007526:	42ab      	cmp	r3, r5
 8007528:	685a      	ldr	r2, [r3, #4]
 800752a:	689c      	ldr	r4, [r3, #8]
 800752c:	d002      	beq.n	8007534 <HAL_TIMEx_MasterConfigSynchronization+0x24>
 800752e:	4e1c      	ldr	r6, [pc, #112]	; (80075a0 <HAL_TIMEx_MasterConfigSynchronization+0x90>)
 8007530:	42b3      	cmp	r3, r6
 8007532:	d103      	bne.n	800753c <HAL_TIMEx_MasterConfigSynchronization+0x2c>
 8007534:	f422 0270 	bic.w	r2, r2, #15728640	; 0xf00000
 8007538:	684e      	ldr	r6, [r1, #4]
 800753a:	4332      	orrs	r2, r6
 800753c:	680e      	ldr	r6, [r1, #0]
 800753e:	f022 0270 	bic.w	r2, r2, #112	; 0x70
 8007542:	42ab      	cmp	r3, r5
 8007544:	ea42 0206 	orr.w	r2, r2, r6
 8007548:	605a      	str	r2, [r3, #4]
 800754a:	d019      	beq.n	8007580 <HAL_TIMEx_MasterConfigSynchronization+0x70>
 800754c:	f1b3 4f80 	cmp.w	r3, #1073741824	; 0x40000000
 8007550:	d016      	beq.n	8007580 <HAL_TIMEx_MasterConfigSynchronization+0x70>
 8007552:	4a14      	ldr	r2, [pc, #80]	; (80075a4 <HAL_TIMEx_MasterConfigSynchronization+0x94>)
 8007554:	4293      	cmp	r3, r2
 8007556:	d013      	beq.n	8007580 <HAL_TIMEx_MasterConfigSynchronization+0x70>
 8007558:	f502 6280 	add.w	r2, r2, #1024	; 0x400
 800755c:	4293      	cmp	r3, r2
 800755e:	d00f      	beq.n	8007580 <HAL_TIMEx_MasterConfigSynchronization+0x70>
 8007560:	f502 6280 	add.w	r2, r2, #1024	; 0x400
 8007564:	4293      	cmp	r3, r2
 8007566:	d00b      	beq.n	8007580 <HAL_TIMEx_MasterConfigSynchronization+0x70>
 8007568:	f502 4278 	add.w	r2, r2, #63488	; 0xf800
 800756c:	4293      	cmp	r3, r2
 800756e:	d007      	beq.n	8007580 <HAL_TIMEx_MasterConfigSynchronization+0x70>
 8007570:	f5a2 426c 	sub.w	r2, r2, #60416	; 0xec00
 8007574:	4293      	cmp	r3, r2
 8007576:	d003      	beq.n	8007580 <HAL_TIMEx_MasterConfigSynchronization+0x70>
 8007578:	f502 3294 	add.w	r2, r2, #75776	; 0x12800
 800757c:	4293      	cmp	r3, r2
 800757e:	d104      	bne.n	800758a <HAL_TIMEx_MasterConfigSynchronization+0x7a>
 8007580:	6889      	ldr	r1, [r1, #8]
 8007582:	f024 0280 	bic.w	r2, r4, #128	; 0x80
 8007586:	430a      	orrs	r2, r1
 8007588:	609a      	str	r2, [r3, #8]
 800758a:	2301      	movs	r3, #1
 800758c:	f880 303d 	strb.w	r3, [r0, #61]	; 0x3d
 8007590:	2300      	movs	r3, #0
 8007592:	f880 303c 	strb.w	r3, [r0, #60]	; 0x3c
 8007596:	4618      	mov	r0, r3
 8007598:	bd70      	pop	{r4, r5, r6, pc}
 800759a:	bf00      	nop
 800759c:	40010000 	.word	0x40010000
 80075a0:	40010400 	.word	0x40010400
 80075a4:	40000400 	.word	0x40000400

080075a8 <HAL_TIMEx_ConfigBreakDeadTime>:
 80075a8:	b510      	push	{r4, lr}
 80075aa:	f890 303c 	ldrb.w	r3, [r0, #60]	; 0x3c
 80075ae:	2b01      	cmp	r3, #1
 80075b0:	d038      	beq.n	8007624 <HAL_TIMEx_ConfigBreakDeadTime+0x7c>
 80075b2:	68cb      	ldr	r3, [r1, #12]
 80075b4:	688a      	ldr	r2, [r1, #8]
 80075b6:	f423 7340 	bic.w	r3, r3, #768	; 0x300
 80075ba:	4c1b      	ldr	r4, [pc, #108]	; (8007628 <HAL_TIMEx_ConfigBreakDeadTime+0x80>)
 80075bc:	4313      	orrs	r3, r2
 80075be:	684a      	ldr	r2, [r1, #4]
 80075c0:	f423 6380 	bic.w	r3, r3, #1024	; 0x400
 80075c4:	4313      	orrs	r3, r2
 80075c6:	680a      	ldr	r2, [r1, #0]
 80075c8:	f423 6300 	bic.w	r3, r3, #2048	; 0x800
 80075cc:	4313      	orrs	r3, r2
 80075ce:	690a      	ldr	r2, [r1, #16]
 80075d0:	f423 5380 	bic.w	r3, r3, #4096	; 0x1000
 80075d4:	4313      	orrs	r3, r2
 80075d6:	694a      	ldr	r2, [r1, #20]
 80075d8:	f423 5300 	bic.w	r3, r3, #8192	; 0x2000
 80075dc:	4313      	orrs	r3, r2
 80075de:	6a8a      	ldr	r2, [r1, #40]	; 0x28
 80075e0:	f423 4380 	bic.w	r3, r3, #16384	; 0x4000
 80075e4:	4313      	orrs	r3, r2
 80075e6:	698a      	ldr	r2, [r1, #24]
 80075e8:	f423 2370 	bic.w	r3, r3, #983040	; 0xf0000
 80075ec:	ea43 4302 	orr.w	r3, r3, r2, lsl #16
 80075f0:	6802      	ldr	r2, [r0, #0]
 80075f2:	42a2      	cmp	r2, r4
 80075f4:	d003      	beq.n	80075fe <HAL_TIMEx_ConfigBreakDeadTime+0x56>
 80075f6:	f504 6480 	add.w	r4, r4, #1024	; 0x400
 80075fa:	42a2      	cmp	r2, r4
 80075fc:	d10c      	bne.n	8007618 <HAL_TIMEx_ConfigBreakDeadTime+0x70>
 80075fe:	6a4c      	ldr	r4, [r1, #36]	; 0x24
 8007600:	f423 0370 	bic.w	r3, r3, #15728640	; 0xf00000
 8007604:	ea43 5304 	orr.w	r3, r3, r4, lsl #20
 8007608:	69cc      	ldr	r4, [r1, #28]
 800760a:	6a09      	ldr	r1, [r1, #32]
 800760c:	f023 7380 	bic.w	r3, r3, #16777216	; 0x1000000
 8007610:	4323      	orrs	r3, r4
 8007612:	f023 7300 	bic.w	r3, r3, #33554432	; 0x2000000
 8007616:	430b      	orrs	r3, r1
 8007618:	6453      	str	r3, [r2, #68]	; 0x44
 800761a:	2300      	movs	r3, #0
 800761c:	f880 303c 	strb.w	r3, [r0, #60]	; 0x3c
 8007620:	4618      	mov	r0, r3
 8007622:	bd10      	pop	{r4, pc}
 8007624:	2002      	movs	r0, #2
 8007626:	e7fc      	b.n	8007622 <HAL_TIMEx_ConfigBreakDeadTime+0x7a>
 8007628:	40010000 	.word	0x40010000

0800762c <HAL_TIMEx_CommutCallback>:
 800762c:	4770      	bx	lr

0800762e <HAL_TIMEx_BreakCallback>:
 800762e:	4770      	bx	lr

08007630 <HAL_TIMEx_Break2Callback>:
 8007630:	4770      	bx	lr
	...

08007634 <siprintf>:
 8007634:	b40e      	push	{r1, r2, r3}
 8007636:	b500      	push	{lr}
 8007638:	b09c      	sub	sp, #112	; 0x70
 800763a:	ab1d      	add	r3, sp, #116	; 0x74
 800763c:	9002      	str	r0, [sp, #8]
 800763e:	9006      	str	r0, [sp, #24]
 8007640:	f06f 4100 	mvn.w	r1, #2147483648	; 0x80000000
 8007644:	4809      	ldr	r0, [pc, #36]	; (800766c <siprintf+0x38>)
 8007646:	9107      	str	r1, [sp, #28]
 8007648:	9104      	str	r1, [sp, #16]
 800764a:	4909      	ldr	r1, [pc, #36]	; (8007670 <siprintf+0x3c>)
 800764c:	f853 2b04 	ldr.w	r2, [r3], #4
 8007650:	9105      	str	r1, [sp, #20]
 8007652:	6800      	ldr	r0, [r0, #0]
 8007654:	9301      	str	r3, [sp, #4]
 8007656:	a902      	add	r1, sp, #8
 8007658:	f000 f99a 	bl	8007990 <_svfiprintf_r>
 800765c:	9b02      	ldr	r3, [sp, #8]
 800765e:	2200      	movs	r2, #0
 8007660:	701a      	strb	r2, [r3, #0]
 8007662:	b01c      	add	sp, #112	; 0x70
 8007664:	f85d eb04 	ldr.w	lr, [sp], #4
 8007668:	b003      	add	sp, #12
 800766a:	4770      	bx	lr
 800766c:	240000d0 	.word	0x240000d0
 8007670:	ffff0208 	.word	0xffff0208

08007674 <memset>:
 8007674:	4402      	add	r2, r0
 8007676:	4603      	mov	r3, r0
 8007678:	4293      	cmp	r3, r2
 800767a:	d100      	bne.n	800767e <memset+0xa>
 800767c:	4770      	bx	lr
 800767e:	f803 1b01 	strb.w	r1, [r3], #1
 8007682:	e7f9      	b.n	8007678 <memset+0x4>

08007684 <__errno>:
 8007684:	4b01      	ldr	r3, [pc, #4]	; (800768c <__errno+0x8>)
 8007686:	6818      	ldr	r0, [r3, #0]
 8007688:	4770      	bx	lr
 800768a:	bf00      	nop
 800768c:	240000d0 	.word	0x240000d0

08007690 <__libc_init_array>:
 8007690:	b570      	push	{r4, r5, r6, lr}
 8007692:	4d0d      	ldr	r5, [pc, #52]	; (80076c8 <__libc_init_array+0x38>)
 8007694:	4c0d      	ldr	r4, [pc, #52]	; (80076cc <__libc_init_array+0x3c>)
 8007696:	1b64      	subs	r4, r4, r5
 8007698:	10a4      	asrs	r4, r4, #2
 800769a:	2600      	movs	r6, #0
 800769c:	42a6      	cmp	r6, r4
 800769e:	d109      	bne.n	80076b4 <__libc_init_array+0x24>
 80076a0:	4d0b      	ldr	r5, [pc, #44]	; (80076d0 <__libc_init_array+0x40>)
 80076a2:	4c0c      	ldr	r4, [pc, #48]	; (80076d4 <__libc_init_array+0x44>)
 80076a4:	f000 fc72 	bl	8007f8c <_init>
 80076a8:	1b64      	subs	r4, r4, r5
 80076aa:	10a4      	asrs	r4, r4, #2
 80076ac:	2600      	movs	r6, #0
 80076ae:	42a6      	cmp	r6, r4
 80076b0:	d105      	bne.n	80076be <__libc_init_array+0x2e>
 80076b2:	bd70      	pop	{r4, r5, r6, pc}
 80076b4:	f855 3b04 	ldr.w	r3, [r5], #4
 80076b8:	4798      	blx	r3
 80076ba:	3601      	adds	r6, #1
 80076bc:	e7ee      	b.n	800769c <__libc_init_array+0xc>
 80076be:	f855 3b04 	ldr.w	r3, [r5], #4
 80076c2:	4798      	blx	r3
 80076c4:	3601      	adds	r6, #1
 80076c6:	e7f2      	b.n	80076ae <__libc_init_array+0x1e>
 80076c8:	0800f6e4 	.word	0x0800f6e4
 80076cc:	0800f6e4 	.word	0x0800f6e4
 80076d0:	0800f6e4 	.word	0x0800f6e4
 80076d4:	0800f6e8 	.word	0x0800f6e8

080076d8 <__retarget_lock_acquire_recursive>:
 80076d8:	4770      	bx	lr

080076da <__retarget_lock_release_recursive>:
 80076da:	4770      	bx	lr

080076dc <strcpy>:
 80076dc:	4603      	mov	r3, r0
 80076de:	f811 2b01 	ldrb.w	r2, [r1], #1
 80076e2:	f803 2b01 	strb.w	r2, [r3], #1
 80076e6:	2a00      	cmp	r2, #0
 80076e8:	d1f9      	bne.n	80076de <strcpy+0x2>
 80076ea:	4770      	bx	lr

080076ec <_free_r>:
 80076ec:	b537      	push	{r0, r1, r2, r4, r5, lr}
 80076ee:	2900      	cmp	r1, #0
 80076f0:	d044      	beq.n	800777c <_free_r+0x90>
 80076f2:	f851 3c04 	ldr.w	r3, [r1, #-4]
 80076f6:	9001      	str	r0, [sp, #4]
 80076f8:	2b00      	cmp	r3, #0
 80076fa:	f1a1 0404 	sub.w	r4, r1, #4
 80076fe:	bfb8      	it	lt
 8007700:	18e4      	addlt	r4, r4, r3
 8007702:	f000 f8df 	bl	80078c4 <__malloc_lock>
 8007706:	4a1e      	ldr	r2, [pc, #120]	; (8007780 <_free_r+0x94>)
 8007708:	9801      	ldr	r0, [sp, #4]
 800770a:	6813      	ldr	r3, [r2, #0]
 800770c:	b933      	cbnz	r3, 800771c <_free_r+0x30>
 800770e:	6063      	str	r3, [r4, #4]
 8007710:	6014      	str	r4, [r2, #0]
 8007712:	b003      	add	sp, #12
 8007714:	e8bd 4030 	ldmia.w	sp!, {r4, r5, lr}
 8007718:	f000 b8da 	b.w	80078d0 <__malloc_unlock>
 800771c:	42a3      	cmp	r3, r4
 800771e:	d908      	bls.n	8007732 <_free_r+0x46>
 8007720:	6825      	ldr	r5, [r4, #0]
 8007722:	1961      	adds	r1, r4, r5
 8007724:	428b      	cmp	r3, r1
 8007726:	bf01      	itttt	eq
 8007728:	6819      	ldreq	r1, [r3, #0]
 800772a:	685b      	ldreq	r3, [r3, #4]
 800772c:	1949      	addeq	r1, r1, r5
 800772e:	6021      	streq	r1, [r4, #0]
 8007730:	e7ed      	b.n	800770e <_free_r+0x22>
 8007732:	461a      	mov	r2, r3
 8007734:	685b      	ldr	r3, [r3, #4]
 8007736:	b10b      	cbz	r3, 800773c <_free_r+0x50>
 8007738:	42a3      	cmp	r3, r4
 800773a:	d9fa      	bls.n	8007732 <_free_r+0x46>
 800773c:	6811      	ldr	r1, [r2, #0]
 800773e:	1855      	adds	r5, r2, r1
 8007740:	42a5      	cmp	r5, r4
 8007742:	d10b      	bne.n	800775c <_free_r+0x70>
 8007744:	6824      	ldr	r4, [r4, #0]
 8007746:	4421      	add	r1, r4
 8007748:	1854      	adds	r4, r2, r1
 800774a:	42a3      	cmp	r3, r4
 800774c:	6011      	str	r1, [r2, #0]
 800774e:	d1e0      	bne.n	8007712 <_free_r+0x26>
 8007750:	681c      	ldr	r4, [r3, #0]
 8007752:	685b      	ldr	r3, [r3, #4]
 8007754:	6053      	str	r3, [r2, #4]
 8007756:	440c      	add	r4, r1
 8007758:	6014      	str	r4, [r2, #0]
 800775a:	e7da      	b.n	8007712 <_free_r+0x26>
 800775c:	d902      	bls.n	8007764 <_free_r+0x78>
 800775e:	230c      	movs	r3, #12
 8007760:	6003      	str	r3, [r0, #0]
 8007762:	e7d6      	b.n	8007712 <_free_r+0x26>
 8007764:	6825      	ldr	r5, [r4, #0]
 8007766:	1961      	adds	r1, r4, r5
 8007768:	428b      	cmp	r3, r1
 800776a:	bf04      	itt	eq
 800776c:	6819      	ldreq	r1, [r3, #0]
 800776e:	685b      	ldreq	r3, [r3, #4]
 8007770:	6063      	str	r3, [r4, #4]
 8007772:	bf04      	itt	eq
 8007774:	1949      	addeq	r1, r1, r5
 8007776:	6021      	streq	r1, [r4, #0]
 8007778:	6054      	str	r4, [r2, #4]
 800777a:	e7ca      	b.n	8007712 <_free_r+0x26>
 800777c:	b003      	add	sp, #12
 800777e:	bd30      	pop	{r4, r5, pc}
 8007780:	24006df8 	.word	0x24006df8

08007784 <sbrk_aligned>:
 8007784:	b570      	push	{r4, r5, r6, lr}
 8007786:	4e0e      	ldr	r6, [pc, #56]	; (80077c0 <sbrk_aligned+0x3c>)
 8007788:	460c      	mov	r4, r1
 800778a:	6831      	ldr	r1, [r6, #0]
 800778c:	4605      	mov	r5, r0
 800778e:	b911      	cbnz	r1, 8007796 <sbrk_aligned+0x12>
 8007790:	f000 fba6 	bl	8007ee0 <_sbrk_r>
 8007794:	6030      	str	r0, [r6, #0]
 8007796:	4621      	mov	r1, r4
 8007798:	4628      	mov	r0, r5
 800779a:	f000 fba1 	bl	8007ee0 <_sbrk_r>
 800779e:	1c43      	adds	r3, r0, #1
 80077a0:	d00a      	beq.n	80077b8 <sbrk_aligned+0x34>
 80077a2:	1cc4      	adds	r4, r0, #3
 80077a4:	f024 0403 	bic.w	r4, r4, #3
 80077a8:	42a0      	cmp	r0, r4
 80077aa:	d007      	beq.n	80077bc <sbrk_aligned+0x38>
 80077ac:	1a21      	subs	r1, r4, r0
 80077ae:	4628      	mov	r0, r5
 80077b0:	f000 fb96 	bl	8007ee0 <_sbrk_r>
 80077b4:	3001      	adds	r0, #1
 80077b6:	d101      	bne.n	80077bc <sbrk_aligned+0x38>
 80077b8:	f04f 34ff 	mov.w	r4, #4294967295
 80077bc:	4620      	mov	r0, r4
 80077be:	bd70      	pop	{r4, r5, r6, pc}
 80077c0:	24006dfc 	.word	0x24006dfc

080077c4 <_malloc_r>:
 80077c4:	e92d 43f8 	stmdb	sp!, {r3, r4, r5, r6, r7, r8, r9, lr}
 80077c8:	1ccd      	adds	r5, r1, #3
 80077ca:	f025 0503 	bic.w	r5, r5, #3
 80077ce:	3508      	adds	r5, #8
 80077d0:	2d0c      	cmp	r5, #12
 80077d2:	bf38      	it	cc
 80077d4:	250c      	movcc	r5, #12
 80077d6:	2d00      	cmp	r5, #0
 80077d8:	4607      	mov	r7, r0
 80077da:	db01      	blt.n	80077e0 <_malloc_r+0x1c>
 80077dc:	42a9      	cmp	r1, r5
 80077de:	d905      	bls.n	80077ec <_malloc_r+0x28>
 80077e0:	230c      	movs	r3, #12
 80077e2:	603b      	str	r3, [r7, #0]
 80077e4:	2600      	movs	r6, #0
 80077e6:	4630      	mov	r0, r6
 80077e8:	e8bd 83f8 	ldmia.w	sp!, {r3, r4, r5, r6, r7, r8, r9, pc}
 80077ec:	f8df 80d0 	ldr.w	r8, [pc, #208]	; 80078c0 <_malloc_r+0xfc>
 80077f0:	f000 f868 	bl	80078c4 <__malloc_lock>
 80077f4:	f8d8 3000 	ldr.w	r3, [r8]
 80077f8:	461c      	mov	r4, r3
 80077fa:	bb5c      	cbnz	r4, 8007854 <_malloc_r+0x90>
 80077fc:	4629      	mov	r1, r5
 80077fe:	4638      	mov	r0, r7
 8007800:	f7ff ffc0 	bl	8007784 <sbrk_aligned>
 8007804:	1c43      	adds	r3, r0, #1
 8007806:	4604      	mov	r4, r0
 8007808:	d155      	bne.n	80078b6 <_malloc_r+0xf2>
 800780a:	f8d8 4000 	ldr.w	r4, [r8]
 800780e:	4626      	mov	r6, r4
 8007810:	2e00      	cmp	r6, #0
 8007812:	d145      	bne.n	80078a0 <_malloc_r+0xdc>
 8007814:	2c00      	cmp	r4, #0
 8007816:	d048      	beq.n	80078aa <_malloc_r+0xe6>
 8007818:	6823      	ldr	r3, [r4, #0]
 800781a:	4631      	mov	r1, r6
 800781c:	4638      	mov	r0, r7
 800781e:	eb04 0903 	add.w	r9, r4, r3
 8007822:	f000 fb5d 	bl	8007ee0 <_sbrk_r>
 8007826:	4581      	cmp	r9, r0
 8007828:	d13f      	bne.n	80078aa <_malloc_r+0xe6>
 800782a:	6821      	ldr	r1, [r4, #0]
 800782c:	1a6d      	subs	r5, r5, r1
 800782e:	4629      	mov	r1, r5
 8007830:	4638      	mov	r0, r7
 8007832:	f7ff ffa7 	bl	8007784 <sbrk_aligned>
 8007836:	3001      	adds	r0, #1
 8007838:	d037      	beq.n	80078aa <_malloc_r+0xe6>
 800783a:	6823      	ldr	r3, [r4, #0]
 800783c:	442b      	add	r3, r5
 800783e:	6023      	str	r3, [r4, #0]
 8007840:	f8d8 3000 	ldr.w	r3, [r8]
 8007844:	2b00      	cmp	r3, #0
 8007846:	d038      	beq.n	80078ba <_malloc_r+0xf6>
 8007848:	685a      	ldr	r2, [r3, #4]
 800784a:	42a2      	cmp	r2, r4
 800784c:	d12b      	bne.n	80078a6 <_malloc_r+0xe2>
 800784e:	2200      	movs	r2, #0
 8007850:	605a      	str	r2, [r3, #4]
 8007852:	e00f      	b.n	8007874 <_malloc_r+0xb0>
 8007854:	6822      	ldr	r2, [r4, #0]
 8007856:	1b52      	subs	r2, r2, r5
 8007858:	d41f      	bmi.n	800789a <_malloc_r+0xd6>
 800785a:	2a0b      	cmp	r2, #11
 800785c:	d917      	bls.n	800788e <_malloc_r+0xca>
 800785e:	1961      	adds	r1, r4, r5
 8007860:	42a3      	cmp	r3, r4
 8007862:	6025      	str	r5, [r4, #0]
 8007864:	bf18      	it	ne
 8007866:	6059      	strne	r1, [r3, #4]
 8007868:	6863      	ldr	r3, [r4, #4]
 800786a:	bf08      	it	eq
 800786c:	f8c8 1000 	streq.w	r1, [r8]
 8007870:	5162      	str	r2, [r4, r5]
 8007872:	604b      	str	r3, [r1, #4]
 8007874:	4638      	mov	r0, r7
 8007876:	f104 060b 	add.w	r6, r4, #11
 800787a:	f000 f829 	bl	80078d0 <__malloc_unlock>
 800787e:	f026 0607 	bic.w	r6, r6, #7
 8007882:	1d23      	adds	r3, r4, #4
 8007884:	1af2      	subs	r2, r6, r3
 8007886:	d0ae      	beq.n	80077e6 <_malloc_r+0x22>
 8007888:	1b9b      	subs	r3, r3, r6
 800788a:	50a3      	str	r3, [r4, r2]
 800788c:	e7ab      	b.n	80077e6 <_malloc_r+0x22>
 800788e:	42a3      	cmp	r3, r4
 8007890:	6862      	ldr	r2, [r4, #4]
 8007892:	d1dd      	bne.n	8007850 <_malloc_r+0x8c>
 8007894:	f8c8 2000 	str.w	r2, [r8]
 8007898:	e7ec      	b.n	8007874 <_malloc_r+0xb0>
 800789a:	4623      	mov	r3, r4
 800789c:	6864      	ldr	r4, [r4, #4]
 800789e:	e7ac      	b.n	80077fa <_malloc_r+0x36>
 80078a0:	4634      	mov	r4, r6
 80078a2:	6876      	ldr	r6, [r6, #4]
 80078a4:	e7b4      	b.n	8007810 <_malloc_r+0x4c>
 80078a6:	4613      	mov	r3, r2
 80078a8:	e7cc      	b.n	8007844 <_malloc_r+0x80>
 80078aa:	230c      	movs	r3, #12
 80078ac:	603b      	str	r3, [r7, #0]
 80078ae:	4638      	mov	r0, r7
 80078b0:	f000 f80e 	bl	80078d0 <__malloc_unlock>
 80078b4:	e797      	b.n	80077e6 <_malloc_r+0x22>
 80078b6:	6025      	str	r5, [r4, #0]
 80078b8:	e7dc      	b.n	8007874 <_malloc_r+0xb0>
 80078ba:	605b      	str	r3, [r3, #4]
 80078bc:	deff      	udf	#255	; 0xff
 80078be:	bf00      	nop
 80078c0:	24006df8 	.word	0x24006df8

080078c4 <__malloc_lock>:
 80078c4:	4801      	ldr	r0, [pc, #4]	; (80078cc <__malloc_lock+0x8>)
 80078c6:	f7ff bf07 	b.w	80076d8 <__retarget_lock_acquire_recursive>
 80078ca:	bf00      	nop
 80078cc:	24006df4 	.word	0x24006df4

080078d0 <__malloc_unlock>:
 80078d0:	4801      	ldr	r0, [pc, #4]	; (80078d8 <__malloc_unlock+0x8>)
 80078d2:	f7ff bf02 	b.w	80076da <__retarget_lock_release_recursive>
 80078d6:	bf00      	nop
 80078d8:	24006df4 	.word	0x24006df4

080078dc <__ssputs_r>:
 80078dc:	e92d 47f0 	stmdb	sp!, {r4, r5, r6, r7, r8, r9, sl, lr}
 80078e0:	688e      	ldr	r6, [r1, #8]
 80078e2:	461f      	mov	r7, r3
 80078e4:	42be      	cmp	r6, r7
 80078e6:	680b      	ldr	r3, [r1, #0]
 80078e8:	4682      	mov	sl, r0
 80078ea:	460c      	mov	r4, r1
 80078ec:	4690      	mov	r8, r2
 80078ee:	d82c      	bhi.n	800794a <__ssputs_r+0x6e>
 80078f0:	898a      	ldrh	r2, [r1, #12]
 80078f2:	f412 6f90 	tst.w	r2, #1152	; 0x480
 80078f6:	d026      	beq.n	8007946 <__ssputs_r+0x6a>
 80078f8:	6965      	ldr	r5, [r4, #20]
 80078fa:	6909      	ldr	r1, [r1, #16]
 80078fc:	eb05 0545 	add.w	r5, r5, r5, lsl #1
 8007900:	eba3 0901 	sub.w	r9, r3, r1
 8007904:	eb05 75d5 	add.w	r5, r5, r5, lsr #31
 8007908:	1c7b      	adds	r3, r7, #1
 800790a:	444b      	add	r3, r9
 800790c:	106d      	asrs	r5, r5, #1
 800790e:	429d      	cmp	r5, r3
 8007910:	bf38      	it	cc
 8007912:	461d      	movcc	r5, r3
 8007914:	0553      	lsls	r3, r2, #21
 8007916:	d527      	bpl.n	8007968 <__ssputs_r+0x8c>
 8007918:	4629      	mov	r1, r5
 800791a:	f7ff ff53 	bl	80077c4 <_malloc_r>
 800791e:	4606      	mov	r6, r0
 8007920:	b360      	cbz	r0, 800797c <__ssputs_r+0xa0>
 8007922:	6921      	ldr	r1, [r4, #16]
 8007924:	464a      	mov	r2, r9
 8007926:	f000 faeb 	bl	8007f00 <memcpy>
 800792a:	89a3      	ldrh	r3, [r4, #12]
 800792c:	f423 6390 	bic.w	r3, r3, #1152	; 0x480
 8007930:	f043 0380 	orr.w	r3, r3, #128	; 0x80
 8007934:	81a3      	strh	r3, [r4, #12]
 8007936:	6126      	str	r6, [r4, #16]
 8007938:	6165      	str	r5, [r4, #20]
 800793a:	444e      	add	r6, r9
 800793c:	eba5 0509 	sub.w	r5, r5, r9
 8007940:	6026      	str	r6, [r4, #0]
 8007942:	60a5      	str	r5, [r4, #8]
 8007944:	463e      	mov	r6, r7
 8007946:	42be      	cmp	r6, r7
 8007948:	d900      	bls.n	800794c <__ssputs_r+0x70>
 800794a:	463e      	mov	r6, r7
 800794c:	6820      	ldr	r0, [r4, #0]
 800794e:	4632      	mov	r2, r6
 8007950:	4641      	mov	r1, r8
 8007952:	f000 faab 	bl	8007eac <memmove>
 8007956:	68a3      	ldr	r3, [r4, #8]
 8007958:	1b9b      	subs	r3, r3, r6
 800795a:	60a3      	str	r3, [r4, #8]
 800795c:	6823      	ldr	r3, [r4, #0]
 800795e:	4433      	add	r3, r6
 8007960:	6023      	str	r3, [r4, #0]
 8007962:	2000      	movs	r0, #0
 8007964:	e8bd 87f0 	ldmia.w	sp!, {r4, r5, r6, r7, r8, r9, sl, pc}
 8007968:	462a      	mov	r2, r5
 800796a:	f000 fad7 	bl	8007f1c <_realloc_r>
 800796e:	4606      	mov	r6, r0
 8007970:	2800      	cmp	r0, #0
 8007972:	d1e0      	bne.n	8007936 <__ssputs_r+0x5a>
 8007974:	6921      	ldr	r1, [r4, #16]
 8007976:	4650      	mov	r0, sl
 8007978:	f7ff feb8 	bl	80076ec <_free_r>
 800797c:	230c      	movs	r3, #12
 800797e:	f8ca 3000 	str.w	r3, [sl]
 8007982:	89a3      	ldrh	r3, [r4, #12]
 8007984:	f043 0340 	orr.w	r3, r3, #64	; 0x40
 8007988:	81a3      	strh	r3, [r4, #12]
 800798a:	f04f 30ff 	mov.w	r0, #4294967295
 800798e:	e7e9      	b.n	8007964 <__ssputs_r+0x88>

08007990 <_svfiprintf_r>:
 8007990:	e92d 4ff0 	stmdb	sp!, {r4, r5, r6, r7, r8, r9, sl, fp, lr}
 8007994:	4698      	mov	r8, r3
 8007996:	898b      	ldrh	r3, [r1, #12]
 8007998:	061b      	lsls	r3, r3, #24
 800799a:	b09d      	sub	sp, #116	; 0x74
 800799c:	4607      	mov	r7, r0
 800799e:	460d      	mov	r5, r1
 80079a0:	4614      	mov	r4, r2
 80079a2:	d50e      	bpl.n	80079c2 <_svfiprintf_r+0x32>
 80079a4:	690b      	ldr	r3, [r1, #16]
 80079a6:	b963      	cbnz	r3, 80079c2 <_svfiprintf_r+0x32>
 80079a8:	2140      	movs	r1, #64	; 0x40
 80079aa:	f7ff ff0b 	bl	80077c4 <_malloc_r>
 80079ae:	6028      	str	r0, [r5, #0]
 80079b0:	6128      	str	r0, [r5, #16]
 80079b2:	b920      	cbnz	r0, 80079be <_svfiprintf_r+0x2e>
 80079b4:	230c      	movs	r3, #12
 80079b6:	603b      	str	r3, [r7, #0]
 80079b8:	f04f 30ff 	mov.w	r0, #4294967295
 80079bc:	e0d0      	b.n	8007b60 <_svfiprintf_r+0x1d0>
 80079be:	2340      	movs	r3, #64	; 0x40
 80079c0:	616b      	str	r3, [r5, #20]
 80079c2:	2300      	movs	r3, #0
 80079c4:	9309      	str	r3, [sp, #36]	; 0x24
 80079c6:	2320      	movs	r3, #32
 80079c8:	f88d 3029 	strb.w	r3, [sp, #41]	; 0x29
 80079cc:	f8cd 800c 	str.w	r8, [sp, #12]
 80079d0:	2330      	movs	r3, #48	; 0x30
 80079d2:	f8df 81a4 	ldr.w	r8, [pc, #420]	; 8007b78 <_svfiprintf_r+0x1e8>
 80079d6:	f88d 302a 	strb.w	r3, [sp, #42]	; 0x2a
 80079da:	f04f 0901 	mov.w	r9, #1
 80079de:	4623      	mov	r3, r4
 80079e0:	469a      	mov	sl, r3
 80079e2:	f813 2b01 	ldrb.w	r2, [r3], #1
 80079e6:	b10a      	cbz	r2, 80079ec <_svfiprintf_r+0x5c>
 80079e8:	2a25      	cmp	r2, #37	; 0x25
 80079ea:	d1f9      	bne.n	80079e0 <_svfiprintf_r+0x50>
 80079ec:	ebba 0b04 	subs.w	fp, sl, r4
 80079f0:	d00b      	beq.n	8007a0a <_svfiprintf_r+0x7a>
 80079f2:	465b      	mov	r3, fp
 80079f4:	4622      	mov	r2, r4
 80079f6:	4629      	mov	r1, r5
 80079f8:	4638      	mov	r0, r7
 80079fa:	f7ff ff6f 	bl	80078dc <__ssputs_r>
 80079fe:	3001      	adds	r0, #1
 8007a00:	f000 80a9 	beq.w	8007b56 <_svfiprintf_r+0x1c6>
 8007a04:	9a09      	ldr	r2, [sp, #36]	; 0x24
 8007a06:	445a      	add	r2, fp
 8007a08:	9209      	str	r2, [sp, #36]	; 0x24
 8007a0a:	f89a 3000 	ldrb.w	r3, [sl]
 8007a0e:	2b00      	cmp	r3, #0
 8007a10:	f000 80a1 	beq.w	8007b56 <_svfiprintf_r+0x1c6>
 8007a14:	2300      	movs	r3, #0
 8007a16:	f04f 32ff 	mov.w	r2, #4294967295
 8007a1a:	e9cd 2305 	strd	r2, r3, [sp, #20]
 8007a1e:	f10a 0a01 	add.w	sl, sl, #1
 8007a22:	9304      	str	r3, [sp, #16]
 8007a24:	9307      	str	r3, [sp, #28]
 8007a26:	f88d 3053 	strb.w	r3, [sp, #83]	; 0x53
 8007a2a:	931a      	str	r3, [sp, #104]	; 0x68
 8007a2c:	4654      	mov	r4, sl
 8007a2e:	2205      	movs	r2, #5
 8007a30:	f814 1b01 	ldrb.w	r1, [r4], #1
 8007a34:	4850      	ldr	r0, [pc, #320]	; (8007b78 <_svfiprintf_r+0x1e8>)
 8007a36:	f7f8 fc53 	bl	80002e0 <memchr>
 8007a3a:	9a04      	ldr	r2, [sp, #16]
 8007a3c:	b9d8      	cbnz	r0, 8007a76 <_svfiprintf_r+0xe6>
 8007a3e:	06d0      	lsls	r0, r2, #27
 8007a40:	bf44      	itt	mi
 8007a42:	2320      	movmi	r3, #32
 8007a44:	f88d 3053 	strbmi.w	r3, [sp, #83]	; 0x53
 8007a48:	0711      	lsls	r1, r2, #28
 8007a4a:	bf44      	itt	mi
 8007a4c:	232b      	movmi	r3, #43	; 0x2b
 8007a4e:	f88d 3053 	strbmi.w	r3, [sp, #83]	; 0x53
 8007a52:	f89a 3000 	ldrb.w	r3, [sl]
 8007a56:	2b2a      	cmp	r3, #42	; 0x2a
 8007a58:	d015      	beq.n	8007a86 <_svfiprintf_r+0xf6>
 8007a5a:	9a07      	ldr	r2, [sp, #28]
 8007a5c:	4654      	mov	r4, sl
 8007a5e:	2000      	movs	r0, #0
 8007a60:	f04f 0c0a 	mov.w	ip, #10
 8007a64:	4621      	mov	r1, r4
 8007a66:	f811 3b01 	ldrb.w	r3, [r1], #1
 8007a6a:	3b30      	subs	r3, #48	; 0x30
 8007a6c:	2b09      	cmp	r3, #9
 8007a6e:	d94d      	bls.n	8007b0c <_svfiprintf_r+0x17c>
 8007a70:	b1b0      	cbz	r0, 8007aa0 <_svfiprintf_r+0x110>
 8007a72:	9207      	str	r2, [sp, #28]
 8007a74:	e014      	b.n	8007aa0 <_svfiprintf_r+0x110>
 8007a76:	eba0 0308 	sub.w	r3, r0, r8
 8007a7a:	fa09 f303 	lsl.w	r3, r9, r3
 8007a7e:	4313      	orrs	r3, r2
 8007a80:	9304      	str	r3, [sp, #16]
 8007a82:	46a2      	mov	sl, r4
 8007a84:	e7d2      	b.n	8007a2c <_svfiprintf_r+0x9c>
 8007a86:	9b03      	ldr	r3, [sp, #12]
 8007a88:	1d19      	adds	r1, r3, #4
 8007a8a:	681b      	ldr	r3, [r3, #0]
 8007a8c:	9103      	str	r1, [sp, #12]
 8007a8e:	2b00      	cmp	r3, #0
 8007a90:	bfbb      	ittet	lt
 8007a92:	425b      	neglt	r3, r3
 8007a94:	f042 0202 	orrlt.w	r2, r2, #2
 8007a98:	9307      	strge	r3, [sp, #28]
 8007a9a:	9307      	strlt	r3, [sp, #28]
 8007a9c:	bfb8      	it	lt
 8007a9e:	9204      	strlt	r2, [sp, #16]
 8007aa0:	7823      	ldrb	r3, [r4, #0]
 8007aa2:	2b2e      	cmp	r3, #46	; 0x2e
 8007aa4:	d10c      	bne.n	8007ac0 <_svfiprintf_r+0x130>
 8007aa6:	7863      	ldrb	r3, [r4, #1]
 8007aa8:	2b2a      	cmp	r3, #42	; 0x2a
 8007aaa:	d134      	bne.n	8007b16 <_svfiprintf_r+0x186>
 8007aac:	9b03      	ldr	r3, [sp, #12]
 8007aae:	1d1a      	adds	r2, r3, #4
 8007ab0:	681b      	ldr	r3, [r3, #0]
 8007ab2:	9203      	str	r2, [sp, #12]
 8007ab4:	2b00      	cmp	r3, #0
 8007ab6:	bfb8      	it	lt
 8007ab8:	f04f 33ff 	movlt.w	r3, #4294967295
 8007abc:	3402      	adds	r4, #2
 8007abe:	9305      	str	r3, [sp, #20]
 8007ac0:	f8df a0c4 	ldr.w	sl, [pc, #196]	; 8007b88 <_svfiprintf_r+0x1f8>
 8007ac4:	7821      	ldrb	r1, [r4, #0]
 8007ac6:	2203      	movs	r2, #3
 8007ac8:	4650      	mov	r0, sl
 8007aca:	f7f8 fc09 	bl	80002e0 <memchr>
 8007ace:	b138      	cbz	r0, 8007ae0 <_svfiprintf_r+0x150>
 8007ad0:	9b04      	ldr	r3, [sp, #16]
 8007ad2:	eba0 000a 	sub.w	r0, r0, sl
 8007ad6:	2240      	movs	r2, #64	; 0x40
 8007ad8:	4082      	lsls	r2, r0
 8007ada:	4313      	orrs	r3, r2
 8007adc:	3401      	adds	r4, #1
 8007ade:	9304      	str	r3, [sp, #16]
 8007ae0:	f814 1b01 	ldrb.w	r1, [r4], #1
 8007ae4:	4825      	ldr	r0, [pc, #148]	; (8007b7c <_svfiprintf_r+0x1ec>)
 8007ae6:	f88d 1028 	strb.w	r1, [sp, #40]	; 0x28
 8007aea:	2206      	movs	r2, #6
 8007aec:	f7f8 fbf8 	bl	80002e0 <memchr>
 8007af0:	2800      	cmp	r0, #0
 8007af2:	d038      	beq.n	8007b66 <_svfiprintf_r+0x1d6>
 8007af4:	4b22      	ldr	r3, [pc, #136]	; (8007b80 <_svfiprintf_r+0x1f0>)
 8007af6:	bb1b      	cbnz	r3, 8007b40 <_svfiprintf_r+0x1b0>
 8007af8:	9b03      	ldr	r3, [sp, #12]
 8007afa:	3307      	adds	r3, #7
 8007afc:	f023 0307 	bic.w	r3, r3, #7
 8007b00:	3308      	adds	r3, #8
 8007b02:	9303      	str	r3, [sp, #12]
 8007b04:	9b09      	ldr	r3, [sp, #36]	; 0x24
 8007b06:	4433      	add	r3, r6
 8007b08:	9309      	str	r3, [sp, #36]	; 0x24
 8007b0a:	e768      	b.n	80079de <_svfiprintf_r+0x4e>
 8007b0c:	fb0c 3202 	mla	r2, ip, r2, r3
 8007b10:	460c      	mov	r4, r1
 8007b12:	2001      	movs	r0, #1
 8007b14:	e7a6      	b.n	8007a64 <_svfiprintf_r+0xd4>
 8007b16:	2300      	movs	r3, #0
 8007b18:	3401      	adds	r4, #1
 8007b1a:	9305      	str	r3, [sp, #20]
 8007b1c:	4619      	mov	r1, r3
 8007b1e:	f04f 0c0a 	mov.w	ip, #10
 8007b22:	4620      	mov	r0, r4
 8007b24:	f810 2b01 	ldrb.w	r2, [r0], #1
 8007b28:	3a30      	subs	r2, #48	; 0x30
 8007b2a:	2a09      	cmp	r2, #9
 8007b2c:	d903      	bls.n	8007b36 <_svfiprintf_r+0x1a6>
 8007b2e:	2b00      	cmp	r3, #0
 8007b30:	d0c6      	beq.n	8007ac0 <_svfiprintf_r+0x130>
 8007b32:	9105      	str	r1, [sp, #20]
 8007b34:	e7c4      	b.n	8007ac0 <_svfiprintf_r+0x130>
 8007b36:	fb0c 2101 	mla	r1, ip, r1, r2
 8007b3a:	4604      	mov	r4, r0
 8007b3c:	2301      	movs	r3, #1
 8007b3e:	e7f0      	b.n	8007b22 <_svfiprintf_r+0x192>
 8007b40:	ab03      	add	r3, sp, #12
 8007b42:	9300      	str	r3, [sp, #0]
 8007b44:	462a      	mov	r2, r5
 8007b46:	4b0f      	ldr	r3, [pc, #60]	; (8007b84 <_svfiprintf_r+0x1f4>)
 8007b48:	a904      	add	r1, sp, #16
 8007b4a:	4638      	mov	r0, r7
 8007b4c:	f3af 8000 	nop.w
 8007b50:	1c42      	adds	r2, r0, #1
 8007b52:	4606      	mov	r6, r0
 8007b54:	d1d6      	bne.n	8007b04 <_svfiprintf_r+0x174>
 8007b56:	89ab      	ldrh	r3, [r5, #12]
 8007b58:	065b      	lsls	r3, r3, #25
 8007b5a:	f53f af2d 	bmi.w	80079b8 <_svfiprintf_r+0x28>
 8007b5e:	9809      	ldr	r0, [sp, #36]	; 0x24
 8007b60:	b01d      	add	sp, #116	; 0x74
 8007b62:	e8bd 8ff0 	ldmia.w	sp!, {r4, r5, r6, r7, r8, r9, sl, fp, pc}
 8007b66:	ab03      	add	r3, sp, #12
 8007b68:	9300      	str	r3, [sp, #0]
 8007b6a:	462a      	mov	r2, r5
 8007b6c:	4b05      	ldr	r3, [pc, #20]	; (8007b84 <_svfiprintf_r+0x1f4>)
 8007b6e:	a904      	add	r1, sp, #16
 8007b70:	4638      	mov	r0, r7
 8007b72:	f000 f879 	bl	8007c68 <_printf_i>
 8007b76:	e7eb      	b.n	8007b50 <_svfiprintf_r+0x1c0>
 8007b78:	0800f6b1 	.word	0x0800f6b1
 8007b7c:	0800f6bb 	.word	0x0800f6bb
 8007b80:	00000000 	.word	0x00000000
 8007b84:	080078dd 	.word	0x080078dd
 8007b88:	0800f6b7 	.word	0x0800f6b7

08007b8c <_printf_common>:
 8007b8c:	e92d 47f0 	stmdb	sp!, {r4, r5, r6, r7, r8, r9, sl, lr}
 8007b90:	4616      	mov	r6, r2
 8007b92:	4699      	mov	r9, r3
 8007b94:	688a      	ldr	r2, [r1, #8]
 8007b96:	690b      	ldr	r3, [r1, #16]
 8007b98:	f8dd 8020 	ldr.w	r8, [sp, #32]
 8007b9c:	4293      	cmp	r3, r2
 8007b9e:	bfb8      	it	lt
 8007ba0:	4613      	movlt	r3, r2
 8007ba2:	6033      	str	r3, [r6, #0]
 8007ba4:	f891 2043 	ldrb.w	r2, [r1, #67]	; 0x43
 8007ba8:	4607      	mov	r7, r0
 8007baa:	460c      	mov	r4, r1
 8007bac:	b10a      	cbz	r2, 8007bb2 <_printf_common+0x26>
 8007bae:	3301      	adds	r3, #1
 8007bb0:	6033      	str	r3, [r6, #0]
 8007bb2:	6823      	ldr	r3, [r4, #0]
 8007bb4:	0699      	lsls	r1, r3, #26
 8007bb6:	bf42      	ittt	mi
 8007bb8:	6833      	ldrmi	r3, [r6, #0]
 8007bba:	3302      	addmi	r3, #2
 8007bbc:	6033      	strmi	r3, [r6, #0]
 8007bbe:	6825      	ldr	r5, [r4, #0]
 8007bc0:	f015 0506 	ands.w	r5, r5, #6
 8007bc4:	d106      	bne.n	8007bd4 <_printf_common+0x48>
 8007bc6:	f104 0a19 	add.w	sl, r4, #25
 8007bca:	68e3      	ldr	r3, [r4, #12]
 8007bcc:	6832      	ldr	r2, [r6, #0]
 8007bce:	1a9b      	subs	r3, r3, r2
 8007bd0:	42ab      	cmp	r3, r5
 8007bd2:	dc26      	bgt.n	8007c22 <_printf_common+0x96>
 8007bd4:	f894 2043 	ldrb.w	r2, [r4, #67]	; 0x43
 8007bd8:	1e13      	subs	r3, r2, #0
 8007bda:	6822      	ldr	r2, [r4, #0]
 8007bdc:	bf18      	it	ne
 8007bde:	2301      	movne	r3, #1
 8007be0:	0692      	lsls	r2, r2, #26
 8007be2:	d42b      	bmi.n	8007c3c <_printf_common+0xb0>
 8007be4:	f104 0243 	add.w	r2, r4, #67	; 0x43
 8007be8:	4649      	mov	r1, r9
 8007bea:	4638      	mov	r0, r7
 8007bec:	47c0      	blx	r8
 8007bee:	3001      	adds	r0, #1
 8007bf0:	d01e      	beq.n	8007c30 <_printf_common+0xa4>
 8007bf2:	6823      	ldr	r3, [r4, #0]
 8007bf4:	6922      	ldr	r2, [r4, #16]
 8007bf6:	f003 0306 	and.w	r3, r3, #6
 8007bfa:	2b04      	cmp	r3, #4
 8007bfc:	bf02      	ittt	eq
 8007bfe:	68e5      	ldreq	r5, [r4, #12]
 8007c00:	6833      	ldreq	r3, [r6, #0]
 8007c02:	1aed      	subeq	r5, r5, r3
 8007c04:	68a3      	ldr	r3, [r4, #8]
 8007c06:	bf0c      	ite	eq
 8007c08:	ea25 75e5 	biceq.w	r5, r5, r5, asr #31
 8007c0c:	2500      	movne	r5, #0
 8007c0e:	4293      	cmp	r3, r2
 8007c10:	bfc4      	itt	gt
 8007c12:	1a9b      	subgt	r3, r3, r2
 8007c14:	18ed      	addgt	r5, r5, r3
 8007c16:	2600      	movs	r6, #0
 8007c18:	341a      	adds	r4, #26
 8007c1a:	42b5      	cmp	r5, r6
 8007c1c:	d11a      	bne.n	8007c54 <_printf_common+0xc8>
 8007c1e:	2000      	movs	r0, #0
 8007c20:	e008      	b.n	8007c34 <_printf_common+0xa8>
 8007c22:	2301      	movs	r3, #1
 8007c24:	4652      	mov	r2, sl
 8007c26:	4649      	mov	r1, r9
 8007c28:	4638      	mov	r0, r7
 8007c2a:	47c0      	blx	r8
 8007c2c:	3001      	adds	r0, #1
 8007c2e:	d103      	bne.n	8007c38 <_printf_common+0xac>
 8007c30:	f04f 30ff 	mov.w	r0, #4294967295
 8007c34:	e8bd 87f0 	ldmia.w	sp!, {r4, r5, r6, r7, r8, r9, sl, pc}
 8007c38:	3501      	adds	r5, #1
 8007c3a:	e7c6      	b.n	8007bca <_printf_common+0x3e>
 8007c3c:	18e1      	adds	r1, r4, r3
 8007c3e:	1c5a      	adds	r2, r3, #1
 8007c40:	2030      	movs	r0, #48	; 0x30
 8007c42:	f881 0043 	strb.w	r0, [r1, #67]	; 0x43
 8007c46:	4422      	add	r2, r4
 8007c48:	f894 1045 	ldrb.w	r1, [r4, #69]	; 0x45
 8007c4c:	f882 1043 	strb.w	r1, [r2, #67]	; 0x43
 8007c50:	3302      	adds	r3, #2
 8007c52:	e7c7      	b.n	8007be4 <_printf_common+0x58>
 8007c54:	2301      	movs	r3, #1
 8007c56:	4622      	mov	r2, r4
 8007c58:	4649      	mov	r1, r9
 8007c5a:	4638      	mov	r0, r7
 8007c5c:	47c0      	blx	r8
 8007c5e:	3001      	adds	r0, #1
 8007c60:	d0e6      	beq.n	8007c30 <_printf_common+0xa4>
 8007c62:	3601      	adds	r6, #1
 8007c64:	e7d9      	b.n	8007c1a <_printf_common+0x8e>
	...

08007c68 <_printf_i>:
 8007c68:	e92d 47ff 	stmdb	sp!, {r0, r1, r2, r3, r4, r5, r6, r7, r8, r9, sl, lr}
 8007c6c:	7e0f      	ldrb	r7, [r1, #24]
 8007c6e:	9d0c      	ldr	r5, [sp, #48]	; 0x30
 8007c70:	2f78      	cmp	r7, #120	; 0x78
 8007c72:	4691      	mov	r9, r2
 8007c74:	4680      	mov	r8, r0
 8007c76:	460c      	mov	r4, r1
 8007c78:	469a      	mov	sl, r3
 8007c7a:	f101 0243 	add.w	r2, r1, #67	; 0x43
 8007c7e:	d807      	bhi.n	8007c90 <_printf_i+0x28>
 8007c80:	2f62      	cmp	r7, #98	; 0x62
 8007c82:	d80a      	bhi.n	8007c9a <_printf_i+0x32>
 8007c84:	2f00      	cmp	r7, #0
 8007c86:	f000 80d4 	beq.w	8007e32 <_printf_i+0x1ca>
 8007c8a:	2f58      	cmp	r7, #88	; 0x58
 8007c8c:	f000 80c0 	beq.w	8007e10 <_printf_i+0x1a8>
 8007c90:	f104 0542 	add.w	r5, r4, #66	; 0x42
 8007c94:	f884 7042 	strb.w	r7, [r4, #66]	; 0x42
 8007c98:	e03a      	b.n	8007d10 <_printf_i+0xa8>
 8007c9a:	f1a7 0363 	sub.w	r3, r7, #99	; 0x63
 8007c9e:	2b15      	cmp	r3, #21
 8007ca0:	d8f6      	bhi.n	8007c90 <_printf_i+0x28>
 8007ca2:	a101      	add	r1, pc, #4	; (adr r1, 8007ca8 <_printf_i+0x40>)
 8007ca4:	f851 f023 	ldr.w	pc, [r1, r3, lsl #2]
 8007ca8:	08007d01 	.word	0x08007d01
 8007cac:	08007d15 	.word	0x08007d15
 8007cb0:	08007c91 	.word	0x08007c91
 8007cb4:	08007c91 	.word	0x08007c91
 8007cb8:	08007c91 	.word	0x08007c91
 8007cbc:	08007c91 	.word	0x08007c91
 8007cc0:	08007d15 	.word	0x08007d15
 8007cc4:	08007c91 	.word	0x08007c91
 8007cc8:	08007c91 	.word	0x08007c91
 8007ccc:	08007c91 	.word	0x08007c91
 8007cd0:	08007c91 	.word	0x08007c91
 8007cd4:	08007e19 	.word	0x08007e19
 8007cd8:	08007d41 	.word	0x08007d41
 8007cdc:	08007dd3 	.word	0x08007dd3
 8007ce0:	08007c91 	.word	0x08007c91
 8007ce4:	08007c91 	.word	0x08007c91
 8007ce8:	08007e3b 	.word	0x08007e3b
 8007cec:	08007c91 	.word	0x08007c91
 8007cf0:	08007d41 	.word	0x08007d41
 8007cf4:	08007c91 	.word	0x08007c91
 8007cf8:	08007c91 	.word	0x08007c91
 8007cfc:	08007ddb 	.word	0x08007ddb
 8007d00:	682b      	ldr	r3, [r5, #0]
 8007d02:	1d1a      	adds	r2, r3, #4
 8007d04:	681b      	ldr	r3, [r3, #0]
 8007d06:	602a      	str	r2, [r5, #0]
 8007d08:	f104 0542 	add.w	r5, r4, #66	; 0x42
 8007d0c:	f884 3042 	strb.w	r3, [r4, #66]	; 0x42
 8007d10:	2301      	movs	r3, #1
 8007d12:	e09f      	b.n	8007e54 <_printf_i+0x1ec>
 8007d14:	6820      	ldr	r0, [r4, #0]
 8007d16:	682b      	ldr	r3, [r5, #0]
 8007d18:	0607      	lsls	r7, r0, #24
 8007d1a:	f103 0104 	add.w	r1, r3, #4
 8007d1e:	6029      	str	r1, [r5, #0]
 8007d20:	d501      	bpl.n	8007d26 <_printf_i+0xbe>
 8007d22:	681e      	ldr	r6, [r3, #0]
 8007d24:	e003      	b.n	8007d2e <_printf_i+0xc6>
 8007d26:	0646      	lsls	r6, r0, #25
 8007d28:	d5fb      	bpl.n	8007d22 <_printf_i+0xba>
 8007d2a:	f9b3 6000 	ldrsh.w	r6, [r3]
 8007d2e:	2e00      	cmp	r6, #0
 8007d30:	da03      	bge.n	8007d3a <_printf_i+0xd2>
 8007d32:	232d      	movs	r3, #45	; 0x2d
 8007d34:	4276      	negs	r6, r6
 8007d36:	f884 3043 	strb.w	r3, [r4, #67]	; 0x43
 8007d3a:	485a      	ldr	r0, [pc, #360]	; (8007ea4 <_printf_i+0x23c>)
 8007d3c:	230a      	movs	r3, #10
 8007d3e:	e012      	b.n	8007d66 <_printf_i+0xfe>
 8007d40:	682b      	ldr	r3, [r5, #0]
 8007d42:	6820      	ldr	r0, [r4, #0]
 8007d44:	1d19      	adds	r1, r3, #4
 8007d46:	6029      	str	r1, [r5, #0]
 8007d48:	0605      	lsls	r5, r0, #24
 8007d4a:	d501      	bpl.n	8007d50 <_printf_i+0xe8>
 8007d4c:	681e      	ldr	r6, [r3, #0]
 8007d4e:	e002      	b.n	8007d56 <_printf_i+0xee>
 8007d50:	0641      	lsls	r1, r0, #25
 8007d52:	d5fb      	bpl.n	8007d4c <_printf_i+0xe4>
 8007d54:	881e      	ldrh	r6, [r3, #0]
 8007d56:	4853      	ldr	r0, [pc, #332]	; (8007ea4 <_printf_i+0x23c>)
 8007d58:	2f6f      	cmp	r7, #111	; 0x6f
 8007d5a:	bf0c      	ite	eq
 8007d5c:	2308      	moveq	r3, #8
 8007d5e:	230a      	movne	r3, #10
 8007d60:	2100      	movs	r1, #0
 8007d62:	f884 1043 	strb.w	r1, [r4, #67]	; 0x43
 8007d66:	6865      	ldr	r5, [r4, #4]
 8007d68:	60a5      	str	r5, [r4, #8]
 8007d6a:	2d00      	cmp	r5, #0
 8007d6c:	bfa2      	ittt	ge
 8007d6e:	6821      	ldrge	r1, [r4, #0]
 8007d70:	f021 0104 	bicge.w	r1, r1, #4
 8007d74:	6021      	strge	r1, [r4, #0]
 8007d76:	b90e      	cbnz	r6, 8007d7c <_printf_i+0x114>
 8007d78:	2d00      	cmp	r5, #0
 8007d7a:	d04b      	beq.n	8007e14 <_printf_i+0x1ac>
 8007d7c:	4615      	mov	r5, r2
 8007d7e:	fbb6 f1f3 	udiv	r1, r6, r3
 8007d82:	fb03 6711 	mls	r7, r3, r1, r6
 8007d86:	5dc7      	ldrb	r7, [r0, r7]
 8007d88:	f805 7d01 	strb.w	r7, [r5, #-1]!
 8007d8c:	4637      	mov	r7, r6
 8007d8e:	42bb      	cmp	r3, r7
 8007d90:	460e      	mov	r6, r1
 8007d92:	d9f4      	bls.n	8007d7e <_printf_i+0x116>
 8007d94:	2b08      	cmp	r3, #8
 8007d96:	d10b      	bne.n	8007db0 <_printf_i+0x148>
 8007d98:	6823      	ldr	r3, [r4, #0]
 8007d9a:	07de      	lsls	r6, r3, #31
 8007d9c:	d508      	bpl.n	8007db0 <_printf_i+0x148>
 8007d9e:	6923      	ldr	r3, [r4, #16]
 8007da0:	6861      	ldr	r1, [r4, #4]
 8007da2:	4299      	cmp	r1, r3
 8007da4:	bfde      	ittt	le
 8007da6:	2330      	movle	r3, #48	; 0x30
 8007da8:	f805 3c01 	strble.w	r3, [r5, #-1]
 8007dac:	f105 35ff 	addle.w	r5, r5, #4294967295
 8007db0:	1b52      	subs	r2, r2, r5
 8007db2:	6122      	str	r2, [r4, #16]
 8007db4:	f8cd a000 	str.w	sl, [sp]
 8007db8:	464b      	mov	r3, r9
 8007dba:	aa03      	add	r2, sp, #12
 8007dbc:	4621      	mov	r1, r4
 8007dbe:	4640      	mov	r0, r8
 8007dc0:	f7ff fee4 	bl	8007b8c <_printf_common>
 8007dc4:	3001      	adds	r0, #1
 8007dc6:	d14a      	bne.n	8007e5e <_printf_i+0x1f6>
 8007dc8:	f04f 30ff 	mov.w	r0, #4294967295
 8007dcc:	b004      	add	sp, #16
 8007dce:	e8bd 87f0 	ldmia.w	sp!, {r4, r5, r6, r7, r8, r9, sl, pc}
 8007dd2:	6823      	ldr	r3, [r4, #0]
 8007dd4:	f043 0320 	orr.w	r3, r3, #32
 8007dd8:	6023      	str	r3, [r4, #0]
 8007dda:	4833      	ldr	r0, [pc, #204]	; (8007ea8 <_printf_i+0x240>)
 8007ddc:	2778      	movs	r7, #120	; 0x78
 8007dde:	f884 7045 	strb.w	r7, [r4, #69]	; 0x45
 8007de2:	6823      	ldr	r3, [r4, #0]
 8007de4:	6829      	ldr	r1, [r5, #0]
 8007de6:	061f      	lsls	r7, r3, #24
 8007de8:	f851 6b04 	ldr.w	r6, [r1], #4
 8007dec:	d402      	bmi.n	8007df4 <_printf_i+0x18c>
 8007dee:	065f      	lsls	r7, r3, #25
 8007df0:	bf48      	it	mi
 8007df2:	b2b6      	uxthmi	r6, r6
 8007df4:	07df      	lsls	r7, r3, #31
 8007df6:	bf48      	it	mi
 8007df8:	f043 0320 	orrmi.w	r3, r3, #32
 8007dfc:	6029      	str	r1, [r5, #0]
 8007dfe:	bf48      	it	mi
 8007e00:	6023      	strmi	r3, [r4, #0]
 8007e02:	b91e      	cbnz	r6, 8007e0c <_printf_i+0x1a4>
 8007e04:	6823      	ldr	r3, [r4, #0]
 8007e06:	f023 0320 	bic.w	r3, r3, #32
 8007e0a:	6023      	str	r3, [r4, #0]
 8007e0c:	2310      	movs	r3, #16
 8007e0e:	e7a7      	b.n	8007d60 <_printf_i+0xf8>
 8007e10:	4824      	ldr	r0, [pc, #144]	; (8007ea4 <_printf_i+0x23c>)
 8007e12:	e7e4      	b.n	8007dde <_printf_i+0x176>
 8007e14:	4615      	mov	r5, r2
 8007e16:	e7bd      	b.n	8007d94 <_printf_i+0x12c>
 8007e18:	682b      	ldr	r3, [r5, #0]
 8007e1a:	6826      	ldr	r6, [r4, #0]
 8007e1c:	6961      	ldr	r1, [r4, #20]
 8007e1e:	1d18      	adds	r0, r3, #4
 8007e20:	6028      	str	r0, [r5, #0]
 8007e22:	0635      	lsls	r5, r6, #24
 8007e24:	681b      	ldr	r3, [r3, #0]
 8007e26:	d501      	bpl.n	8007e2c <_printf_i+0x1c4>
 8007e28:	6019      	str	r1, [r3, #0]
 8007e2a:	e002      	b.n	8007e32 <_printf_i+0x1ca>
 8007e2c:	0670      	lsls	r0, r6, #25
 8007e2e:	d5fb      	bpl.n	8007e28 <_printf_i+0x1c0>
 8007e30:	8019      	strh	r1, [r3, #0]
 8007e32:	2300      	movs	r3, #0
 8007e34:	6123      	str	r3, [r4, #16]
 8007e36:	4615      	mov	r5, r2
 8007e38:	e7bc      	b.n	8007db4 <_printf_i+0x14c>
 8007e3a:	682b      	ldr	r3, [r5, #0]
 8007e3c:	1d1a      	adds	r2, r3, #4
 8007e3e:	602a      	str	r2, [r5, #0]
 8007e40:	681d      	ldr	r5, [r3, #0]
 8007e42:	6862      	ldr	r2, [r4, #4]
 8007e44:	2100      	movs	r1, #0
 8007e46:	4628      	mov	r0, r5
 8007e48:	f7f8 fa4a 	bl	80002e0 <memchr>
 8007e4c:	b108      	cbz	r0, 8007e52 <_printf_i+0x1ea>
 8007e4e:	1b40      	subs	r0, r0, r5
 8007e50:	6060      	str	r0, [r4, #4]
 8007e52:	6863      	ldr	r3, [r4, #4]
 8007e54:	6123      	str	r3, [r4, #16]
 8007e56:	2300      	movs	r3, #0
 8007e58:	f884 3043 	strb.w	r3, [r4, #67]	; 0x43
 8007e5c:	e7aa      	b.n	8007db4 <_printf_i+0x14c>
 8007e5e:	6923      	ldr	r3, [r4, #16]
 8007e60:	462a      	mov	r2, r5
 8007e62:	4649      	mov	r1, r9
 8007e64:	4640      	mov	r0, r8
 8007e66:	47d0      	blx	sl
 8007e68:	3001      	adds	r0, #1
 8007e6a:	d0ad      	beq.n	8007dc8 <_printf_i+0x160>
 8007e6c:	6823      	ldr	r3, [r4, #0]
 8007e6e:	079b      	lsls	r3, r3, #30
 8007e70:	d413      	bmi.n	8007e9a <_printf_i+0x232>
 8007e72:	68e0      	ldr	r0, [r4, #12]
 8007e74:	9b03      	ldr	r3, [sp, #12]
 8007e76:	4298      	cmp	r0, r3
 8007e78:	bfb8      	it	lt
 8007e7a:	4618      	movlt	r0, r3
 8007e7c:	e7a6      	b.n	8007dcc <_printf_i+0x164>
 8007e7e:	2301      	movs	r3, #1
 8007e80:	4632      	mov	r2, r6
 8007e82:	4649      	mov	r1, r9
 8007e84:	4640      	mov	r0, r8
 8007e86:	47d0      	blx	sl
 8007e88:	3001      	adds	r0, #1
 8007e8a:	d09d      	beq.n	8007dc8 <_printf_i+0x160>
 8007e8c:	3501      	adds	r5, #1
 8007e8e:	68e3      	ldr	r3, [r4, #12]
 8007e90:	9903      	ldr	r1, [sp, #12]
 8007e92:	1a5b      	subs	r3, r3, r1
 8007e94:	42ab      	cmp	r3, r5
 8007e96:	dcf2      	bgt.n	8007e7e <_printf_i+0x216>
 8007e98:	e7eb      	b.n	8007e72 <_printf_i+0x20a>
 8007e9a:	2500      	movs	r5, #0
 8007e9c:	f104 0619 	add.w	r6, r4, #25
 8007ea0:	e7f5      	b.n	8007e8e <_printf_i+0x226>
 8007ea2:	bf00      	nop
 8007ea4:	0800f6c2 	.word	0x0800f6c2
 8007ea8:	0800f6d3 	.word	0x0800f6d3

08007eac <memmove>:
 8007eac:	4288      	cmp	r0, r1
 8007eae:	b510      	push	{r4, lr}
 8007eb0:	eb01 0402 	add.w	r4, r1, r2
 8007eb4:	d902      	bls.n	8007ebc <memmove+0x10>
 8007eb6:	4284      	cmp	r4, r0
 8007eb8:	4623      	mov	r3, r4
 8007eba:	d807      	bhi.n	8007ecc <memmove+0x20>
 8007ebc:	1e43      	subs	r3, r0, #1
 8007ebe:	42a1      	cmp	r1, r4
 8007ec0:	d008      	beq.n	8007ed4 <memmove+0x28>
 8007ec2:	f811 2b01 	ldrb.w	r2, [r1], #1
 8007ec6:	f803 2f01 	strb.w	r2, [r3, #1]!
 8007eca:	e7f8      	b.n	8007ebe <memmove+0x12>
 8007ecc:	4402      	add	r2, r0
 8007ece:	4601      	mov	r1, r0
 8007ed0:	428a      	cmp	r2, r1
 8007ed2:	d100      	bne.n	8007ed6 <memmove+0x2a>
 8007ed4:	bd10      	pop	{r4, pc}
 8007ed6:	f813 4d01 	ldrb.w	r4, [r3, #-1]!
 8007eda:	f802 4d01 	strb.w	r4, [r2, #-1]!
 8007ede:	e7f7      	b.n	8007ed0 <memmove+0x24>

08007ee0 <_sbrk_r>:
 8007ee0:	b538      	push	{r3, r4, r5, lr}
 8007ee2:	4d06      	ldr	r5, [pc, #24]	; (8007efc <_sbrk_r+0x1c>)
 8007ee4:	2300      	movs	r3, #0
 8007ee6:	4604      	mov	r4, r0
 8007ee8:	4608      	mov	r0, r1
 8007eea:	602b      	str	r3, [r5, #0]
 8007eec:	f7fa ff44 	bl	8002d78 <_sbrk>
 8007ef0:	1c43      	adds	r3, r0, #1
 8007ef2:	d102      	bne.n	8007efa <_sbrk_r+0x1a>
 8007ef4:	682b      	ldr	r3, [r5, #0]
 8007ef6:	b103      	cbz	r3, 8007efa <_sbrk_r+0x1a>
 8007ef8:	6023      	str	r3, [r4, #0]
 8007efa:	bd38      	pop	{r3, r4, r5, pc}
 8007efc:	24006df0 	.word	0x24006df0

08007f00 <memcpy>:
 8007f00:	440a      	add	r2, r1
 8007f02:	4291      	cmp	r1, r2
 8007f04:	f100 33ff 	add.w	r3, r0, #4294967295
 8007f08:	d100      	bne.n	8007f0c <memcpy+0xc>
 8007f0a:	4770      	bx	lr
 8007f0c:	b510      	push	{r4, lr}
 8007f0e:	f811 4b01 	ldrb.w	r4, [r1], #1
 8007f12:	f803 4f01 	strb.w	r4, [r3, #1]!
 8007f16:	4291      	cmp	r1, r2
 8007f18:	d1f9      	bne.n	8007f0e <memcpy+0xe>
 8007f1a:	bd10      	pop	{r4, pc}

08007f1c <_realloc_r>:
 8007f1c:	e92d 41f0 	stmdb	sp!, {r4, r5, r6, r7, r8, lr}
 8007f20:	4680      	mov	r8, r0
 8007f22:	4614      	mov	r4, r2
 8007f24:	460e      	mov	r6, r1
 8007f26:	b921      	cbnz	r1, 8007f32 <_realloc_r+0x16>
 8007f28:	e8bd 41f0 	ldmia.w	sp!, {r4, r5, r6, r7, r8, lr}
 8007f2c:	4611      	mov	r1, r2
 8007f2e:	f7ff bc49 	b.w	80077c4 <_malloc_r>
 8007f32:	b92a      	cbnz	r2, 8007f40 <_realloc_r+0x24>
 8007f34:	f7ff fbda 	bl	80076ec <_free_r>
 8007f38:	4625      	mov	r5, r4
 8007f3a:	4628      	mov	r0, r5
 8007f3c:	e8bd 81f0 	ldmia.w	sp!, {r4, r5, r6, r7, r8, pc}
 8007f40:	f000 f81b 	bl	8007f7a <_malloc_usable_size_r>
 8007f44:	4284      	cmp	r4, r0
 8007f46:	4607      	mov	r7, r0
 8007f48:	d802      	bhi.n	8007f50 <_realloc_r+0x34>
 8007f4a:	ebb4 0f50 	cmp.w	r4, r0, lsr #1
 8007f4e:	d812      	bhi.n	8007f76 <_realloc_r+0x5a>
 8007f50:	4621      	mov	r1, r4
 8007f52:	4640      	mov	r0, r8
 8007f54:	f7ff fc36 	bl	80077c4 <_malloc_r>
 8007f58:	4605      	mov	r5, r0
 8007f5a:	2800      	cmp	r0, #0
 8007f5c:	d0ed      	beq.n	8007f3a <_realloc_r+0x1e>
 8007f5e:	42bc      	cmp	r4, r7
 8007f60:	4622      	mov	r2, r4
 8007f62:	4631      	mov	r1, r6
 8007f64:	bf28      	it	cs
 8007f66:	463a      	movcs	r2, r7
 8007f68:	f7ff ffca 	bl	8007f00 <memcpy>
 8007f6c:	4631      	mov	r1, r6
 8007f6e:	4640      	mov	r0, r8
 8007f70:	f7ff fbbc 	bl	80076ec <_free_r>
 8007f74:	e7e1      	b.n	8007f3a <_realloc_r+0x1e>
 8007f76:	4635      	mov	r5, r6
 8007f78:	e7df      	b.n	8007f3a <_realloc_r+0x1e>

08007f7a <_malloc_usable_size_r>:
 8007f7a:	f851 3c04 	ldr.w	r3, [r1, #-4]
 8007f7e:	1f18      	subs	r0, r3, #4
 8007f80:	2b00      	cmp	r3, #0
 8007f82:	bfbc      	itt	lt
 8007f84:	580b      	ldrlt	r3, [r1, r0]
 8007f86:	18c0      	addlt	r0, r0, r3
 8007f88:	4770      	bx	lr
	...

08007f8c <_init>:
 8007f8c:	b5f8      	push	{r3, r4, r5, r6, r7, lr}
 8007f8e:	bf00      	nop
 8007f90:	bcf8      	pop	{r3, r4, r5, r6, r7}
 8007f92:	bc08      	pop	{r3}
 8007f94:	469e      	mov	lr, r3
 8007f96:	4770      	bx	lr

08007f98 <_fini>:
 8007f98:	b5f8      	push	{r3, r4, r5, r6, r7, lr}
 8007f9a:	bf00      	nop
 8007f9c:	bcf8      	pop	{r3, r4, r5, r6, r7}
 8007f9e:	bc08      	pop	{r3}
 8007fa0:	469e      	mov	lr, r3
 8007fa2:	4770      	bx	lr
